GAS LISTING h:/6261A/11CW1352MP_BIRD61A_11C_V33_GPRS_MMI/plutommi/Customer/ResGenerator/gcctmp/ccEHcaaa.s 			page 1


   1              		.file	"ThreadPool.cpp"
   4              		.text
   5              	Ltext0:
 4175              		.align 32
 4176              	LC0:
 4177 0000 556E6162 		.ascii "Unable to create thread pool due to lack of memory.\0"
 4177      6C652074 
 4177      6F206372 
 4177      65617465 
 4177      20746872 
 4178              	LC1:
 4179 0034 54485245 		.ascii "THREADPOLL\0"
 4179      4144504F 
 4179      4C4C00
 4180              	LC2:
 4181 003f 556E6162 		.ascii "Unable to create thread pool\0"
 4181      6C652074 
 4181      6F206372 
 4181      65617465 
 4181      20746872 
 4182              		.align 2
 4187              	.globl __ZN10ThreadPoolC2Eii
 4189              	__ZN10ThreadPoolC2Eii:
   1:../../MMI/Resource/ThreadPool.cpp **** #include <windows.h>
   2:../../MMI/Resource/ThreadPool.cpp **** #include "ThreadPool.h"
   3:../../MMI/Resource/ThreadPool.cpp **** #include <process.h>
   4:../../MMI/Resource/ThreadPool.cpp **** #include <assert.h>
   5:../../MMI/Resource/ThreadPool.cpp **** #include "ResgenLogCAPI.h"
   6:../../MMI/Resource/ThreadPool.cpp **** 
   7:../../MMI/Resource/ThreadPool.cpp **** #define THREADP_TAG "THREADPOLL"
   8:../../MMI/Resource/ThreadPool.cpp **** 
   9:../../MMI/Resource/ThreadPool.cpp **** #define THREADP_LOG_D(format, args...) RES_LOG_D((THREADP_TAG), (format) , ##args)
  10:../../MMI/Resource/ThreadPool.cpp **** #define THREADP_LOG_V(format, args...) RES_LOG_V((THREADP_TAG), (format) , ##args)
  11:../../MMI/Resource/ThreadPool.cpp **** #define THREADP_LOG_W(format, args...) RES_LOG_W((THREADP_TAG), (format) , ##args)
  12:../../MMI/Resource/ThreadPool.cpp **** #define THREADP_LOG_E(format, args...) RES_LOG_E((THREADP_TAG), (format) , ##args)
  13:../../MMI/Resource/ThreadPool.cpp **** 
  14:../../MMI/Resource/ThreadPool.cpp **** ThreadPool::ThreadPool(int poolSize, int waitTimeForThreadsToCompleteMS)
  15:../../MMI/Resource/ThreadPool.cpp **** {
 4191              	LM1:
 4192 005c 55       		pushl	%ebp
 4193 005d 89E5     		movl	%esp, %ebp
 4194 005f 57       		pushl	%edi
 4195 0060 56       		pushl	%esi
 4196 0061 53       		pushl	%ebx
 4197 0062 83EC7C   		subl	$124, %esp
 4198 0065 C745C400 		movl	$___gxx_personality_sj0, -60(%ebp)
 4198      000000
 4199 006c C745C800 		movl	$LLSDA644, -56(%ebp)
 4199      000000
 4200 0073 8D45CC   		leal	-52(%ebp), %eax
 4201 0076 8D55E8   		leal	-24(%ebp), %edx
 4202 0079 8910     		movl	%edx, (%eax)
 4203 007b BADC0100 		movl	$L21, %edx
 4203      00
 4204 0080 895004   		movl	%edx, 4(%eax)
 4205 0083 896008   		movl	%esp, 8(%eax)
 4206 0086 8D45AC   		leal	-84(%ebp), %eax
GAS LISTING h:/6261A/11CW1352MP_BIRD61A_11C_V33_GPRS_MMI/plutommi/Customer/ResGenerator/gcctmp/ccEHcaaa.s 			page 2


 4207 0089 890424   		movl	%eax, (%esp)
 4208 008c E8000000 		call	__Unwind_SjLj_Register
 4208      00
 4210              	LM2:
 4211              	LBB2:
 4212 0091 8B4508   		movl	8(%ebp), %eax
 4213 0094 C7000800 		movl	$__ZTV10ThreadPool+8, (%eax)
 4213      0000
 4214 009a 8D45D8   		leal	-40(%ebp), %eax
 4215 009d 890424   		movl	%eax, (%esp)
 4216 00a0 E8000000 		call	__ZNSaIN10ThreadPool7JobDataEEC1Ev
 4216      00
 4217 00a5 8D45D8   		leal	-40(%ebp), %eax
 4218 00a8 89442404 		movl	%eax, 4(%esp)
 4219 00ac 8B4508   		movl	8(%ebp), %eax
 4220 00af 83C004   		addl	$4, %eax
 4221 00b2 890424   		movl	%eax, (%esp)
 4222 00b5 C745B003 		movl	$3, -80(%ebp)
 4222      000000
 4223 00bc E8000000 		call	__ZNSt4listIN10ThreadPool7JobDataESaIS1_EEC1ERKS2_
 4223      00
 4224 00c1 EB29     		jmp	L3
 4225              	L2:
 4226 00c3 8B45A4   		movl	-92(%ebp), %eax
 4227 00c6 8945A8   		movl	%eax, -88(%ebp)
 4228 00c9 8D45D8   		leal	-40(%ebp), %eax
 4229 00cc 890424   		movl	%eax, (%esp)
 4230 00cf E8000000 		call	__ZNSaIN10ThreadPool7JobDataEED1Ev
 4230      00
 4231 00d4 8B55A8   		movl	-88(%ebp), %edx
 4232 00d7 8955A4   		movl	%edx, -92(%ebp)
 4233              	L4:
 4234 00da 8B45A4   		movl	-92(%ebp), %eax
 4235 00dd 890424   		movl	%eax, (%esp)
 4236 00e0 C745B0FF 		movl	$-1, -80(%ebp)
 4236      FFFFFF
 4237 00e7 E8000000 		call	__Unwind_SjLj_Resume
 4237      00
 4238              	L3:
 4239 00ec 8D45D8   		leal	-40(%ebp), %eax
 4240 00ef 890424   		movl	%eax, (%esp)
 4241 00f2 E8000000 		call	__ZNSaIN10ThreadPool7JobDataEED1Ev
 4241      00
 4242 00f7 8D45D8   		leal	-40(%ebp), %eax
 4243 00fa 890424   		movl	%eax, (%esp)
 4244 00fd E8000000 		call	__ZNSaIN10ThreadPool10ThreadDataEEC1Ev
 4244      00
 4245 0102 8D45D8   		leal	-40(%ebp), %eax
 4246 0105 89442404 		movl	%eax, 4(%esp)
 4247 0109 8B4508   		movl	8(%ebp), %eax
 4248 010c 83C008   		addl	$8, %eax
 4249 010f 890424   		movl	%eax, (%esp)
 4250 0112 C745B002 		movl	$2, -80(%ebp)
 4250      000000
 4251 0119 E8000000 		call	__ZNSt6vectorIN10ThreadPool10ThreadDataESaIS1_EEC1ERKS2_
 4251      00
 4252 011e EB1C     		jmp	L7
GAS LISTING h:/6261A/11CW1352MP_BIRD61A_11C_V33_GPRS_MMI/plutommi/Customer/ResGenerator/gcctmp/ccEHcaaa.s 			page 3


 4253              	L6:
 4254 0120 8B55A4   		movl	-92(%ebp), %edx
 4255 0123 8955A0   		movl	%edx, -96(%ebp)
 4256 0126 8D45D8   		leal	-40(%ebp), %eax
 4257 0129 890424   		movl	%eax, (%esp)
 4258 012c E8000000 		call	__ZNSaIN10ThreadPool10ThreadDataEED1Ev
 4258      00
 4259 0131 8B45A0   		movl	-96(%ebp), %eax
 4260 0134 8945A4   		movl	%eax, -92(%ebp)
 4261              	L8:
 4262 0137 E9E40000 		jmp	L17
 4262      00
 4263              	L7:
 4264 013c 8D45D8   		leal	-40(%ebp), %eax
 4265 013f 890424   		movl	%eax, (%esp)
 4266 0142 E8000000 		call	__ZNSaIN10ThreadPool10ThreadDataEED1Ev
 4266      00
  16:../../MMI/Resource/ThreadPool.cpp ****     m_nWaitForThreadsToDieMS = waitTimeForThreadsToCompleteMS;
 4268              	LM3:
 4269 0147 8B5508   		movl	8(%ebp), %edx
 4270 014a 8B4510   		movl	16(%ebp), %eax
 4271 014d 894214   		movl	%eax, 20(%edx)
  17:../../MMI/Resource/ThreadPool.cpp ****     m_hNotifyShutdown = NULL;
 4273              	LM4:
 4274 0150 8B4508   		movl	8(%ebp), %eax
 4275 0153 C7401800 		movl	$0, 24(%eax)
 4275      000000
  18:../../MMI/Resource/ThreadPool.cpp **** 
  19:../../MMI/Resource/ThreadPool.cpp ****     InitializeCriticalSection(&m_cs);
 4277              	LM5:
 4278 015a 8B4508   		movl	8(%ebp), %eax
 4279 015d 83C01C   		addl	$28, %eax
 4280 0160 890424   		movl	%eax, (%esp)
 4281 0163 C745B001 		movl	$1, -80(%ebp)
 4281      000000
 4282 016a E8000000 		call	_InitializeCriticalSection@4
 4282      00
 4283 016f 83EC04   		subl	$4, %esp
  20:../../MMI/Resource/ThreadPool.cpp **** 
  21:../../MMI/Resource/ThreadPool.cpp ****     if (poolSize > 0 && !Create(poolSize))
 4285              	LM6:
 4286 0172 837D0C00 		cmpl	$0, 12(%ebp)
 4287 0176 0F8ED700 		jle	L1
 4287      0000
 4288 017c 8B450C   		movl	12(%ebp), %eax
 4289 017f 89442404 		movl	%eax, 4(%esp)
 4290 0183 8B4508   		movl	8(%ebp), %eax
 4291 0186 890424   		movl	%eax, (%esp)
 4292 0189 E8FC0600 		call	__ZN10ThreadPool6CreateEi
 4292      00
 4293 018e 84C0     		testb	%al, %al
 4294 0190 0F85BD00 		jne	L1
 4294      0000
  22:../../MMI/Resource/ThreadPool.cpp ****     {
  23:../../MMI/Resource/ThreadPool.cpp ****         THREADP_LOG_E("Unable to create thread pool due to lack of memory.");
 4296              	LM7:
 4297 0196 C7442408 		movl	$LC0, 8(%esp)
GAS LISTING h:/6261A/11CW1352MP_BIRD61A_11C_V33_GPRS_MMI/plutommi/Customer/ResGenerator/gcctmp/ccEHcaaa.s 			page 4


 4297      00000000 
 4298 019e C7442404 		movl	$LC1, 4(%esp)
 4298      34000000 
 4299 01a6 C7042403 		movl	$3, (%esp)
 4299      000000
 4300 01ad E8000000 		call	_reslog_adaptor_log
 4300      00
  24:../../MMI/Resource/ThreadPool.cpp ****         throw "Unable to create thread pool";
 4302              	LM8:
 4303 01b2 C7042404 		movl	$4, (%esp)
 4303      000000
 4304 01b9 E8000000 		call	___cxa_allocate_exception
 4304      00
 4305 01be C7003F00 		movl	$LC2, (%eax)
 4305      0000
 4306              	L11:
 4307 01c4 C7442408 		movl	$0, 8(%esp)
 4307      00000000 
 4308 01cc C7442404 		movl	$__ZTIPKc, 4(%esp)
 4308      00000000 
 4309 01d4 890424   		movl	%eax, (%esp)
 4310 01d7 E8000000 		call	___cxa_throw
 4310      00
 4311              	L21:
 4312 01dc 8D6D18   		leal	24(%ebp), %ebp
 4313 01df 8B55B0   		movl	-80(%ebp), %edx
 4314 01e2 895594   		movl	%edx, -108(%ebp)
 4315 01e5 8B45B4   		movl	-76(%ebp), %eax
 4316 01e8 8945A4   		movl	%eax, -92(%ebp)
 4317 01eb 837D9401 		cmpl	$1, -108(%ebp)
 4318 01ef 0F842BFF 		je	L6
 4318      FFFF
 4319 01f5 837D9402 		cmpl	$2, -108(%ebp)
 4320 01f9 0F84C4FE 		je	L2
 4320      FFFF
 4321              	L13:
 4322 01ff 8B55A4   		movl	-92(%ebp), %edx
 4323 0202 89559C   		movl	%edx, -100(%ebp)
 4324 0205 8B4508   		movl	8(%ebp), %eax
 4325 0208 83C008   		addl	$8, %eax
 4326 020b 890424   		movl	%eax, (%esp)
 4327 020e C745B000 		movl	$0, -80(%ebp)
 4327      000000
 4328 0215 E8000000 		call	__ZNSt6vectorIN10ThreadPool10ThreadDataESaIS1_EED1Ev
 4328      00
 4329 021a 8B459C   		movl	-100(%ebp), %eax
 4330 021d 8945A4   		movl	%eax, -92(%ebp)
 4331              	L15:
 4332              	L17:
 4333 0220 8B55A4   		movl	-92(%ebp), %edx
 4334 0223 895598   		movl	%edx, -104(%ebp)
 4335 0226 8B4508   		movl	8(%ebp), %eax
 4336 0229 83C004   		addl	$4, %eax
 4337 022c 890424   		movl	%eax, (%esp)
 4338 022f C745B000 		movl	$0, -80(%ebp)
 4338      000000
 4339 0236 E8000000 		call	__ZNSt4listIN10ThreadPool7JobDataESaIS1_EED1Ev
GAS LISTING h:/6261A/11CW1352MP_BIRD61A_11C_V33_GPRS_MMI/plutommi/Customer/ResGenerator/gcctmp/ccEHcaaa.s 			page 5


 4339      00
 4340 023b 8B4598   		movl	-104(%ebp), %eax
 4341 023e 8945A4   		movl	%eax, -92(%ebp)
 4342              	L19:
 4343 0241 8B55A4   		movl	-92(%ebp), %edx
 4344 0244 891424   		movl	%edx, (%esp)
 4345 0247 C745B0FF 		movl	$-1, -80(%ebp)
 4345      FFFFFF
 4346 024e E8000000 		call	__Unwind_SjLj_Resume
 4346      00
  25:../../MMI/Resource/ThreadPool.cpp ****     }
  26:../../MMI/Resource/ThreadPool.cpp **** }
 4348              	LM9:
 4349              	L1:
 4350 0253 8D45AC   		leal	-84(%ebp), %eax
 4351 0256 890424   		movl	%eax, (%esp)
 4352 0259 E8000000 		call	__Unwind_SjLj_Unregister
 4352      00
 4353 025e 8D65F4   		leal	-12(%ebp), %esp
 4354 0261 5B       		popl	%ebx
 4355 0262 5E       		popl	%esi
 4356 0263 5F       		popl	%edi
 4357 0264 5D       		popl	%ebp
 4358 0265 C3       		ret
 4359              	LBE2:
 4360              		.section	.gcc_except_table,""
 4361              	LLSDA644:
 4362 0000 FF       		.byte	0xff
 4363 0001 FF       		.byte	0xff
 4364 0002 01       		.byte	0x1
 4365 0003 06       		.uleb128 LLSDACSE644-LLSDACSB644
 4366              	LLSDACSB644:
 4367 0004 00       		.uleb128 0x0
 4368 0005 00       		.uleb128 0x0
 4369 0006 01       		.uleb128 0x1
 4370 0007 00       		.uleb128 0x0
 4371 0008 02       		.uleb128 0x2
 4372 0009 00       		.uleb128 0x0
 4373              	LLSDACSE644:
 4374              		.text
 4375              	Lscope0:
 4377              		.align 2
 4382              	.globl __ZN10ThreadPoolC1Eii
 4384              	__ZN10ThreadPoolC1Eii:
 4386              	LM10:
 4387 0266 55       		pushl	%ebp
 4388 0267 89E5     		movl	%esp, %ebp
 4389 0269 57       		pushl	%edi
 4390 026a 56       		pushl	%esi
 4391 026b 53       		pushl	%ebx
 4392 026c 83EC7C   		subl	$124, %esp
 4393 026f C745C400 		movl	$___gxx_personality_sj0, -60(%ebp)
 4393      000000
 4394 0276 C745C80A 		movl	$LLSDA646, -56(%ebp)
 4394      000000
 4395 027d 8D45CC   		leal	-52(%ebp), %eax
 4396 0280 8D55E8   		leal	-24(%ebp), %edx
GAS LISTING h:/6261A/11CW1352MP_BIRD61A_11C_V33_GPRS_MMI/plutommi/Customer/ResGenerator/gcctmp/ccEHcaaa.s 			page 6


 4397 0283 8910     		movl	%edx, (%eax)
 4398 0285 BAE60300 		movl	$L42, %edx
 4398      00
 4399 028a 895004   		movl	%edx, 4(%eax)
 4400 028d 896008   		movl	%esp, 8(%eax)
 4401 0290 8D45AC   		leal	-84(%ebp), %eax
 4402 0293 890424   		movl	%eax, (%esp)
 4403 0296 E8000000 		call	__Unwind_SjLj_Register
 4403      00
 4405              	LM11:
 4406              	LBB3:
 4407 029b 8B4508   		movl	8(%ebp), %eax
 4408 029e C7000800 		movl	$__ZTV10ThreadPool+8, (%eax)
 4408      0000
 4409 02a4 8D45D8   		leal	-40(%ebp), %eax
 4410 02a7 890424   		movl	%eax, (%esp)
 4411 02aa E8000000 		call	__ZNSaIN10ThreadPool7JobDataEEC1Ev
 4411      00
 4412 02af 8D45D8   		leal	-40(%ebp), %eax
 4413 02b2 89442404 		movl	%eax, 4(%esp)
 4414 02b6 8B4508   		movl	8(%ebp), %eax
 4415 02b9 83C004   		addl	$4, %eax
 4416 02bc 890424   		movl	%eax, (%esp)
 4417 02bf C745B003 		movl	$3, -80(%ebp)
 4417      000000
 4418 02c6 E8000000 		call	__ZNSt4listIN10ThreadPool7JobDataESaIS1_EEC1ERKS2_
 4418      00
 4419 02cb EB29     		jmp	L24
 4420              	L23:
 4421 02cd 8B45A4   		movl	-92(%ebp), %eax
 4422 02d0 8945A8   		movl	%eax, -88(%ebp)
 4423 02d3 8D45D8   		leal	-40(%ebp), %eax
 4424 02d6 890424   		movl	%eax, (%esp)
 4425 02d9 E8000000 		call	__ZNSaIN10ThreadPool7JobDataEED1Ev
 4425      00
 4426 02de 8B55A8   		movl	-88(%ebp), %edx
 4427 02e1 8955A4   		movl	%edx, -92(%ebp)
 4428              	L25:
 4429 02e4 8B45A4   		movl	-92(%ebp), %eax
 4430 02e7 890424   		movl	%eax, (%esp)
 4431 02ea C745B0FF 		movl	$-1, -80(%ebp)
 4431      FFFFFF
 4432 02f1 E8000000 		call	__Unwind_SjLj_Resume
 4432      00
 4433              	L24:
 4434 02f6 8D45D8   		leal	-40(%ebp), %eax
 4435 02f9 890424   		movl	%eax, (%esp)
 4436 02fc E8000000 		call	__ZNSaIN10ThreadPool7JobDataEED1Ev
 4436      00
 4437 0301 8D45D8   		leal	-40(%ebp), %eax
 4438 0304 890424   		movl	%eax, (%esp)
 4439 0307 E8000000 		call	__ZNSaIN10ThreadPool10ThreadDataEEC1Ev
 4439      00
 4440 030c 8D45D8   		leal	-40(%ebp), %eax
 4441 030f 89442404 		movl	%eax, 4(%esp)
 4442 0313 8B4508   		movl	8(%ebp), %eax
 4443 0316 83C008   		addl	$8, %eax
GAS LISTING h:/6261A/11CW1352MP_BIRD61A_11C_V33_GPRS_MMI/plutommi/Customer/ResGenerator/gcctmp/ccEHcaaa.s 			page 7


 4444 0319 890424   		movl	%eax, (%esp)
 4445 031c C745B002 		movl	$2, -80(%ebp)
 4445      000000
 4446 0323 E8000000 		call	__ZNSt6vectorIN10ThreadPool10ThreadDataESaIS1_EEC1ERKS2_
 4446      00
 4447 0328 EB1C     		jmp	L28
 4448              	L27:
 4449 032a 8B55A4   		movl	-92(%ebp), %edx
 4450 032d 8955A0   		movl	%edx, -96(%ebp)
 4451 0330 8D45D8   		leal	-40(%ebp), %eax
 4452 0333 890424   		movl	%eax, (%esp)
 4453 0336 E8000000 		call	__ZNSaIN10ThreadPool10ThreadDataEED1Ev
 4453      00
 4454 033b 8B45A0   		movl	-96(%ebp), %eax
 4455 033e 8945A4   		movl	%eax, -92(%ebp)
 4456              	L29:
 4457 0341 E9E40000 		jmp	L38
 4457      00
 4458              	L28:
 4459 0346 8D45D8   		leal	-40(%ebp), %eax
 4460 0349 890424   		movl	%eax, (%esp)
 4461 034c E8000000 		call	__ZNSaIN10ThreadPool10ThreadDataEED1Ev
 4461      00
 4463              	LM12:
 4464 0351 8B5508   		movl	8(%ebp), %edx
 4465 0354 8B4510   		movl	16(%ebp), %eax
 4466 0357 894214   		movl	%eax, 20(%edx)
 4468              	LM13:
 4469 035a 8B4508   		movl	8(%ebp), %eax
 4470 035d C7401800 		movl	$0, 24(%eax)
 4470      000000
 4472              	LM14:
 4473 0364 8B4508   		movl	8(%ebp), %eax
 4474 0367 83C01C   		addl	$28, %eax
 4475 036a 890424   		movl	%eax, (%esp)
 4476 036d C745B001 		movl	$1, -80(%ebp)
 4476      000000
 4477 0374 E8000000 		call	_InitializeCriticalSection@4
 4477      00
 4478 0379 83EC04   		subl	$4, %esp
 4480              	LM15:
 4481 037c 837D0C00 		cmpl	$0, 12(%ebp)
 4482 0380 0F8ED700 		jle	L22
 4482      0000
 4483 0386 8B450C   		movl	12(%ebp), %eax
 4484 0389 89442404 		movl	%eax, 4(%esp)
 4485 038d 8B4508   		movl	8(%ebp), %eax
 4486 0390 890424   		movl	%eax, (%esp)
 4487 0393 E8F20400 		call	__ZN10ThreadPool6CreateEi
 4487      00
 4488 0398 84C0     		testb	%al, %al
 4489 039a 0F85BD00 		jne	L22
 4489      0000
 4491              	LM16:
 4492 03a0 C7442408 		movl	$LC0, 8(%esp)
 4492      00000000 
 4493 03a8 C7442404 		movl	$LC1, 4(%esp)
GAS LISTING h:/6261A/11CW1352MP_BIRD61A_11C_V33_GPRS_MMI/plutommi/Customer/ResGenerator/gcctmp/ccEHcaaa.s 			page 8


 4493      34000000 
 4494 03b0 C7042403 		movl	$3, (%esp)
 4494      000000
 4495 03b7 E8000000 		call	_reslog_adaptor_log
 4495      00
 4497              	LM17:
 4498 03bc C7042404 		movl	$4, (%esp)
 4498      000000
 4499 03c3 E8000000 		call	___cxa_allocate_exception
 4499      00
 4500 03c8 C7003F00 		movl	$LC2, (%eax)
 4500      0000
 4501              	L32:
 4502 03ce C7442408 		movl	$0, 8(%esp)
 4502      00000000 
 4503 03d6 C7442404 		movl	$__ZTIPKc, 4(%esp)
 4503      00000000 
 4504 03de 890424   		movl	%eax, (%esp)
 4505 03e1 E8000000 		call	___cxa_throw
 4505      00
 4506              	L42:
 4507 03e6 8D6D18   		leal	24(%ebp), %ebp
 4508 03e9 8B55B0   		movl	-80(%ebp), %edx
 4509 03ec 895594   		movl	%edx, -108(%ebp)
 4510 03ef 8B45B4   		movl	-76(%ebp), %eax
 4511 03f2 8945A4   		movl	%eax, -92(%ebp)
 4512 03f5 837D9401 		cmpl	$1, -108(%ebp)
 4513 03f9 0F842BFF 		je	L27
 4513      FFFF
 4514 03ff 837D9402 		cmpl	$2, -108(%ebp)
 4515 0403 0F84C4FE 		je	L23
 4515      FFFF
 4516              	L34:
 4517 0409 8B55A4   		movl	-92(%ebp), %edx
 4518 040c 89559C   		movl	%edx, -100(%ebp)
 4519 040f 8B4508   		movl	8(%ebp), %eax
 4520 0412 83C008   		addl	$8, %eax
 4521 0415 890424   		movl	%eax, (%esp)
 4522 0418 C745B000 		movl	$0, -80(%ebp)
 4522      000000
 4523 041f E8000000 		call	__ZNSt6vectorIN10ThreadPool10ThreadDataESaIS1_EED1Ev
 4523      00
 4524 0424 8B459C   		movl	-100(%ebp), %eax
 4525 0427 8945A4   		movl	%eax, -92(%ebp)
 4526              	L36:
 4527              	L38:
 4528 042a 8B55A4   		movl	-92(%ebp), %edx
 4529 042d 895598   		movl	%edx, -104(%ebp)
 4530 0430 8B4508   		movl	8(%ebp), %eax
 4531 0433 83C004   		addl	$4, %eax
 4532 0436 890424   		movl	%eax, (%esp)
 4533 0439 C745B000 		movl	$0, -80(%ebp)
 4533      000000
 4534 0440 E8000000 		call	__ZNSt4listIN10ThreadPool7JobDataESaIS1_EED1Ev
 4534      00
 4535 0445 8B4598   		movl	-104(%ebp), %eax
 4536 0448 8945A4   		movl	%eax, -92(%ebp)
GAS LISTING h:/6261A/11CW1352MP_BIRD61A_11C_V33_GPRS_MMI/plutommi/Customer/ResGenerator/gcctmp/ccEHcaaa.s 			page 9


 4537              	L40:
 4538 044b 8B55A4   		movl	-92(%ebp), %edx
 4539 044e 891424   		movl	%edx, (%esp)
 4540 0451 C745B0FF 		movl	$-1, -80(%ebp)
 4540      FFFFFF
 4541 0458 E8000000 		call	__Unwind_SjLj_Resume
 4541      00
 4543              	LM18:
 4544              	L22:
 4545 045d 8D45AC   		leal	-84(%ebp), %eax
 4546 0460 890424   		movl	%eax, (%esp)
 4547 0463 E8000000 		call	__Unwind_SjLj_Unregister
 4547      00
 4548 0468 8D65F4   		leal	-12(%ebp), %esp
 4549 046b 5B       		popl	%ebx
 4550 046c 5E       		popl	%esi
 4551 046d 5F       		popl	%edi
 4552 046e 5D       		popl	%ebp
 4553 046f C3       		ret
 4554              	LBE3:
 4555              		.section	.gcc_except_table,""
 4556              	LLSDA646:
 4557 000a FF       		.byte	0xff
 4558 000b FF       		.byte	0xff
 4559 000c 01       		.byte	0x1
 4560 000d 06       		.uleb128 LLSDACSE646-LLSDACSB646
 4561              	LLSDACSB646:
 4562 000e 00       		.uleb128 0x0
 4563 000f 00       		.uleb128 0x0
 4564 0010 01       		.uleb128 0x1
 4565 0011 00       		.uleb128 0x0
 4566 0012 02       		.uleb128 0x2
 4567 0013 00       		.uleb128 0x0
 4568              	LLSDACSE646:
 4569              		.text
 4570              	Lscope1:
 4573              		.section	.text$_ZNSt4listIN10ThreadPool7JobDataESaIS1_EED1Ev,"x"
 4574              		.linkonce discard
 4575              		.align 2
 4578              	.globl __ZNSt4listIN10ThreadPool7JobDataESaIS1_EED1Ev
 4580              	__ZNSt4listIN10ThreadPool7JobDataESaIS1_EED1Ev:
 4582              	Ltext1:
   1:h:/6261A/11CW1352MP_BIRD61A_11C_V33_GPRS_MMI/Tools/MinGW/include/c++/3.3.1/bits/stl_list.h **** // List implementation -*- C++ -*-
   2:h:/6261A/11CW1352MP_BIRD61A_11C_V33_GPRS_MMI/Tools/MinGW/include/c++/3.3.1/bits/stl_list.h **** 
   3:h:/6261A/11CW1352MP_BIRD61A_11C_V33_GPRS_MMI/Tools/MinGW/include/c++/3.3.1/bits/stl_list.h **** // Copyright (C) 2001, 2002 Free Software Foundation, Inc.
   4:h:/6261A/11CW1352MP_BIRD61A_11C_V33_GPRS_MMI/Tools/MinGW/include/c++/3.3.1/bits/stl_list.h **** //
   5:h:/6261A/11CW1352MP_BIRD61A_11C_V33_GPRS_MMI/Tools/MinGW/include/c++/3.3.1/bits/stl_list.h **** // This file is part of the GNU ISO C++ Library.  This library is free
   6:h:/6261A/11CW1352MP_BIRD61A_11C_V33_GPRS_MMI/Tools/MinGW/include/c++/3.3.1/bits/stl_list.h **** // software; you can redistribute it and/or modify it under the
   7:h:/6261A/11CW1352MP_BIRD61A_11C_V33_GPRS_MMI/Tools/MinGW/include/c++/3.3.1/bits/stl_list.h **** // terms of the GNU General Public License as published by the
   8:h:/6261A/11CW1352MP_BIRD61A_11C_V33_GPRS_MMI/Tools/MinGW/include/c++/3.3.1/bits/stl_list.h **** // Free Software Foundation; either version 2, or (at your option)
   9:h:/6261A/11CW1352MP_BIRD61A_11C_V33_GPRS_MMI/Tools/MinGW/include/c++/3.3.1/bits/stl_list.h **** // any later version.
  10:h:/6261A/11CW1352MP_BIRD61A_11C_V33_GPRS_MMI/Tools/MinGW/include/c++/3.3.1/bits/stl_list.h **** 
  11:h:/6261A/11CW1352MP_BIRD61A_11C_V33_GPRS_MMI/Tools/MinGW/include/c++/3.3.1/bits/stl_list.h **** // This library is distributed in the hope that it will be useful,
  12:h:/6261A/11CW1352MP_BIRD61A_11C_V33_GPRS_MMI/Tools/MinGW/include/c++/3.3.1/bits/stl_list.h **** // but WITHOUT ANY WARRANTY; without even the implied warranty of
  13:h:/6261A/11CW1352MP_BIRD61A_11C_V33_GPRS_MMI/Tools/MinGW/include/c++/3.3.1/bits/stl_list.h **** // MERCHANTABILITY or FITNESS FOR A PARTICULAR PURPOSE.  See the
  14:h:/6261A/11CW1352MP_BIRD61A_11C_V33_GPRS_MMI/Tools/MinGW/include/c++/3.3.1/bits/stl_list.h **** // GNU General Public License for more details.
  15:h:/6261A/11CW1352MP_BIRD61A_11C_V33_GPRS_MMI/Tools/MinGW/include/c++/3.3.1/bits/stl_list.h **** 
GAS LISTING h:/6261A/11CW1352MP_BIRD61A_11C_V33_GPRS_MMI/plutommi/Customer/ResGenerator/gcctmp/ccEHcaaa.s 			page 10


  16:h:/6261A/11CW1352MP_BIRD61A_11C_V33_GPRS_MMI/Tools/MinGW/include/c++/3.3.1/bits/stl_list.h **** // You should have received a copy of the GNU General Public License along
  17:h:/6261A/11CW1352MP_BIRD61A_11C_V33_GPRS_MMI/Tools/MinGW/include/c++/3.3.1/bits/stl_list.h **** // with this library; see the file COPYING.  If not, write to the Free
  18:h:/6261A/11CW1352MP_BIRD61A_11C_V33_GPRS_MMI/Tools/MinGW/include/c++/3.3.1/bits/stl_list.h **** // Software Foundation, 59 Temple Place - Suite 330, Boston, MA 02111-1307,
  19:h:/6261A/11CW1352MP_BIRD61A_11C_V33_GPRS_MMI/Tools/MinGW/include/c++/3.3.1/bits/stl_list.h **** // USA.
  20:h:/6261A/11CW1352MP_BIRD61A_11C_V33_GPRS_MMI/Tools/MinGW/include/c++/3.3.1/bits/stl_list.h **** 
  21:h:/6261A/11CW1352MP_BIRD61A_11C_V33_GPRS_MMI/Tools/MinGW/include/c++/3.3.1/bits/stl_list.h **** // As a special exception, you may use this file as part of a free software
  22:h:/6261A/11CW1352MP_BIRD61A_11C_V33_GPRS_MMI/Tools/MinGW/include/c++/3.3.1/bits/stl_list.h **** // library without restriction.  Specifically, if other files instantiate
  23:h:/6261A/11CW1352MP_BIRD61A_11C_V33_GPRS_MMI/Tools/MinGW/include/c++/3.3.1/bits/stl_list.h **** // templates or use macros or inline functions from this file, or you compile
  24:h:/6261A/11CW1352MP_BIRD61A_11C_V33_GPRS_MMI/Tools/MinGW/include/c++/3.3.1/bits/stl_list.h **** // this file and link it with other files to produce an executable, this
  25:h:/6261A/11CW1352MP_BIRD61A_11C_V33_GPRS_MMI/Tools/MinGW/include/c++/3.3.1/bits/stl_list.h **** // file does not by itself cause the resulting executable to be covered by
  26:h:/6261A/11CW1352MP_BIRD61A_11C_V33_GPRS_MMI/Tools/MinGW/include/c++/3.3.1/bits/stl_list.h **** // the GNU General Public License.  This exception does not however
  27:h:/6261A/11CW1352MP_BIRD61A_11C_V33_GPRS_MMI/Tools/MinGW/include/c++/3.3.1/bits/stl_list.h **** // invalidate any other reasons why the executable file might be covered by
  28:h:/6261A/11CW1352MP_BIRD61A_11C_V33_GPRS_MMI/Tools/MinGW/include/c++/3.3.1/bits/stl_list.h **** // the GNU General Public License.
  29:h:/6261A/11CW1352MP_BIRD61A_11C_V33_GPRS_MMI/Tools/MinGW/include/c++/3.3.1/bits/stl_list.h **** 
  30:h:/6261A/11CW1352MP_BIRD61A_11C_V33_GPRS_MMI/Tools/MinGW/include/c++/3.3.1/bits/stl_list.h **** /*
  31:h:/6261A/11CW1352MP_BIRD61A_11C_V33_GPRS_MMI/Tools/MinGW/include/c++/3.3.1/bits/stl_list.h ****  *
  32:h:/6261A/11CW1352MP_BIRD61A_11C_V33_GPRS_MMI/Tools/MinGW/include/c++/3.3.1/bits/stl_list.h ****  * Copyright (c) 1994
  33:h:/6261A/11CW1352MP_BIRD61A_11C_V33_GPRS_MMI/Tools/MinGW/include/c++/3.3.1/bits/stl_list.h ****  * Hewlett-Packard Company
  34:h:/6261A/11CW1352MP_BIRD61A_11C_V33_GPRS_MMI/Tools/MinGW/include/c++/3.3.1/bits/stl_list.h ****  *
  35:h:/6261A/11CW1352MP_BIRD61A_11C_V33_GPRS_MMI/Tools/MinGW/include/c++/3.3.1/bits/stl_list.h ****  * Permission to use, copy, modify, distribute and sell this software
  36:h:/6261A/11CW1352MP_BIRD61A_11C_V33_GPRS_MMI/Tools/MinGW/include/c++/3.3.1/bits/stl_list.h ****  * and its documentation for any purpose is hereby granted without fee,
  37:h:/6261A/11CW1352MP_BIRD61A_11C_V33_GPRS_MMI/Tools/MinGW/include/c++/3.3.1/bits/stl_list.h ****  * provided that the above copyright notice appear in all copies and
  38:h:/6261A/11CW1352MP_BIRD61A_11C_V33_GPRS_MMI/Tools/MinGW/include/c++/3.3.1/bits/stl_list.h ****  * that both that copyright notice and this permission notice appear
  39:h:/6261A/11CW1352MP_BIRD61A_11C_V33_GPRS_MMI/Tools/MinGW/include/c++/3.3.1/bits/stl_list.h ****  * in supporting documentation.  Hewlett-Packard Company makes no
  40:h:/6261A/11CW1352MP_BIRD61A_11C_V33_GPRS_MMI/Tools/MinGW/include/c++/3.3.1/bits/stl_list.h ****  * representations about the suitability of this software for any
  41:h:/6261A/11CW1352MP_BIRD61A_11C_V33_GPRS_MMI/Tools/MinGW/include/c++/3.3.1/bits/stl_list.h ****  * purpose.  It is provided "as is" without express or implied warranty.
  42:h:/6261A/11CW1352MP_BIRD61A_11C_V33_GPRS_MMI/Tools/MinGW/include/c++/3.3.1/bits/stl_list.h ****  *
  43:h:/6261A/11CW1352MP_BIRD61A_11C_V33_GPRS_MMI/Tools/MinGW/include/c++/3.3.1/bits/stl_list.h ****  *
  44:h:/6261A/11CW1352MP_BIRD61A_11C_V33_GPRS_MMI/Tools/MinGW/include/c++/3.3.1/bits/stl_list.h ****  * Copyright (c) 1996,1997
  45:h:/6261A/11CW1352MP_BIRD61A_11C_V33_GPRS_MMI/Tools/MinGW/include/c++/3.3.1/bits/stl_list.h ****  * Silicon Graphics Computer Systems, Inc.
  46:h:/6261A/11CW1352MP_BIRD61A_11C_V33_GPRS_MMI/Tools/MinGW/include/c++/3.3.1/bits/stl_list.h ****  *
  47:h:/6261A/11CW1352MP_BIRD61A_11C_V33_GPRS_MMI/Tools/MinGW/include/c++/3.3.1/bits/stl_list.h ****  * Permission to use, copy, modify, distribute and sell this software
  48:h:/6261A/11CW1352MP_BIRD61A_11C_V33_GPRS_MMI/Tools/MinGW/include/c++/3.3.1/bits/stl_list.h ****  * and its documentation for any purpose is hereby granted without fee,
  49:h:/6261A/11CW1352MP_BIRD61A_11C_V33_GPRS_MMI/Tools/MinGW/include/c++/3.3.1/bits/stl_list.h ****  * provided that the above copyright notice appear in all copies and
  50:h:/6261A/11CW1352MP_BIRD61A_11C_V33_GPRS_MMI/Tools/MinGW/include/c++/3.3.1/bits/stl_list.h ****  * that both that copyright notice and this permission notice appear
  51:h:/6261A/11CW1352MP_BIRD61A_11C_V33_GPRS_MMI/Tools/MinGW/include/c++/3.3.1/bits/stl_list.h ****  * in supporting documentation.  Silicon Graphics makes no
  52:h:/6261A/11CW1352MP_BIRD61A_11C_V33_GPRS_MMI/Tools/MinGW/include/c++/3.3.1/bits/stl_list.h ****  * representations about the suitability of this software for any
  53:h:/6261A/11CW1352MP_BIRD61A_11C_V33_GPRS_MMI/Tools/MinGW/include/c++/3.3.1/bits/stl_list.h ****  * purpose.  It is provided "as is" without express or implied warranty.
  54:h:/6261A/11CW1352MP_BIRD61A_11C_V33_GPRS_MMI/Tools/MinGW/include/c++/3.3.1/bits/stl_list.h ****  */
  55:h:/6261A/11CW1352MP_BIRD61A_11C_V33_GPRS_MMI/Tools/MinGW/include/c++/3.3.1/bits/stl_list.h **** 
  56:h:/6261A/11CW1352MP_BIRD61A_11C_V33_GPRS_MMI/Tools/MinGW/include/c++/3.3.1/bits/stl_list.h **** /** @file stl_list.h
  57:h:/6261A/11CW1352MP_BIRD61A_11C_V33_GPRS_MMI/Tools/MinGW/include/c++/3.3.1/bits/stl_list.h ****  *  This is an internal header file, included by other library headers.
  58:h:/6261A/11CW1352MP_BIRD61A_11C_V33_GPRS_MMI/Tools/MinGW/include/c++/3.3.1/bits/stl_list.h ****  *  You should not attempt to use it directly.
  59:h:/6261A/11CW1352MP_BIRD61A_11C_V33_GPRS_MMI/Tools/MinGW/include/c++/3.3.1/bits/stl_list.h ****  */
  60:h:/6261A/11CW1352MP_BIRD61A_11C_V33_GPRS_MMI/Tools/MinGW/include/c++/3.3.1/bits/stl_list.h **** 
  61:h:/6261A/11CW1352MP_BIRD61A_11C_V33_GPRS_MMI/Tools/MinGW/include/c++/3.3.1/bits/stl_list.h **** #ifndef __GLIBCPP_INTERNAL_LIST_H
  62:h:/6261A/11CW1352MP_BIRD61A_11C_V33_GPRS_MMI/Tools/MinGW/include/c++/3.3.1/bits/stl_list.h **** #define __GLIBCPP_INTERNAL_LIST_H
  63:h:/6261A/11CW1352MP_BIRD61A_11C_V33_GPRS_MMI/Tools/MinGW/include/c++/3.3.1/bits/stl_list.h **** 
  64:h:/6261A/11CW1352MP_BIRD61A_11C_V33_GPRS_MMI/Tools/MinGW/include/c++/3.3.1/bits/stl_list.h **** #include <bits/concept_check.h>
  65:h:/6261A/11CW1352MP_BIRD61A_11C_V33_GPRS_MMI/Tools/MinGW/include/c++/3.3.1/bits/stl_list.h **** 
  66:h:/6261A/11CW1352MP_BIRD61A_11C_V33_GPRS_MMI/Tools/MinGW/include/c++/3.3.1/bits/stl_list.h **** namespace std
  67:h:/6261A/11CW1352MP_BIRD61A_11C_V33_GPRS_MMI/Tools/MinGW/include/c++/3.3.1/bits/stl_list.h **** {
  68:h:/6261A/11CW1352MP_BIRD61A_11C_V33_GPRS_MMI/Tools/MinGW/include/c++/3.3.1/bits/stl_list.h ****   // Supporting structures are split into common and templated types; the
  69:h:/6261A/11CW1352MP_BIRD61A_11C_V33_GPRS_MMI/Tools/MinGW/include/c++/3.3.1/bits/stl_list.h ****   // latter publicly inherits from the former in an effort to reduce code
  70:h:/6261A/11CW1352MP_BIRD61A_11C_V33_GPRS_MMI/Tools/MinGW/include/c++/3.3.1/bits/stl_list.h ****   // duplication.  This results in some "needless" static_cast'ing later on,
  71:h:/6261A/11CW1352MP_BIRD61A_11C_V33_GPRS_MMI/Tools/MinGW/include/c++/3.3.1/bits/stl_list.h ****   // but it's all safe downcasting.
  72:h:/6261A/11CW1352MP_BIRD61A_11C_V33_GPRS_MMI/Tools/MinGW/include/c++/3.3.1/bits/stl_list.h ****   
GAS LISTING h:/6261A/11CW1352MP_BIRD61A_11C_V33_GPRS_MMI/plutommi/Customer/ResGenerator/gcctmp/ccEHcaaa.s 			page 11


  73:h:/6261A/11CW1352MP_BIRD61A_11C_V33_GPRS_MMI/Tools/MinGW/include/c++/3.3.1/bits/stl_list.h ****   /// @if maint Common part of a node in the %list.  @endif
  74:h:/6261A/11CW1352MP_BIRD61A_11C_V33_GPRS_MMI/Tools/MinGW/include/c++/3.3.1/bits/stl_list.h ****   struct _List_node_base
  75:h:/6261A/11CW1352MP_BIRD61A_11C_V33_GPRS_MMI/Tools/MinGW/include/c++/3.3.1/bits/stl_list.h ****   {
  76:h:/6261A/11CW1352MP_BIRD61A_11C_V33_GPRS_MMI/Tools/MinGW/include/c++/3.3.1/bits/stl_list.h ****     _List_node_base* _M_next;   ///< Self-explanatory
  77:h:/6261A/11CW1352MP_BIRD61A_11C_V33_GPRS_MMI/Tools/MinGW/include/c++/3.3.1/bits/stl_list.h ****     _List_node_base* _M_prev;   ///< Self-explanatory
  78:h:/6261A/11CW1352MP_BIRD61A_11C_V33_GPRS_MMI/Tools/MinGW/include/c++/3.3.1/bits/stl_list.h ****   };
  79:h:/6261A/11CW1352MP_BIRD61A_11C_V33_GPRS_MMI/Tools/MinGW/include/c++/3.3.1/bits/stl_list.h ****   
  80:h:/6261A/11CW1352MP_BIRD61A_11C_V33_GPRS_MMI/Tools/MinGW/include/c++/3.3.1/bits/stl_list.h ****   /// @if maint An actual node in the %list.  @endif
  81:h:/6261A/11CW1352MP_BIRD61A_11C_V33_GPRS_MMI/Tools/MinGW/include/c++/3.3.1/bits/stl_list.h ****   template<typename _Tp>
  82:h:/6261A/11CW1352MP_BIRD61A_11C_V33_GPRS_MMI/Tools/MinGW/include/c++/3.3.1/bits/stl_list.h ****     struct _List_node : public _List_node_base
  83:h:/6261A/11CW1352MP_BIRD61A_11C_V33_GPRS_MMI/Tools/MinGW/include/c++/3.3.1/bits/stl_list.h ****   {
  84:h:/6261A/11CW1352MP_BIRD61A_11C_V33_GPRS_MMI/Tools/MinGW/include/c++/3.3.1/bits/stl_list.h ****     _Tp _M_data;                ///< User's data.
  85:h:/6261A/11CW1352MP_BIRD61A_11C_V33_GPRS_MMI/Tools/MinGW/include/c++/3.3.1/bits/stl_list.h ****   };
  86:h:/6261A/11CW1352MP_BIRD61A_11C_V33_GPRS_MMI/Tools/MinGW/include/c++/3.3.1/bits/stl_list.h ****   
  87:h:/6261A/11CW1352MP_BIRD61A_11C_V33_GPRS_MMI/Tools/MinGW/include/c++/3.3.1/bits/stl_list.h ****   
  88:h:/6261A/11CW1352MP_BIRD61A_11C_V33_GPRS_MMI/Tools/MinGW/include/c++/3.3.1/bits/stl_list.h ****   /**
  89:h:/6261A/11CW1352MP_BIRD61A_11C_V33_GPRS_MMI/Tools/MinGW/include/c++/3.3.1/bits/stl_list.h ****    *  @if maint
  90:h:/6261A/11CW1352MP_BIRD61A_11C_V33_GPRS_MMI/Tools/MinGW/include/c++/3.3.1/bits/stl_list.h ****    *  @brief Common part of a list::iterator.
  91:h:/6261A/11CW1352MP_BIRD61A_11C_V33_GPRS_MMI/Tools/MinGW/include/c++/3.3.1/bits/stl_list.h ****    *
  92:h:/6261A/11CW1352MP_BIRD61A_11C_V33_GPRS_MMI/Tools/MinGW/include/c++/3.3.1/bits/stl_list.h ****    *  A simple type to walk a doubly-linked list.  All operations here should
  93:h:/6261A/11CW1352MP_BIRD61A_11C_V33_GPRS_MMI/Tools/MinGW/include/c++/3.3.1/bits/stl_list.h ****    *  be self-explanatory after taking any decent introductory data structures
  94:h:/6261A/11CW1352MP_BIRD61A_11C_V33_GPRS_MMI/Tools/MinGW/include/c++/3.3.1/bits/stl_list.h ****    *  course.
  95:h:/6261A/11CW1352MP_BIRD61A_11C_V33_GPRS_MMI/Tools/MinGW/include/c++/3.3.1/bits/stl_list.h ****    *  @endif
  96:h:/6261A/11CW1352MP_BIRD61A_11C_V33_GPRS_MMI/Tools/MinGW/include/c++/3.3.1/bits/stl_list.h ****   */
  97:h:/6261A/11CW1352MP_BIRD61A_11C_V33_GPRS_MMI/Tools/MinGW/include/c++/3.3.1/bits/stl_list.h ****   struct _List_iterator_base
  98:h:/6261A/11CW1352MP_BIRD61A_11C_V33_GPRS_MMI/Tools/MinGW/include/c++/3.3.1/bits/stl_list.h ****   {
  99:h:/6261A/11CW1352MP_BIRD61A_11C_V33_GPRS_MMI/Tools/MinGW/include/c++/3.3.1/bits/stl_list.h ****     typedef size_t                        size_type;
 100:h:/6261A/11CW1352MP_BIRD61A_11C_V33_GPRS_MMI/Tools/MinGW/include/c++/3.3.1/bits/stl_list.h ****     typedef ptrdiff_t                     difference_type;
 101:h:/6261A/11CW1352MP_BIRD61A_11C_V33_GPRS_MMI/Tools/MinGW/include/c++/3.3.1/bits/stl_list.h ****     typedef bidirectional_iterator_tag    iterator_category;
 102:h:/6261A/11CW1352MP_BIRD61A_11C_V33_GPRS_MMI/Tools/MinGW/include/c++/3.3.1/bits/stl_list.h ****   
 103:h:/6261A/11CW1352MP_BIRD61A_11C_V33_GPRS_MMI/Tools/MinGW/include/c++/3.3.1/bits/stl_list.h ****     /// The only member points to the %list element.
 104:h:/6261A/11CW1352MP_BIRD61A_11C_V33_GPRS_MMI/Tools/MinGW/include/c++/3.3.1/bits/stl_list.h ****     _List_node_base* _M_node;
 105:h:/6261A/11CW1352MP_BIRD61A_11C_V33_GPRS_MMI/Tools/MinGW/include/c++/3.3.1/bits/stl_list.h ****   
 106:h:/6261A/11CW1352MP_BIRD61A_11C_V33_GPRS_MMI/Tools/MinGW/include/c++/3.3.1/bits/stl_list.h ****     _List_iterator_base(_List_node_base* __x)
 107:h:/6261A/11CW1352MP_BIRD61A_11C_V33_GPRS_MMI/Tools/MinGW/include/c++/3.3.1/bits/stl_list.h ****     : _M_node(__x)
 108:h:/6261A/11CW1352MP_BIRD61A_11C_V33_GPRS_MMI/Tools/MinGW/include/c++/3.3.1/bits/stl_list.h ****     { }
 109:h:/6261A/11CW1352MP_BIRD61A_11C_V33_GPRS_MMI/Tools/MinGW/include/c++/3.3.1/bits/stl_list.h ****   
 110:h:/6261A/11CW1352MP_BIRD61A_11C_V33_GPRS_MMI/Tools/MinGW/include/c++/3.3.1/bits/stl_list.h ****     _List_iterator_base()
 111:h:/6261A/11CW1352MP_BIRD61A_11C_V33_GPRS_MMI/Tools/MinGW/include/c++/3.3.1/bits/stl_list.h ****     { }
 112:h:/6261A/11CW1352MP_BIRD61A_11C_V33_GPRS_MMI/Tools/MinGW/include/c++/3.3.1/bits/stl_list.h ****   
 113:h:/6261A/11CW1352MP_BIRD61A_11C_V33_GPRS_MMI/Tools/MinGW/include/c++/3.3.1/bits/stl_list.h ****     /// Walk the %list forward.
 114:h:/6261A/11CW1352MP_BIRD61A_11C_V33_GPRS_MMI/Tools/MinGW/include/c++/3.3.1/bits/stl_list.h ****     void
 115:h:/6261A/11CW1352MP_BIRD61A_11C_V33_GPRS_MMI/Tools/MinGW/include/c++/3.3.1/bits/stl_list.h ****     _M_incr()
 116:h:/6261A/11CW1352MP_BIRD61A_11C_V33_GPRS_MMI/Tools/MinGW/include/c++/3.3.1/bits/stl_list.h ****     { _M_node = _M_node->_M_next; }
 117:h:/6261A/11CW1352MP_BIRD61A_11C_V33_GPRS_MMI/Tools/MinGW/include/c++/3.3.1/bits/stl_list.h ****   
 118:h:/6261A/11CW1352MP_BIRD61A_11C_V33_GPRS_MMI/Tools/MinGW/include/c++/3.3.1/bits/stl_list.h ****     /// Walk the %list backward.
 119:h:/6261A/11CW1352MP_BIRD61A_11C_V33_GPRS_MMI/Tools/MinGW/include/c++/3.3.1/bits/stl_list.h ****     void
 120:h:/6261A/11CW1352MP_BIRD61A_11C_V33_GPRS_MMI/Tools/MinGW/include/c++/3.3.1/bits/stl_list.h ****     _M_decr()
 121:h:/6261A/11CW1352MP_BIRD61A_11C_V33_GPRS_MMI/Tools/MinGW/include/c++/3.3.1/bits/stl_list.h ****     { _M_node = _M_node->_M_prev; }
 122:h:/6261A/11CW1352MP_BIRD61A_11C_V33_GPRS_MMI/Tools/MinGW/include/c++/3.3.1/bits/stl_list.h ****   
 123:h:/6261A/11CW1352MP_BIRD61A_11C_V33_GPRS_MMI/Tools/MinGW/include/c++/3.3.1/bits/stl_list.h ****     bool
 124:h:/6261A/11CW1352MP_BIRD61A_11C_V33_GPRS_MMI/Tools/MinGW/include/c++/3.3.1/bits/stl_list.h ****     operator==(const _List_iterator_base& __x) const
 125:h:/6261A/11CW1352MP_BIRD61A_11C_V33_GPRS_MMI/Tools/MinGW/include/c++/3.3.1/bits/stl_list.h ****     { return _M_node == __x._M_node; }
 126:h:/6261A/11CW1352MP_BIRD61A_11C_V33_GPRS_MMI/Tools/MinGW/include/c++/3.3.1/bits/stl_list.h ****   
 127:h:/6261A/11CW1352MP_BIRD61A_11C_V33_GPRS_MMI/Tools/MinGW/include/c++/3.3.1/bits/stl_list.h ****     bool
 128:h:/6261A/11CW1352MP_BIRD61A_11C_V33_GPRS_MMI/Tools/MinGW/include/c++/3.3.1/bits/stl_list.h ****     operator!=(const _List_iterator_base& __x) const
 129:h:/6261A/11CW1352MP_BIRD61A_11C_V33_GPRS_MMI/Tools/MinGW/include/c++/3.3.1/bits/stl_list.h ****     { return _M_node != __x._M_node; }
GAS LISTING h:/6261A/11CW1352MP_BIRD61A_11C_V33_GPRS_MMI/plutommi/Customer/ResGenerator/gcctmp/ccEHcaaa.s 			page 12


 130:h:/6261A/11CW1352MP_BIRD61A_11C_V33_GPRS_MMI/Tools/MinGW/include/c++/3.3.1/bits/stl_list.h ****   };
 131:h:/6261A/11CW1352MP_BIRD61A_11C_V33_GPRS_MMI/Tools/MinGW/include/c++/3.3.1/bits/stl_list.h ****   
 132:h:/6261A/11CW1352MP_BIRD61A_11C_V33_GPRS_MMI/Tools/MinGW/include/c++/3.3.1/bits/stl_list.h ****   /**
 133:h:/6261A/11CW1352MP_BIRD61A_11C_V33_GPRS_MMI/Tools/MinGW/include/c++/3.3.1/bits/stl_list.h ****    *  @brief A list::iterator.
 134:h:/6261A/11CW1352MP_BIRD61A_11C_V33_GPRS_MMI/Tools/MinGW/include/c++/3.3.1/bits/stl_list.h ****    *
 135:h:/6261A/11CW1352MP_BIRD61A_11C_V33_GPRS_MMI/Tools/MinGW/include/c++/3.3.1/bits/stl_list.h ****    *  In addition to being used externally, a list holds one of these
 136:h:/6261A/11CW1352MP_BIRD61A_11C_V33_GPRS_MMI/Tools/MinGW/include/c++/3.3.1/bits/stl_list.h ****    *  internally, pointing to the sequence of data.
 137:h:/6261A/11CW1352MP_BIRD61A_11C_V33_GPRS_MMI/Tools/MinGW/include/c++/3.3.1/bits/stl_list.h ****    *
 138:h:/6261A/11CW1352MP_BIRD61A_11C_V33_GPRS_MMI/Tools/MinGW/include/c++/3.3.1/bits/stl_list.h ****    *  @if maint
 139:h:/6261A/11CW1352MP_BIRD61A_11C_V33_GPRS_MMI/Tools/MinGW/include/c++/3.3.1/bits/stl_list.h ****    *  All the functions are op overloads.
 140:h:/6261A/11CW1352MP_BIRD61A_11C_V33_GPRS_MMI/Tools/MinGW/include/c++/3.3.1/bits/stl_list.h ****    *  @endif
 141:h:/6261A/11CW1352MP_BIRD61A_11C_V33_GPRS_MMI/Tools/MinGW/include/c++/3.3.1/bits/stl_list.h ****   */
 142:h:/6261A/11CW1352MP_BIRD61A_11C_V33_GPRS_MMI/Tools/MinGW/include/c++/3.3.1/bits/stl_list.h ****   template<typename _Tp, typename _Ref, typename _Ptr>
 143:h:/6261A/11CW1352MP_BIRD61A_11C_V33_GPRS_MMI/Tools/MinGW/include/c++/3.3.1/bits/stl_list.h ****     struct _List_iterator : public _List_iterator_base
 144:h:/6261A/11CW1352MP_BIRD61A_11C_V33_GPRS_MMI/Tools/MinGW/include/c++/3.3.1/bits/stl_list.h ****   {
 145:h:/6261A/11CW1352MP_BIRD61A_11C_V33_GPRS_MMI/Tools/MinGW/include/c++/3.3.1/bits/stl_list.h ****     typedef _List_iterator<_Tp,_Tp&,_Tp*>             iterator;
 146:h:/6261A/11CW1352MP_BIRD61A_11C_V33_GPRS_MMI/Tools/MinGW/include/c++/3.3.1/bits/stl_list.h ****     typedef _List_iterator<_Tp,const _Tp&,const _Tp*> const_iterator;
 147:h:/6261A/11CW1352MP_BIRD61A_11C_V33_GPRS_MMI/Tools/MinGW/include/c++/3.3.1/bits/stl_list.h ****     typedef _List_iterator<_Tp,_Ref,_Ptr>             _Self;
 148:h:/6261A/11CW1352MP_BIRD61A_11C_V33_GPRS_MMI/Tools/MinGW/include/c++/3.3.1/bits/stl_list.h ****   
 149:h:/6261A/11CW1352MP_BIRD61A_11C_V33_GPRS_MMI/Tools/MinGW/include/c++/3.3.1/bits/stl_list.h ****     typedef _Tp                                       value_type;
 150:h:/6261A/11CW1352MP_BIRD61A_11C_V33_GPRS_MMI/Tools/MinGW/include/c++/3.3.1/bits/stl_list.h ****     typedef _Ptr                                      pointer;
 151:h:/6261A/11CW1352MP_BIRD61A_11C_V33_GPRS_MMI/Tools/MinGW/include/c++/3.3.1/bits/stl_list.h ****     typedef _Ref                                      reference;
 152:h:/6261A/11CW1352MP_BIRD61A_11C_V33_GPRS_MMI/Tools/MinGW/include/c++/3.3.1/bits/stl_list.h ****     typedef _List_node<_Tp>                           _Node;
 153:h:/6261A/11CW1352MP_BIRD61A_11C_V33_GPRS_MMI/Tools/MinGW/include/c++/3.3.1/bits/stl_list.h ****   
 154:h:/6261A/11CW1352MP_BIRD61A_11C_V33_GPRS_MMI/Tools/MinGW/include/c++/3.3.1/bits/stl_list.h ****     _List_iterator(_Node* __x)
 155:h:/6261A/11CW1352MP_BIRD61A_11C_V33_GPRS_MMI/Tools/MinGW/include/c++/3.3.1/bits/stl_list.h ****     : _List_iterator_base(__x)
 156:h:/6261A/11CW1352MP_BIRD61A_11C_V33_GPRS_MMI/Tools/MinGW/include/c++/3.3.1/bits/stl_list.h ****     { }
 157:h:/6261A/11CW1352MP_BIRD61A_11C_V33_GPRS_MMI/Tools/MinGW/include/c++/3.3.1/bits/stl_list.h ****   
 158:h:/6261A/11CW1352MP_BIRD61A_11C_V33_GPRS_MMI/Tools/MinGW/include/c++/3.3.1/bits/stl_list.h ****     _List_iterator()
 159:h:/6261A/11CW1352MP_BIRD61A_11C_V33_GPRS_MMI/Tools/MinGW/include/c++/3.3.1/bits/stl_list.h ****     { }
 160:h:/6261A/11CW1352MP_BIRD61A_11C_V33_GPRS_MMI/Tools/MinGW/include/c++/3.3.1/bits/stl_list.h ****   
 161:h:/6261A/11CW1352MP_BIRD61A_11C_V33_GPRS_MMI/Tools/MinGW/include/c++/3.3.1/bits/stl_list.h ****     _List_iterator(const iterator& __x)
 162:h:/6261A/11CW1352MP_BIRD61A_11C_V33_GPRS_MMI/Tools/MinGW/include/c++/3.3.1/bits/stl_list.h ****     : _List_iterator_base(__x._M_node)
 163:h:/6261A/11CW1352MP_BIRD61A_11C_V33_GPRS_MMI/Tools/MinGW/include/c++/3.3.1/bits/stl_list.h ****     { }
 164:h:/6261A/11CW1352MP_BIRD61A_11C_V33_GPRS_MMI/Tools/MinGW/include/c++/3.3.1/bits/stl_list.h ****   
 165:h:/6261A/11CW1352MP_BIRD61A_11C_V33_GPRS_MMI/Tools/MinGW/include/c++/3.3.1/bits/stl_list.h ****     reference
 166:h:/6261A/11CW1352MP_BIRD61A_11C_V33_GPRS_MMI/Tools/MinGW/include/c++/3.3.1/bits/stl_list.h ****     operator*() const
 167:h:/6261A/11CW1352MP_BIRD61A_11C_V33_GPRS_MMI/Tools/MinGW/include/c++/3.3.1/bits/stl_list.h ****     { return static_cast<_Node*>(_M_node)->_M_data; }
 168:h:/6261A/11CW1352MP_BIRD61A_11C_V33_GPRS_MMI/Tools/MinGW/include/c++/3.3.1/bits/stl_list.h ****     // Must downcast from List_node_base to _List_node to get to _M_data.
 169:h:/6261A/11CW1352MP_BIRD61A_11C_V33_GPRS_MMI/Tools/MinGW/include/c++/3.3.1/bits/stl_list.h ****   
 170:h:/6261A/11CW1352MP_BIRD61A_11C_V33_GPRS_MMI/Tools/MinGW/include/c++/3.3.1/bits/stl_list.h ****     pointer
 171:h:/6261A/11CW1352MP_BIRD61A_11C_V33_GPRS_MMI/Tools/MinGW/include/c++/3.3.1/bits/stl_list.h ****     operator->() const
 172:h:/6261A/11CW1352MP_BIRD61A_11C_V33_GPRS_MMI/Tools/MinGW/include/c++/3.3.1/bits/stl_list.h ****     { return &(operator*()); }
 173:h:/6261A/11CW1352MP_BIRD61A_11C_V33_GPRS_MMI/Tools/MinGW/include/c++/3.3.1/bits/stl_list.h ****   
 174:h:/6261A/11CW1352MP_BIRD61A_11C_V33_GPRS_MMI/Tools/MinGW/include/c++/3.3.1/bits/stl_list.h ****     _Self&
 175:h:/6261A/11CW1352MP_BIRD61A_11C_V33_GPRS_MMI/Tools/MinGW/include/c++/3.3.1/bits/stl_list.h ****     operator++()
 176:h:/6261A/11CW1352MP_BIRD61A_11C_V33_GPRS_MMI/Tools/MinGW/include/c++/3.3.1/bits/stl_list.h ****     {
 177:h:/6261A/11CW1352MP_BIRD61A_11C_V33_GPRS_MMI/Tools/MinGW/include/c++/3.3.1/bits/stl_list.h ****       this->_M_incr();
 178:h:/6261A/11CW1352MP_BIRD61A_11C_V33_GPRS_MMI/Tools/MinGW/include/c++/3.3.1/bits/stl_list.h ****       return *this;
 179:h:/6261A/11CW1352MP_BIRD61A_11C_V33_GPRS_MMI/Tools/MinGW/include/c++/3.3.1/bits/stl_list.h ****     }
 180:h:/6261A/11CW1352MP_BIRD61A_11C_V33_GPRS_MMI/Tools/MinGW/include/c++/3.3.1/bits/stl_list.h ****   
 181:h:/6261A/11CW1352MP_BIRD61A_11C_V33_GPRS_MMI/Tools/MinGW/include/c++/3.3.1/bits/stl_list.h ****     _Self
 182:h:/6261A/11CW1352MP_BIRD61A_11C_V33_GPRS_MMI/Tools/MinGW/include/c++/3.3.1/bits/stl_list.h ****     operator++(int)
 183:h:/6261A/11CW1352MP_BIRD61A_11C_V33_GPRS_MMI/Tools/MinGW/include/c++/3.3.1/bits/stl_list.h ****     {
 184:h:/6261A/11CW1352MP_BIRD61A_11C_V33_GPRS_MMI/Tools/MinGW/include/c++/3.3.1/bits/stl_list.h ****       _Self __tmp = *this;
 185:h:/6261A/11CW1352MP_BIRD61A_11C_V33_GPRS_MMI/Tools/MinGW/include/c++/3.3.1/bits/stl_list.h ****       this->_M_incr();
 186:h:/6261A/11CW1352MP_BIRD61A_11C_V33_GPRS_MMI/Tools/MinGW/include/c++/3.3.1/bits/stl_list.h ****       return __tmp;
GAS LISTING h:/6261A/11CW1352MP_BIRD61A_11C_V33_GPRS_MMI/plutommi/Customer/ResGenerator/gcctmp/ccEHcaaa.s 			page 13


 187:h:/6261A/11CW1352MP_BIRD61A_11C_V33_GPRS_MMI/Tools/MinGW/include/c++/3.3.1/bits/stl_list.h ****     }
 188:h:/6261A/11CW1352MP_BIRD61A_11C_V33_GPRS_MMI/Tools/MinGW/include/c++/3.3.1/bits/stl_list.h ****   
 189:h:/6261A/11CW1352MP_BIRD61A_11C_V33_GPRS_MMI/Tools/MinGW/include/c++/3.3.1/bits/stl_list.h ****     _Self&
 190:h:/6261A/11CW1352MP_BIRD61A_11C_V33_GPRS_MMI/Tools/MinGW/include/c++/3.3.1/bits/stl_list.h ****     operator--()
 191:h:/6261A/11CW1352MP_BIRD61A_11C_V33_GPRS_MMI/Tools/MinGW/include/c++/3.3.1/bits/stl_list.h ****     {
 192:h:/6261A/11CW1352MP_BIRD61A_11C_V33_GPRS_MMI/Tools/MinGW/include/c++/3.3.1/bits/stl_list.h ****       this->_M_decr();
 193:h:/6261A/11CW1352MP_BIRD61A_11C_V33_GPRS_MMI/Tools/MinGW/include/c++/3.3.1/bits/stl_list.h ****       return *this;
 194:h:/6261A/11CW1352MP_BIRD61A_11C_V33_GPRS_MMI/Tools/MinGW/include/c++/3.3.1/bits/stl_list.h ****     }
 195:h:/6261A/11CW1352MP_BIRD61A_11C_V33_GPRS_MMI/Tools/MinGW/include/c++/3.3.1/bits/stl_list.h ****   
 196:h:/6261A/11CW1352MP_BIRD61A_11C_V33_GPRS_MMI/Tools/MinGW/include/c++/3.3.1/bits/stl_list.h ****     _Self
 197:h:/6261A/11CW1352MP_BIRD61A_11C_V33_GPRS_MMI/Tools/MinGW/include/c++/3.3.1/bits/stl_list.h ****     operator--(int)
 198:h:/6261A/11CW1352MP_BIRD61A_11C_V33_GPRS_MMI/Tools/MinGW/include/c++/3.3.1/bits/stl_list.h ****     {
 199:h:/6261A/11CW1352MP_BIRD61A_11C_V33_GPRS_MMI/Tools/MinGW/include/c++/3.3.1/bits/stl_list.h ****       _Self __tmp = *this;
 200:h:/6261A/11CW1352MP_BIRD61A_11C_V33_GPRS_MMI/Tools/MinGW/include/c++/3.3.1/bits/stl_list.h ****       this->_M_decr();
 201:h:/6261A/11CW1352MP_BIRD61A_11C_V33_GPRS_MMI/Tools/MinGW/include/c++/3.3.1/bits/stl_list.h ****       return __tmp;
 202:h:/6261A/11CW1352MP_BIRD61A_11C_V33_GPRS_MMI/Tools/MinGW/include/c++/3.3.1/bits/stl_list.h ****     }
 203:h:/6261A/11CW1352MP_BIRD61A_11C_V33_GPRS_MMI/Tools/MinGW/include/c++/3.3.1/bits/stl_list.h ****   };
 204:h:/6261A/11CW1352MP_BIRD61A_11C_V33_GPRS_MMI/Tools/MinGW/include/c++/3.3.1/bits/stl_list.h ****   
 205:h:/6261A/11CW1352MP_BIRD61A_11C_V33_GPRS_MMI/Tools/MinGW/include/c++/3.3.1/bits/stl_list.h ****   
 206:h:/6261A/11CW1352MP_BIRD61A_11C_V33_GPRS_MMI/Tools/MinGW/include/c++/3.3.1/bits/stl_list.h ****   /// @if maint Primary default version.  @endif
 207:h:/6261A/11CW1352MP_BIRD61A_11C_V33_GPRS_MMI/Tools/MinGW/include/c++/3.3.1/bits/stl_list.h ****   /**
 208:h:/6261A/11CW1352MP_BIRD61A_11C_V33_GPRS_MMI/Tools/MinGW/include/c++/3.3.1/bits/stl_list.h ****    *  @if maint
 209:h:/6261A/11CW1352MP_BIRD61A_11C_V33_GPRS_MMI/Tools/MinGW/include/c++/3.3.1/bits/stl_list.h ****    *  See bits/stl_deque.h's _Deque_alloc_base for an explanation.
 210:h:/6261A/11CW1352MP_BIRD61A_11C_V33_GPRS_MMI/Tools/MinGW/include/c++/3.3.1/bits/stl_list.h ****    *  @endif
 211:h:/6261A/11CW1352MP_BIRD61A_11C_V33_GPRS_MMI/Tools/MinGW/include/c++/3.3.1/bits/stl_list.h ****   */
 212:h:/6261A/11CW1352MP_BIRD61A_11C_V33_GPRS_MMI/Tools/MinGW/include/c++/3.3.1/bits/stl_list.h ****   template<typename _Tp, typename _Allocator, bool _IsStatic>
 213:h:/6261A/11CW1352MP_BIRD61A_11C_V33_GPRS_MMI/Tools/MinGW/include/c++/3.3.1/bits/stl_list.h ****     class _List_alloc_base
 214:h:/6261A/11CW1352MP_BIRD61A_11C_V33_GPRS_MMI/Tools/MinGW/include/c++/3.3.1/bits/stl_list.h ****   {
 215:h:/6261A/11CW1352MP_BIRD61A_11C_V33_GPRS_MMI/Tools/MinGW/include/c++/3.3.1/bits/stl_list.h ****   public:
 216:h:/6261A/11CW1352MP_BIRD61A_11C_V33_GPRS_MMI/Tools/MinGW/include/c++/3.3.1/bits/stl_list.h ****     typedef typename _Alloc_traits<_Tp, _Allocator>::allocator_type
 217:h:/6261A/11CW1352MP_BIRD61A_11C_V33_GPRS_MMI/Tools/MinGW/include/c++/3.3.1/bits/stl_list.h ****             allocator_type;
 218:h:/6261A/11CW1352MP_BIRD61A_11C_V33_GPRS_MMI/Tools/MinGW/include/c++/3.3.1/bits/stl_list.h ****   
 219:h:/6261A/11CW1352MP_BIRD61A_11C_V33_GPRS_MMI/Tools/MinGW/include/c++/3.3.1/bits/stl_list.h ****     allocator_type
 220:h:/6261A/11CW1352MP_BIRD61A_11C_V33_GPRS_MMI/Tools/MinGW/include/c++/3.3.1/bits/stl_list.h ****     get_allocator() const { return _M_node_allocator; }
 221:h:/6261A/11CW1352MP_BIRD61A_11C_V33_GPRS_MMI/Tools/MinGW/include/c++/3.3.1/bits/stl_list.h ****   
 222:h:/6261A/11CW1352MP_BIRD61A_11C_V33_GPRS_MMI/Tools/MinGW/include/c++/3.3.1/bits/stl_list.h ****     _List_alloc_base(const allocator_type& __a)
 223:h:/6261A/11CW1352MP_BIRD61A_11C_V33_GPRS_MMI/Tools/MinGW/include/c++/3.3.1/bits/stl_list.h ****     : _M_node_allocator(__a)
 224:h:/6261A/11CW1352MP_BIRD61A_11C_V33_GPRS_MMI/Tools/MinGW/include/c++/3.3.1/bits/stl_list.h ****     { }
 225:h:/6261A/11CW1352MP_BIRD61A_11C_V33_GPRS_MMI/Tools/MinGW/include/c++/3.3.1/bits/stl_list.h ****   
 226:h:/6261A/11CW1352MP_BIRD61A_11C_V33_GPRS_MMI/Tools/MinGW/include/c++/3.3.1/bits/stl_list.h ****   protected:
 227:h:/6261A/11CW1352MP_BIRD61A_11C_V33_GPRS_MMI/Tools/MinGW/include/c++/3.3.1/bits/stl_list.h ****     _List_node<_Tp>*
 228:h:/6261A/11CW1352MP_BIRD61A_11C_V33_GPRS_MMI/Tools/MinGW/include/c++/3.3.1/bits/stl_list.h ****     _M_get_node()
 229:h:/6261A/11CW1352MP_BIRD61A_11C_V33_GPRS_MMI/Tools/MinGW/include/c++/3.3.1/bits/stl_list.h ****     { return _M_node_allocator.allocate(1); }
 230:h:/6261A/11CW1352MP_BIRD61A_11C_V33_GPRS_MMI/Tools/MinGW/include/c++/3.3.1/bits/stl_list.h ****   
 231:h:/6261A/11CW1352MP_BIRD61A_11C_V33_GPRS_MMI/Tools/MinGW/include/c++/3.3.1/bits/stl_list.h ****     void
 232:h:/6261A/11CW1352MP_BIRD61A_11C_V33_GPRS_MMI/Tools/MinGW/include/c++/3.3.1/bits/stl_list.h ****     _M_put_node(_List_node<_Tp>* __p)
 233:h:/6261A/11CW1352MP_BIRD61A_11C_V33_GPRS_MMI/Tools/MinGW/include/c++/3.3.1/bits/stl_list.h ****     { _M_node_allocator.deallocate(__p, 1); }
 234:h:/6261A/11CW1352MP_BIRD61A_11C_V33_GPRS_MMI/Tools/MinGW/include/c++/3.3.1/bits/stl_list.h ****   
 235:h:/6261A/11CW1352MP_BIRD61A_11C_V33_GPRS_MMI/Tools/MinGW/include/c++/3.3.1/bits/stl_list.h ****     // NOTA BENE
 236:h:/6261A/11CW1352MP_BIRD61A_11C_V33_GPRS_MMI/Tools/MinGW/include/c++/3.3.1/bits/stl_list.h ****     // The stored instance is not actually of "allocator_type"'s type.  Instead
 237:h:/6261A/11CW1352MP_BIRD61A_11C_V33_GPRS_MMI/Tools/MinGW/include/c++/3.3.1/bits/stl_list.h ****     // we rebind the type to Allocator<List_node<Tp>>, which according to
 238:h:/6261A/11CW1352MP_BIRD61A_11C_V33_GPRS_MMI/Tools/MinGW/include/c++/3.3.1/bits/stl_list.h ****     // [20.1.5]/4 should probably be the same.  List_node<Tp> is not the same
 239:h:/6261A/11CW1352MP_BIRD61A_11C_V33_GPRS_MMI/Tools/MinGW/include/c++/3.3.1/bits/stl_list.h ****     // size as Tp (it's two pointers larger), and specializations on Tp may go
 240:h:/6261A/11CW1352MP_BIRD61A_11C_V33_GPRS_MMI/Tools/MinGW/include/c++/3.3.1/bits/stl_list.h ****     // unused because List_node<Tp> is being bound instead.
 241:h:/6261A/11CW1352MP_BIRD61A_11C_V33_GPRS_MMI/Tools/MinGW/include/c++/3.3.1/bits/stl_list.h ****     //
 242:h:/6261A/11CW1352MP_BIRD61A_11C_V33_GPRS_MMI/Tools/MinGW/include/c++/3.3.1/bits/stl_list.h ****     // We put this to the test in get_allocator above; if the two types are
 243:h:/6261A/11CW1352MP_BIRD61A_11C_V33_GPRS_MMI/Tools/MinGW/include/c++/3.3.1/bits/stl_list.h ****     // actually different, there had better be a conversion between them.
GAS LISTING h:/6261A/11CW1352MP_BIRD61A_11C_V33_GPRS_MMI/plutommi/Customer/ResGenerator/gcctmp/ccEHcaaa.s 			page 14


 244:h:/6261A/11CW1352MP_BIRD61A_11C_V33_GPRS_MMI/Tools/MinGW/include/c++/3.3.1/bits/stl_list.h ****     //
 245:h:/6261A/11CW1352MP_BIRD61A_11C_V33_GPRS_MMI/Tools/MinGW/include/c++/3.3.1/bits/stl_list.h ****     // None of the predefined allocators shipped with the library (as of 3.1)
 246:h:/6261A/11CW1352MP_BIRD61A_11C_V33_GPRS_MMI/Tools/MinGW/include/c++/3.3.1/bits/stl_list.h ****     // use this instantiation anyhow; they're all instanceless.
 247:h:/6261A/11CW1352MP_BIRD61A_11C_V33_GPRS_MMI/Tools/MinGW/include/c++/3.3.1/bits/stl_list.h ****     typename _Alloc_traits<_List_node<_Tp>, _Allocator>::allocator_type
 248:h:/6261A/11CW1352MP_BIRD61A_11C_V33_GPRS_MMI/Tools/MinGW/include/c++/3.3.1/bits/stl_list.h ****              _M_node_allocator;
 249:h:/6261A/11CW1352MP_BIRD61A_11C_V33_GPRS_MMI/Tools/MinGW/include/c++/3.3.1/bits/stl_list.h ****   
 250:h:/6261A/11CW1352MP_BIRD61A_11C_V33_GPRS_MMI/Tools/MinGW/include/c++/3.3.1/bits/stl_list.h ****     _List_node<_Tp>* _M_node;
 251:h:/6261A/11CW1352MP_BIRD61A_11C_V33_GPRS_MMI/Tools/MinGW/include/c++/3.3.1/bits/stl_list.h ****   };
 252:h:/6261A/11CW1352MP_BIRD61A_11C_V33_GPRS_MMI/Tools/MinGW/include/c++/3.3.1/bits/stl_list.h ****   
 253:h:/6261A/11CW1352MP_BIRD61A_11C_V33_GPRS_MMI/Tools/MinGW/include/c++/3.3.1/bits/stl_list.h ****   /// @if maint Specialization for instanceless allocators.  @endif
 254:h:/6261A/11CW1352MP_BIRD61A_11C_V33_GPRS_MMI/Tools/MinGW/include/c++/3.3.1/bits/stl_list.h ****   template<typename _Tp, typename _Allocator>
 255:h:/6261A/11CW1352MP_BIRD61A_11C_V33_GPRS_MMI/Tools/MinGW/include/c++/3.3.1/bits/stl_list.h ****     class _List_alloc_base<_Tp, _Allocator, true>
 256:h:/6261A/11CW1352MP_BIRD61A_11C_V33_GPRS_MMI/Tools/MinGW/include/c++/3.3.1/bits/stl_list.h ****   {
 257:h:/6261A/11CW1352MP_BIRD61A_11C_V33_GPRS_MMI/Tools/MinGW/include/c++/3.3.1/bits/stl_list.h ****   public:
 258:h:/6261A/11CW1352MP_BIRD61A_11C_V33_GPRS_MMI/Tools/MinGW/include/c++/3.3.1/bits/stl_list.h ****     typedef typename _Alloc_traits<_Tp, _Allocator>::allocator_type
 259:h:/6261A/11CW1352MP_BIRD61A_11C_V33_GPRS_MMI/Tools/MinGW/include/c++/3.3.1/bits/stl_list.h ****             allocator_type;
 260:h:/6261A/11CW1352MP_BIRD61A_11C_V33_GPRS_MMI/Tools/MinGW/include/c++/3.3.1/bits/stl_list.h ****   
 261:h:/6261A/11CW1352MP_BIRD61A_11C_V33_GPRS_MMI/Tools/MinGW/include/c++/3.3.1/bits/stl_list.h ****     allocator_type
 262:h:/6261A/11CW1352MP_BIRD61A_11C_V33_GPRS_MMI/Tools/MinGW/include/c++/3.3.1/bits/stl_list.h ****     get_allocator() const { return allocator_type(); }
 263:h:/6261A/11CW1352MP_BIRD61A_11C_V33_GPRS_MMI/Tools/MinGW/include/c++/3.3.1/bits/stl_list.h ****   
 264:h:/6261A/11CW1352MP_BIRD61A_11C_V33_GPRS_MMI/Tools/MinGW/include/c++/3.3.1/bits/stl_list.h ****     _List_alloc_base(const allocator_type&)
 265:h:/6261A/11CW1352MP_BIRD61A_11C_V33_GPRS_MMI/Tools/MinGW/include/c++/3.3.1/bits/stl_list.h ****     { }
 266:h:/6261A/11CW1352MP_BIRD61A_11C_V33_GPRS_MMI/Tools/MinGW/include/c++/3.3.1/bits/stl_list.h ****   
 267:h:/6261A/11CW1352MP_BIRD61A_11C_V33_GPRS_MMI/Tools/MinGW/include/c++/3.3.1/bits/stl_list.h ****   protected:
 268:h:/6261A/11CW1352MP_BIRD61A_11C_V33_GPRS_MMI/Tools/MinGW/include/c++/3.3.1/bits/stl_list.h ****     // See comment in primary template class about why this is safe for the
 269:h:/6261A/11CW1352MP_BIRD61A_11C_V33_GPRS_MMI/Tools/MinGW/include/c++/3.3.1/bits/stl_list.h ****     // standard predefined classes.
 270:h:/6261A/11CW1352MP_BIRD61A_11C_V33_GPRS_MMI/Tools/MinGW/include/c++/3.3.1/bits/stl_list.h ****     typedef typename _Alloc_traits<_List_node<_Tp>, _Allocator>::_Alloc_type
 271:h:/6261A/11CW1352MP_BIRD61A_11C_V33_GPRS_MMI/Tools/MinGW/include/c++/3.3.1/bits/stl_list.h ****             _Alloc_type;
 272:h:/6261A/11CW1352MP_BIRD61A_11C_V33_GPRS_MMI/Tools/MinGW/include/c++/3.3.1/bits/stl_list.h ****   
 273:h:/6261A/11CW1352MP_BIRD61A_11C_V33_GPRS_MMI/Tools/MinGW/include/c++/3.3.1/bits/stl_list.h ****     _List_node<_Tp>*
 274:h:/6261A/11CW1352MP_BIRD61A_11C_V33_GPRS_MMI/Tools/MinGW/include/c++/3.3.1/bits/stl_list.h ****     _M_get_node()
 275:h:/6261A/11CW1352MP_BIRD61A_11C_V33_GPRS_MMI/Tools/MinGW/include/c++/3.3.1/bits/stl_list.h ****     { return _Alloc_type::allocate(1); }
 276:h:/6261A/11CW1352MP_BIRD61A_11C_V33_GPRS_MMI/Tools/MinGW/include/c++/3.3.1/bits/stl_list.h ****   
 277:h:/6261A/11CW1352MP_BIRD61A_11C_V33_GPRS_MMI/Tools/MinGW/include/c++/3.3.1/bits/stl_list.h ****     void
 278:h:/6261A/11CW1352MP_BIRD61A_11C_V33_GPRS_MMI/Tools/MinGW/include/c++/3.3.1/bits/stl_list.h ****     _M_put_node(_List_node<_Tp>* __p)
 279:h:/6261A/11CW1352MP_BIRD61A_11C_V33_GPRS_MMI/Tools/MinGW/include/c++/3.3.1/bits/stl_list.h ****     { _Alloc_type::deallocate(__p, 1); }
 280:h:/6261A/11CW1352MP_BIRD61A_11C_V33_GPRS_MMI/Tools/MinGW/include/c++/3.3.1/bits/stl_list.h ****   
 281:h:/6261A/11CW1352MP_BIRD61A_11C_V33_GPRS_MMI/Tools/MinGW/include/c++/3.3.1/bits/stl_list.h ****     _List_node<_Tp>* _M_node;
 282:h:/6261A/11CW1352MP_BIRD61A_11C_V33_GPRS_MMI/Tools/MinGW/include/c++/3.3.1/bits/stl_list.h ****   };
 283:h:/6261A/11CW1352MP_BIRD61A_11C_V33_GPRS_MMI/Tools/MinGW/include/c++/3.3.1/bits/stl_list.h ****   
 284:h:/6261A/11CW1352MP_BIRD61A_11C_V33_GPRS_MMI/Tools/MinGW/include/c++/3.3.1/bits/stl_list.h ****   
 285:h:/6261A/11CW1352MP_BIRD61A_11C_V33_GPRS_MMI/Tools/MinGW/include/c++/3.3.1/bits/stl_list.h ****   /**
 286:h:/6261A/11CW1352MP_BIRD61A_11C_V33_GPRS_MMI/Tools/MinGW/include/c++/3.3.1/bits/stl_list.h ****    *  @if maint
 287:h:/6261A/11CW1352MP_BIRD61A_11C_V33_GPRS_MMI/Tools/MinGW/include/c++/3.3.1/bits/stl_list.h ****    *  See bits/stl_deque.h's _Deque_base for an explanation.
 288:h:/6261A/11CW1352MP_BIRD61A_11C_V33_GPRS_MMI/Tools/MinGW/include/c++/3.3.1/bits/stl_list.h ****    *  @endif
 289:h:/6261A/11CW1352MP_BIRD61A_11C_V33_GPRS_MMI/Tools/MinGW/include/c++/3.3.1/bits/stl_list.h ****   */
 290:h:/6261A/11CW1352MP_BIRD61A_11C_V33_GPRS_MMI/Tools/MinGW/include/c++/3.3.1/bits/stl_list.h ****   template <typename _Tp, typename _Alloc>
 291:h:/6261A/11CW1352MP_BIRD61A_11C_V33_GPRS_MMI/Tools/MinGW/include/c++/3.3.1/bits/stl_list.h ****     class _List_base
 292:h:/6261A/11CW1352MP_BIRD61A_11C_V33_GPRS_MMI/Tools/MinGW/include/c++/3.3.1/bits/stl_list.h ****     : public _List_alloc_base<_Tp, _Alloc,
 293:h:/6261A/11CW1352MP_BIRD61A_11C_V33_GPRS_MMI/Tools/MinGW/include/c++/3.3.1/bits/stl_list.h ****                               _Alloc_traits<_Tp, _Alloc>::_S_instanceless>
 294:h:/6261A/11CW1352MP_BIRD61A_11C_V33_GPRS_MMI/Tools/MinGW/include/c++/3.3.1/bits/stl_list.h ****   {
 295:h:/6261A/11CW1352MP_BIRD61A_11C_V33_GPRS_MMI/Tools/MinGW/include/c++/3.3.1/bits/stl_list.h ****   public:
 296:h:/6261A/11CW1352MP_BIRD61A_11C_V33_GPRS_MMI/Tools/MinGW/include/c++/3.3.1/bits/stl_list.h ****     typedef _List_alloc_base<_Tp, _Alloc,
 297:h:/6261A/11CW1352MP_BIRD61A_11C_V33_GPRS_MMI/Tools/MinGW/include/c++/3.3.1/bits/stl_list.h ****                              _Alloc_traits<_Tp, _Alloc>::_S_instanceless>
 298:h:/6261A/11CW1352MP_BIRD61A_11C_V33_GPRS_MMI/Tools/MinGW/include/c++/3.3.1/bits/stl_list.h ****             _Base;
 299:h:/6261A/11CW1352MP_BIRD61A_11C_V33_GPRS_MMI/Tools/MinGW/include/c++/3.3.1/bits/stl_list.h ****     typedef typename _Base::allocator_type allocator_type;
 300:h:/6261A/11CW1352MP_BIRD61A_11C_V33_GPRS_MMI/Tools/MinGW/include/c++/3.3.1/bits/stl_list.h ****   
GAS LISTING h:/6261A/11CW1352MP_BIRD61A_11C_V33_GPRS_MMI/plutommi/Customer/ResGenerator/gcctmp/ccEHcaaa.s 			page 15


 301:h:/6261A/11CW1352MP_BIRD61A_11C_V33_GPRS_MMI/Tools/MinGW/include/c++/3.3.1/bits/stl_list.h ****     _List_base(const allocator_type& __a)
 302:h:/6261A/11CW1352MP_BIRD61A_11C_V33_GPRS_MMI/Tools/MinGW/include/c++/3.3.1/bits/stl_list.h ****     : _Base(__a)
 303:h:/6261A/11CW1352MP_BIRD61A_11C_V33_GPRS_MMI/Tools/MinGW/include/c++/3.3.1/bits/stl_list.h ****     {
 304:h:/6261A/11CW1352MP_BIRD61A_11C_V33_GPRS_MMI/Tools/MinGW/include/c++/3.3.1/bits/stl_list.h ****       _M_node = _M_get_node();
 305:h:/6261A/11CW1352MP_BIRD61A_11C_V33_GPRS_MMI/Tools/MinGW/include/c++/3.3.1/bits/stl_list.h ****       _M_node->_M_next = _M_node;
 306:h:/6261A/11CW1352MP_BIRD61A_11C_V33_GPRS_MMI/Tools/MinGW/include/c++/3.3.1/bits/stl_list.h ****       _M_node->_M_prev = _M_node;
 307:h:/6261A/11CW1352MP_BIRD61A_11C_V33_GPRS_MMI/Tools/MinGW/include/c++/3.3.1/bits/stl_list.h ****     }
 308:h:/6261A/11CW1352MP_BIRD61A_11C_V33_GPRS_MMI/Tools/MinGW/include/c++/3.3.1/bits/stl_list.h ****   
 309:h:/6261A/11CW1352MP_BIRD61A_11C_V33_GPRS_MMI/Tools/MinGW/include/c++/3.3.1/bits/stl_list.h ****     // This is what actually destroys the list.
 310:h:/6261A/11CW1352MP_BIRD61A_11C_V33_GPRS_MMI/Tools/MinGW/include/c++/3.3.1/bits/stl_list.h ****     ~_List_base()
 311:h:/6261A/11CW1352MP_BIRD61A_11C_V33_GPRS_MMI/Tools/MinGW/include/c++/3.3.1/bits/stl_list.h ****     {
 312:h:/6261A/11CW1352MP_BIRD61A_11C_V33_GPRS_MMI/Tools/MinGW/include/c++/3.3.1/bits/stl_list.h ****       __clear();
 313:h:/6261A/11CW1352MP_BIRD61A_11C_V33_GPRS_MMI/Tools/MinGW/include/c++/3.3.1/bits/stl_list.h ****       _M_put_node(_M_node);
 314:h:/6261A/11CW1352MP_BIRD61A_11C_V33_GPRS_MMI/Tools/MinGW/include/c++/3.3.1/bits/stl_list.h ****     }
 315:h:/6261A/11CW1352MP_BIRD61A_11C_V33_GPRS_MMI/Tools/MinGW/include/c++/3.3.1/bits/stl_list.h ****   
 316:h:/6261A/11CW1352MP_BIRD61A_11C_V33_GPRS_MMI/Tools/MinGW/include/c++/3.3.1/bits/stl_list.h ****     void
 317:h:/6261A/11CW1352MP_BIRD61A_11C_V33_GPRS_MMI/Tools/MinGW/include/c++/3.3.1/bits/stl_list.h ****     __clear();
 318:h:/6261A/11CW1352MP_BIRD61A_11C_V33_GPRS_MMI/Tools/MinGW/include/c++/3.3.1/bits/stl_list.h ****   };
 319:h:/6261A/11CW1352MP_BIRD61A_11C_V33_GPRS_MMI/Tools/MinGW/include/c++/3.3.1/bits/stl_list.h ****   
 320:h:/6261A/11CW1352MP_BIRD61A_11C_V33_GPRS_MMI/Tools/MinGW/include/c++/3.3.1/bits/stl_list.h ****   
 321:h:/6261A/11CW1352MP_BIRD61A_11C_V33_GPRS_MMI/Tools/MinGW/include/c++/3.3.1/bits/stl_list.h ****   /**
 322:h:/6261A/11CW1352MP_BIRD61A_11C_V33_GPRS_MMI/Tools/MinGW/include/c++/3.3.1/bits/stl_list.h ****    *  @brief  A standard container with linear time access to elements, and
 323:h:/6261A/11CW1352MP_BIRD61A_11C_V33_GPRS_MMI/Tools/MinGW/include/c++/3.3.1/bits/stl_list.h ****    *  fixed time insertion/deletion at any point in the sequence.
 324:h:/6261A/11CW1352MP_BIRD61A_11C_V33_GPRS_MMI/Tools/MinGW/include/c++/3.3.1/bits/stl_list.h ****    *
 325:h:/6261A/11CW1352MP_BIRD61A_11C_V33_GPRS_MMI/Tools/MinGW/include/c++/3.3.1/bits/stl_list.h ****    *  @ingroup Containers
 326:h:/6261A/11CW1352MP_BIRD61A_11C_V33_GPRS_MMI/Tools/MinGW/include/c++/3.3.1/bits/stl_list.h ****    *  @ingroup Sequences
 327:h:/6261A/11CW1352MP_BIRD61A_11C_V33_GPRS_MMI/Tools/MinGW/include/c++/3.3.1/bits/stl_list.h ****    *
 328:h:/6261A/11CW1352MP_BIRD61A_11C_V33_GPRS_MMI/Tools/MinGW/include/c++/3.3.1/bits/stl_list.h ****    *  Meets the requirements of a <a href="tables.html#65">container</a>, a
 329:h:/6261A/11CW1352MP_BIRD61A_11C_V33_GPRS_MMI/Tools/MinGW/include/c++/3.3.1/bits/stl_list.h ****    *  <a href="tables.html#66">reversible container</a>, and a
 330:h:/6261A/11CW1352MP_BIRD61A_11C_V33_GPRS_MMI/Tools/MinGW/include/c++/3.3.1/bits/stl_list.h ****    *  <a href="tables.html#67">sequence</a>, including the
 331:h:/6261A/11CW1352MP_BIRD61A_11C_V33_GPRS_MMI/Tools/MinGW/include/c++/3.3.1/bits/stl_list.h ****    *  <a href="tables.html#68">optional sequence requirements</a> with the
 332:h:/6261A/11CW1352MP_BIRD61A_11C_V33_GPRS_MMI/Tools/MinGW/include/c++/3.3.1/bits/stl_list.h ****    *  %exception of @c at and @c operator[].
 333:h:/6261A/11CW1352MP_BIRD61A_11C_V33_GPRS_MMI/Tools/MinGW/include/c++/3.3.1/bits/stl_list.h ****    *
 334:h:/6261A/11CW1352MP_BIRD61A_11C_V33_GPRS_MMI/Tools/MinGW/include/c++/3.3.1/bits/stl_list.h ****    *  This is a @e doubly @e linked %list.  Traversal up and down the %list
 335:h:/6261A/11CW1352MP_BIRD61A_11C_V33_GPRS_MMI/Tools/MinGW/include/c++/3.3.1/bits/stl_list.h ****    *  requires linear time, but adding and removing elements (or @e nodes) is
 336:h:/6261A/11CW1352MP_BIRD61A_11C_V33_GPRS_MMI/Tools/MinGW/include/c++/3.3.1/bits/stl_list.h ****    *  done in constant time, regardless of where the change takes place.
 337:h:/6261A/11CW1352MP_BIRD61A_11C_V33_GPRS_MMI/Tools/MinGW/include/c++/3.3.1/bits/stl_list.h ****    *  Unlike std::vector and std::deque, random-access iterators are not
 338:h:/6261A/11CW1352MP_BIRD61A_11C_V33_GPRS_MMI/Tools/MinGW/include/c++/3.3.1/bits/stl_list.h ****    *  provided, so subscripting ( @c [] ) access is not allowed.  For algorithms
 339:h:/6261A/11CW1352MP_BIRD61A_11C_V33_GPRS_MMI/Tools/MinGW/include/c++/3.3.1/bits/stl_list.h ****    *  which only need sequential access, this lack makes no difference.
 340:h:/6261A/11CW1352MP_BIRD61A_11C_V33_GPRS_MMI/Tools/MinGW/include/c++/3.3.1/bits/stl_list.h ****    *
 341:h:/6261A/11CW1352MP_BIRD61A_11C_V33_GPRS_MMI/Tools/MinGW/include/c++/3.3.1/bits/stl_list.h ****    *  Also unlike the other standard containers, std::list provides specialized 
 342:h:/6261A/11CW1352MP_BIRD61A_11C_V33_GPRS_MMI/Tools/MinGW/include/c++/3.3.1/bits/stl_list.h ****    *  algorithms %unique to linked lists, such as splicing, sorting, and
 343:h:/6261A/11CW1352MP_BIRD61A_11C_V33_GPRS_MMI/Tools/MinGW/include/c++/3.3.1/bits/stl_list.h ****    *  in-place reversal.
 344:h:/6261A/11CW1352MP_BIRD61A_11C_V33_GPRS_MMI/Tools/MinGW/include/c++/3.3.1/bits/stl_list.h ****    *
 345:h:/6261A/11CW1352MP_BIRD61A_11C_V33_GPRS_MMI/Tools/MinGW/include/c++/3.3.1/bits/stl_list.h ****    *  @if maint
 346:h:/6261A/11CW1352MP_BIRD61A_11C_V33_GPRS_MMI/Tools/MinGW/include/c++/3.3.1/bits/stl_list.h ****    *  A couple points on memory allocation for list<Tp>:
 347:h:/6261A/11CW1352MP_BIRD61A_11C_V33_GPRS_MMI/Tools/MinGW/include/c++/3.3.1/bits/stl_list.h ****    *
 348:h:/6261A/11CW1352MP_BIRD61A_11C_V33_GPRS_MMI/Tools/MinGW/include/c++/3.3.1/bits/stl_list.h ****    *  First, we never actually allocate a Tp, we allocate List_node<Tp>'s
 349:h:/6261A/11CW1352MP_BIRD61A_11C_V33_GPRS_MMI/Tools/MinGW/include/c++/3.3.1/bits/stl_list.h ****    *  and trust [20.1.5]/4 to DTRT.  This is to ensure that after elements from
 350:h:/6261A/11CW1352MP_BIRD61A_11C_V33_GPRS_MMI/Tools/MinGW/include/c++/3.3.1/bits/stl_list.h ****    *  %list<X,Alloc1> are spliced into %list<X,Alloc2>, destroying the memory of
 351:h:/6261A/11CW1352MP_BIRD61A_11C_V33_GPRS_MMI/Tools/MinGW/include/c++/3.3.1/bits/stl_list.h ****    *  the second %list is a valid operation, i.e., Alloc1 giveth and Alloc2
 352:h:/6261A/11CW1352MP_BIRD61A_11C_V33_GPRS_MMI/Tools/MinGW/include/c++/3.3.1/bits/stl_list.h ****    *  taketh away.
 353:h:/6261A/11CW1352MP_BIRD61A_11C_V33_GPRS_MMI/Tools/MinGW/include/c++/3.3.1/bits/stl_list.h ****    *
 354:h:/6261A/11CW1352MP_BIRD61A_11C_V33_GPRS_MMI/Tools/MinGW/include/c++/3.3.1/bits/stl_list.h ****    *  Second, a %list conceptually represented as
 355:h:/6261A/11CW1352MP_BIRD61A_11C_V33_GPRS_MMI/Tools/MinGW/include/c++/3.3.1/bits/stl_list.h ****    *  @code
 356:h:/6261A/11CW1352MP_BIRD61A_11C_V33_GPRS_MMI/Tools/MinGW/include/c++/3.3.1/bits/stl_list.h ****    *    A <---> B <---> C <---> D
 357:h:/6261A/11CW1352MP_BIRD61A_11C_V33_GPRS_MMI/Tools/MinGW/include/c++/3.3.1/bits/stl_list.h ****    *  @endcode
GAS LISTING h:/6261A/11CW1352MP_BIRD61A_11C_V33_GPRS_MMI/plutommi/Customer/ResGenerator/gcctmp/ccEHcaaa.s 			page 16


 358:h:/6261A/11CW1352MP_BIRD61A_11C_V33_GPRS_MMI/Tools/MinGW/include/c++/3.3.1/bits/stl_list.h ****    *  is actually circular; a link exists between A and D.  The %list class
 359:h:/6261A/11CW1352MP_BIRD61A_11C_V33_GPRS_MMI/Tools/MinGW/include/c++/3.3.1/bits/stl_list.h ****    *  holds (as its only data member) a private list::iterator pointing to
 360:h:/6261A/11CW1352MP_BIRD61A_11C_V33_GPRS_MMI/Tools/MinGW/include/c++/3.3.1/bits/stl_list.h ****    *  @e D, not to @e A!  To get to the head of the %list, we start at the tail
 361:h:/6261A/11CW1352MP_BIRD61A_11C_V33_GPRS_MMI/Tools/MinGW/include/c++/3.3.1/bits/stl_list.h ****    *  and move forward by one.  When this member iterator's next/previous
 362:h:/6261A/11CW1352MP_BIRD61A_11C_V33_GPRS_MMI/Tools/MinGW/include/c++/3.3.1/bits/stl_list.h ****    *  pointers refer to itself, the %list is %empty.
 363:h:/6261A/11CW1352MP_BIRD61A_11C_V33_GPRS_MMI/Tools/MinGW/include/c++/3.3.1/bits/stl_list.h ****    *  @endif
 364:h:/6261A/11CW1352MP_BIRD61A_11C_V33_GPRS_MMI/Tools/MinGW/include/c++/3.3.1/bits/stl_list.h ****   */
 365:h:/6261A/11CW1352MP_BIRD61A_11C_V33_GPRS_MMI/Tools/MinGW/include/c++/3.3.1/bits/stl_list.h ****   template<typename _Tp, typename _Alloc = allocator<_Tp> >
 366:h:/6261A/11CW1352MP_BIRD61A_11C_V33_GPRS_MMI/Tools/MinGW/include/c++/3.3.1/bits/stl_list.h ****     class list : protected _List_base<_Tp, _Alloc>
 367:h:/6261A/11CW1352MP_BIRD61A_11C_V33_GPRS_MMI/Tools/MinGW/include/c++/3.3.1/bits/stl_list.h ****   {
 368:h:/6261A/11CW1352MP_BIRD61A_11C_V33_GPRS_MMI/Tools/MinGW/include/c++/3.3.1/bits/stl_list.h ****     // concept requirements
 369:h:/6261A/11CW1352MP_BIRD61A_11C_V33_GPRS_MMI/Tools/MinGW/include/c++/3.3.1/bits/stl_list.h ****     __glibcpp_class_requires(_Tp, _SGIAssignableConcept)
 370:h:/6261A/11CW1352MP_BIRD61A_11C_V33_GPRS_MMI/Tools/MinGW/include/c++/3.3.1/bits/stl_list.h ****   
 371:h:/6261A/11CW1352MP_BIRD61A_11C_V33_GPRS_MMI/Tools/MinGW/include/c++/3.3.1/bits/stl_list.h ****     typedef _List_base<_Tp, _Alloc>                       _Base;
 372:h:/6261A/11CW1352MP_BIRD61A_11C_V33_GPRS_MMI/Tools/MinGW/include/c++/3.3.1/bits/stl_list.h ****   
 373:h:/6261A/11CW1352MP_BIRD61A_11C_V33_GPRS_MMI/Tools/MinGW/include/c++/3.3.1/bits/stl_list.h ****   public:
 374:h:/6261A/11CW1352MP_BIRD61A_11C_V33_GPRS_MMI/Tools/MinGW/include/c++/3.3.1/bits/stl_list.h ****     typedef _Tp                                           value_type;
 375:h:/6261A/11CW1352MP_BIRD61A_11C_V33_GPRS_MMI/Tools/MinGW/include/c++/3.3.1/bits/stl_list.h ****     typedef value_type*                                   pointer;
 376:h:/6261A/11CW1352MP_BIRD61A_11C_V33_GPRS_MMI/Tools/MinGW/include/c++/3.3.1/bits/stl_list.h ****     typedef const value_type*                             const_pointer;
 377:h:/6261A/11CW1352MP_BIRD61A_11C_V33_GPRS_MMI/Tools/MinGW/include/c++/3.3.1/bits/stl_list.h ****     typedef _List_iterator<_Tp,_Tp&,_Tp*>                 iterator;
 378:h:/6261A/11CW1352MP_BIRD61A_11C_V33_GPRS_MMI/Tools/MinGW/include/c++/3.3.1/bits/stl_list.h ****     typedef _List_iterator<_Tp,const _Tp&,const _Tp*>     const_iterator;
 379:h:/6261A/11CW1352MP_BIRD61A_11C_V33_GPRS_MMI/Tools/MinGW/include/c++/3.3.1/bits/stl_list.h ****     typedef std::reverse_iterator<const_iterator>     const_reverse_iterator;
 380:h:/6261A/11CW1352MP_BIRD61A_11C_V33_GPRS_MMI/Tools/MinGW/include/c++/3.3.1/bits/stl_list.h ****     typedef std::reverse_iterator<iterator>                 reverse_iterator;
 381:h:/6261A/11CW1352MP_BIRD61A_11C_V33_GPRS_MMI/Tools/MinGW/include/c++/3.3.1/bits/stl_list.h ****     typedef value_type&                                   reference;
 382:h:/6261A/11CW1352MP_BIRD61A_11C_V33_GPRS_MMI/Tools/MinGW/include/c++/3.3.1/bits/stl_list.h ****     typedef const value_type&                             const_reference;
 383:h:/6261A/11CW1352MP_BIRD61A_11C_V33_GPRS_MMI/Tools/MinGW/include/c++/3.3.1/bits/stl_list.h ****     typedef size_t                                        size_type;
 384:h:/6261A/11CW1352MP_BIRD61A_11C_V33_GPRS_MMI/Tools/MinGW/include/c++/3.3.1/bits/stl_list.h ****     typedef ptrdiff_t                                     difference_type;
 385:h:/6261A/11CW1352MP_BIRD61A_11C_V33_GPRS_MMI/Tools/MinGW/include/c++/3.3.1/bits/stl_list.h ****     typedef typename _Base::allocator_type                allocator_type;
 386:h:/6261A/11CW1352MP_BIRD61A_11C_V33_GPRS_MMI/Tools/MinGW/include/c++/3.3.1/bits/stl_list.h ****   
 387:h:/6261A/11CW1352MP_BIRD61A_11C_V33_GPRS_MMI/Tools/MinGW/include/c++/3.3.1/bits/stl_list.h ****   protected:
 388:h:/6261A/11CW1352MP_BIRD61A_11C_V33_GPRS_MMI/Tools/MinGW/include/c++/3.3.1/bits/stl_list.h ****     // Note that pointers-to-_Node's can be ctor-converted to iterator types.
 389:h:/6261A/11CW1352MP_BIRD61A_11C_V33_GPRS_MMI/Tools/MinGW/include/c++/3.3.1/bits/stl_list.h ****     typedef _List_node<_Tp>                               _Node;
 390:h:/6261A/11CW1352MP_BIRD61A_11C_V33_GPRS_MMI/Tools/MinGW/include/c++/3.3.1/bits/stl_list.h ****   
 391:h:/6261A/11CW1352MP_BIRD61A_11C_V33_GPRS_MMI/Tools/MinGW/include/c++/3.3.1/bits/stl_list.h ****     /** @if maint
 392:h:/6261A/11CW1352MP_BIRD61A_11C_V33_GPRS_MMI/Tools/MinGW/include/c++/3.3.1/bits/stl_list.h ****      *  One data member plus two memory-handling functions.  If the _Alloc
 393:h:/6261A/11CW1352MP_BIRD61A_11C_V33_GPRS_MMI/Tools/MinGW/include/c++/3.3.1/bits/stl_list.h ****      *  type requires separate instances, then one of those will also be
 394:h:/6261A/11CW1352MP_BIRD61A_11C_V33_GPRS_MMI/Tools/MinGW/include/c++/3.3.1/bits/stl_list.h ****      *  included, accumulated from the topmost parent.
 395:h:/6261A/11CW1352MP_BIRD61A_11C_V33_GPRS_MMI/Tools/MinGW/include/c++/3.3.1/bits/stl_list.h ****      *  @endif
 396:h:/6261A/11CW1352MP_BIRD61A_11C_V33_GPRS_MMI/Tools/MinGW/include/c++/3.3.1/bits/stl_list.h ****     */
 397:h:/6261A/11CW1352MP_BIRD61A_11C_V33_GPRS_MMI/Tools/MinGW/include/c++/3.3.1/bits/stl_list.h ****     using _Base::_M_node;
 398:h:/6261A/11CW1352MP_BIRD61A_11C_V33_GPRS_MMI/Tools/MinGW/include/c++/3.3.1/bits/stl_list.h ****     using _Base::_M_put_node;
 399:h:/6261A/11CW1352MP_BIRD61A_11C_V33_GPRS_MMI/Tools/MinGW/include/c++/3.3.1/bits/stl_list.h ****     using _Base::_M_get_node;
 400:h:/6261A/11CW1352MP_BIRD61A_11C_V33_GPRS_MMI/Tools/MinGW/include/c++/3.3.1/bits/stl_list.h ****   
 401:h:/6261A/11CW1352MP_BIRD61A_11C_V33_GPRS_MMI/Tools/MinGW/include/c++/3.3.1/bits/stl_list.h ****     /**
 402:h:/6261A/11CW1352MP_BIRD61A_11C_V33_GPRS_MMI/Tools/MinGW/include/c++/3.3.1/bits/stl_list.h ****      *  @if maint
 403:h:/6261A/11CW1352MP_BIRD61A_11C_V33_GPRS_MMI/Tools/MinGW/include/c++/3.3.1/bits/stl_list.h ****      *  @param  x  An instance of user data.
 404:h:/6261A/11CW1352MP_BIRD61A_11C_V33_GPRS_MMI/Tools/MinGW/include/c++/3.3.1/bits/stl_list.h ****      *
 405:h:/6261A/11CW1352MP_BIRD61A_11C_V33_GPRS_MMI/Tools/MinGW/include/c++/3.3.1/bits/stl_list.h ****      *  Allocates space for a new node and constructs a copy of @a x in it.
 406:h:/6261A/11CW1352MP_BIRD61A_11C_V33_GPRS_MMI/Tools/MinGW/include/c++/3.3.1/bits/stl_list.h ****      *  @endif
 407:h:/6261A/11CW1352MP_BIRD61A_11C_V33_GPRS_MMI/Tools/MinGW/include/c++/3.3.1/bits/stl_list.h ****     */
 408:h:/6261A/11CW1352MP_BIRD61A_11C_V33_GPRS_MMI/Tools/MinGW/include/c++/3.3.1/bits/stl_list.h ****     _Node*
 409:h:/6261A/11CW1352MP_BIRD61A_11C_V33_GPRS_MMI/Tools/MinGW/include/c++/3.3.1/bits/stl_list.h ****     _M_create_node(const value_type& __x)
 410:h:/6261A/11CW1352MP_BIRD61A_11C_V33_GPRS_MMI/Tools/MinGW/include/c++/3.3.1/bits/stl_list.h ****     {
 411:h:/6261A/11CW1352MP_BIRD61A_11C_V33_GPRS_MMI/Tools/MinGW/include/c++/3.3.1/bits/stl_list.h ****       _Node* __p = _M_get_node();
 412:h:/6261A/11CW1352MP_BIRD61A_11C_V33_GPRS_MMI/Tools/MinGW/include/c++/3.3.1/bits/stl_list.h ****       try {
 413:h:/6261A/11CW1352MP_BIRD61A_11C_V33_GPRS_MMI/Tools/MinGW/include/c++/3.3.1/bits/stl_list.h ****         _Construct(&__p->_M_data, __x);
 414:h:/6261A/11CW1352MP_BIRD61A_11C_V33_GPRS_MMI/Tools/MinGW/include/c++/3.3.1/bits/stl_list.h ****       }
GAS LISTING h:/6261A/11CW1352MP_BIRD61A_11C_V33_GPRS_MMI/plutommi/Customer/ResGenerator/gcctmp/ccEHcaaa.s 			page 17


 415:h:/6261A/11CW1352MP_BIRD61A_11C_V33_GPRS_MMI/Tools/MinGW/include/c++/3.3.1/bits/stl_list.h ****       catch(...)
 416:h:/6261A/11CW1352MP_BIRD61A_11C_V33_GPRS_MMI/Tools/MinGW/include/c++/3.3.1/bits/stl_list.h ****       {
 417:h:/6261A/11CW1352MP_BIRD61A_11C_V33_GPRS_MMI/Tools/MinGW/include/c++/3.3.1/bits/stl_list.h ****         _M_put_node(__p);
 418:h:/6261A/11CW1352MP_BIRD61A_11C_V33_GPRS_MMI/Tools/MinGW/include/c++/3.3.1/bits/stl_list.h ****         __throw_exception_again;
 419:h:/6261A/11CW1352MP_BIRD61A_11C_V33_GPRS_MMI/Tools/MinGW/include/c++/3.3.1/bits/stl_list.h ****       }
 420:h:/6261A/11CW1352MP_BIRD61A_11C_V33_GPRS_MMI/Tools/MinGW/include/c++/3.3.1/bits/stl_list.h ****       return __p;
 421:h:/6261A/11CW1352MP_BIRD61A_11C_V33_GPRS_MMI/Tools/MinGW/include/c++/3.3.1/bits/stl_list.h ****     }
 422:h:/6261A/11CW1352MP_BIRD61A_11C_V33_GPRS_MMI/Tools/MinGW/include/c++/3.3.1/bits/stl_list.h ****   
 423:h:/6261A/11CW1352MP_BIRD61A_11C_V33_GPRS_MMI/Tools/MinGW/include/c++/3.3.1/bits/stl_list.h ****     /**
 424:h:/6261A/11CW1352MP_BIRD61A_11C_V33_GPRS_MMI/Tools/MinGW/include/c++/3.3.1/bits/stl_list.h ****      *  @if maint
 425:h:/6261A/11CW1352MP_BIRD61A_11C_V33_GPRS_MMI/Tools/MinGW/include/c++/3.3.1/bits/stl_list.h ****      *  Allocates space for a new node and default-constructs a new instance
 426:h:/6261A/11CW1352MP_BIRD61A_11C_V33_GPRS_MMI/Tools/MinGW/include/c++/3.3.1/bits/stl_list.h ****      *  of @c value_type in it.
 427:h:/6261A/11CW1352MP_BIRD61A_11C_V33_GPRS_MMI/Tools/MinGW/include/c++/3.3.1/bits/stl_list.h ****      *  @endif
 428:h:/6261A/11CW1352MP_BIRD61A_11C_V33_GPRS_MMI/Tools/MinGW/include/c++/3.3.1/bits/stl_list.h ****     */
 429:h:/6261A/11CW1352MP_BIRD61A_11C_V33_GPRS_MMI/Tools/MinGW/include/c++/3.3.1/bits/stl_list.h ****     _Node*
 430:h:/6261A/11CW1352MP_BIRD61A_11C_V33_GPRS_MMI/Tools/MinGW/include/c++/3.3.1/bits/stl_list.h ****     _M_create_node()
 431:h:/6261A/11CW1352MP_BIRD61A_11C_V33_GPRS_MMI/Tools/MinGW/include/c++/3.3.1/bits/stl_list.h ****     {
 432:h:/6261A/11CW1352MP_BIRD61A_11C_V33_GPRS_MMI/Tools/MinGW/include/c++/3.3.1/bits/stl_list.h ****       _Node* __p = _M_get_node();
 433:h:/6261A/11CW1352MP_BIRD61A_11C_V33_GPRS_MMI/Tools/MinGW/include/c++/3.3.1/bits/stl_list.h ****       try {
 434:h:/6261A/11CW1352MP_BIRD61A_11C_V33_GPRS_MMI/Tools/MinGW/include/c++/3.3.1/bits/stl_list.h ****         _Construct(&__p->_M_data);
 435:h:/6261A/11CW1352MP_BIRD61A_11C_V33_GPRS_MMI/Tools/MinGW/include/c++/3.3.1/bits/stl_list.h ****       }
 436:h:/6261A/11CW1352MP_BIRD61A_11C_V33_GPRS_MMI/Tools/MinGW/include/c++/3.3.1/bits/stl_list.h ****       catch(...)
 437:h:/6261A/11CW1352MP_BIRD61A_11C_V33_GPRS_MMI/Tools/MinGW/include/c++/3.3.1/bits/stl_list.h ****       {
 438:h:/6261A/11CW1352MP_BIRD61A_11C_V33_GPRS_MMI/Tools/MinGW/include/c++/3.3.1/bits/stl_list.h ****         _M_put_node(__p);
 439:h:/6261A/11CW1352MP_BIRD61A_11C_V33_GPRS_MMI/Tools/MinGW/include/c++/3.3.1/bits/stl_list.h ****         __throw_exception_again;
 440:h:/6261A/11CW1352MP_BIRD61A_11C_V33_GPRS_MMI/Tools/MinGW/include/c++/3.3.1/bits/stl_list.h ****       }
 441:h:/6261A/11CW1352MP_BIRD61A_11C_V33_GPRS_MMI/Tools/MinGW/include/c++/3.3.1/bits/stl_list.h ****       return __p;
 442:h:/6261A/11CW1352MP_BIRD61A_11C_V33_GPRS_MMI/Tools/MinGW/include/c++/3.3.1/bits/stl_list.h ****     }
 443:h:/6261A/11CW1352MP_BIRD61A_11C_V33_GPRS_MMI/Tools/MinGW/include/c++/3.3.1/bits/stl_list.h ****   
 444:h:/6261A/11CW1352MP_BIRD61A_11C_V33_GPRS_MMI/Tools/MinGW/include/c++/3.3.1/bits/stl_list.h ****   public:
 445:h:/6261A/11CW1352MP_BIRD61A_11C_V33_GPRS_MMI/Tools/MinGW/include/c++/3.3.1/bits/stl_list.h ****     // [23.2.2.1] construct/copy/destroy
 446:h:/6261A/11CW1352MP_BIRD61A_11C_V33_GPRS_MMI/Tools/MinGW/include/c++/3.3.1/bits/stl_list.h ****     // (assign() and get_allocator() are also listed in this section)
 447:h:/6261A/11CW1352MP_BIRD61A_11C_V33_GPRS_MMI/Tools/MinGW/include/c++/3.3.1/bits/stl_list.h ****     /**
 448:h:/6261A/11CW1352MP_BIRD61A_11C_V33_GPRS_MMI/Tools/MinGW/include/c++/3.3.1/bits/stl_list.h ****      *  @brief  Default constructor creates no elements.
 449:h:/6261A/11CW1352MP_BIRD61A_11C_V33_GPRS_MMI/Tools/MinGW/include/c++/3.3.1/bits/stl_list.h ****     */
 450:h:/6261A/11CW1352MP_BIRD61A_11C_V33_GPRS_MMI/Tools/MinGW/include/c++/3.3.1/bits/stl_list.h ****     explicit
 451:h:/6261A/11CW1352MP_BIRD61A_11C_V33_GPRS_MMI/Tools/MinGW/include/c++/3.3.1/bits/stl_list.h ****     list(const allocator_type& __a = allocator_type())
 452:h:/6261A/11CW1352MP_BIRD61A_11C_V33_GPRS_MMI/Tools/MinGW/include/c++/3.3.1/bits/stl_list.h ****     : _Base(__a) { }
 453:h:/6261A/11CW1352MP_BIRD61A_11C_V33_GPRS_MMI/Tools/MinGW/include/c++/3.3.1/bits/stl_list.h ****   
 454:h:/6261A/11CW1352MP_BIRD61A_11C_V33_GPRS_MMI/Tools/MinGW/include/c++/3.3.1/bits/stl_list.h ****     /**
 455:h:/6261A/11CW1352MP_BIRD61A_11C_V33_GPRS_MMI/Tools/MinGW/include/c++/3.3.1/bits/stl_list.h ****      *  @brief  Create a %list with copies of an exemplar element.
 456:h:/6261A/11CW1352MP_BIRD61A_11C_V33_GPRS_MMI/Tools/MinGW/include/c++/3.3.1/bits/stl_list.h ****      *  @param  n  The number of elements to initially create.
 457:h:/6261A/11CW1352MP_BIRD61A_11C_V33_GPRS_MMI/Tools/MinGW/include/c++/3.3.1/bits/stl_list.h ****      *  @param  value  An element to copy.
 458:h:/6261A/11CW1352MP_BIRD61A_11C_V33_GPRS_MMI/Tools/MinGW/include/c++/3.3.1/bits/stl_list.h ****      * 
 459:h:/6261A/11CW1352MP_BIRD61A_11C_V33_GPRS_MMI/Tools/MinGW/include/c++/3.3.1/bits/stl_list.h ****      *  This constructor fills the %list with @a n copies of @a value.
 460:h:/6261A/11CW1352MP_BIRD61A_11C_V33_GPRS_MMI/Tools/MinGW/include/c++/3.3.1/bits/stl_list.h ****     */
 461:h:/6261A/11CW1352MP_BIRD61A_11C_V33_GPRS_MMI/Tools/MinGW/include/c++/3.3.1/bits/stl_list.h ****     list(size_type __n, const value_type& __value,
 462:h:/6261A/11CW1352MP_BIRD61A_11C_V33_GPRS_MMI/Tools/MinGW/include/c++/3.3.1/bits/stl_list.h ****          const allocator_type& __a = allocator_type())
 463:h:/6261A/11CW1352MP_BIRD61A_11C_V33_GPRS_MMI/Tools/MinGW/include/c++/3.3.1/bits/stl_list.h ****       : _Base(__a)
 464:h:/6261A/11CW1352MP_BIRD61A_11C_V33_GPRS_MMI/Tools/MinGW/include/c++/3.3.1/bits/stl_list.h ****       { this->insert(begin(), __n, __value); }
 465:h:/6261A/11CW1352MP_BIRD61A_11C_V33_GPRS_MMI/Tools/MinGW/include/c++/3.3.1/bits/stl_list.h ****   
 466:h:/6261A/11CW1352MP_BIRD61A_11C_V33_GPRS_MMI/Tools/MinGW/include/c++/3.3.1/bits/stl_list.h ****     /**
 467:h:/6261A/11CW1352MP_BIRD61A_11C_V33_GPRS_MMI/Tools/MinGW/include/c++/3.3.1/bits/stl_list.h ****      *  @brief  Create a %list with default elements.
 468:h:/6261A/11CW1352MP_BIRD61A_11C_V33_GPRS_MMI/Tools/MinGW/include/c++/3.3.1/bits/stl_list.h ****      *  @param  n  The number of elements to initially create.
 469:h:/6261A/11CW1352MP_BIRD61A_11C_V33_GPRS_MMI/Tools/MinGW/include/c++/3.3.1/bits/stl_list.h ****      * 
 470:h:/6261A/11CW1352MP_BIRD61A_11C_V33_GPRS_MMI/Tools/MinGW/include/c++/3.3.1/bits/stl_list.h ****      *  This constructor fills the %list with @a n copies of a
 471:h:/6261A/11CW1352MP_BIRD61A_11C_V33_GPRS_MMI/Tools/MinGW/include/c++/3.3.1/bits/stl_list.h ****      *  default-constructed element.
GAS LISTING h:/6261A/11CW1352MP_BIRD61A_11C_V33_GPRS_MMI/plutommi/Customer/ResGenerator/gcctmp/ccEHcaaa.s 			page 18


 472:h:/6261A/11CW1352MP_BIRD61A_11C_V33_GPRS_MMI/Tools/MinGW/include/c++/3.3.1/bits/stl_list.h ****     */
 473:h:/6261A/11CW1352MP_BIRD61A_11C_V33_GPRS_MMI/Tools/MinGW/include/c++/3.3.1/bits/stl_list.h ****     explicit
 474:h:/6261A/11CW1352MP_BIRD61A_11C_V33_GPRS_MMI/Tools/MinGW/include/c++/3.3.1/bits/stl_list.h ****     list(size_type __n)
 475:h:/6261A/11CW1352MP_BIRD61A_11C_V33_GPRS_MMI/Tools/MinGW/include/c++/3.3.1/bits/stl_list.h ****       : _Base(allocator_type())
 476:h:/6261A/11CW1352MP_BIRD61A_11C_V33_GPRS_MMI/Tools/MinGW/include/c++/3.3.1/bits/stl_list.h ****       { this->insert(begin(), __n, value_type()); }
 477:h:/6261A/11CW1352MP_BIRD61A_11C_V33_GPRS_MMI/Tools/MinGW/include/c++/3.3.1/bits/stl_list.h ****   
 478:h:/6261A/11CW1352MP_BIRD61A_11C_V33_GPRS_MMI/Tools/MinGW/include/c++/3.3.1/bits/stl_list.h ****     /**
 479:h:/6261A/11CW1352MP_BIRD61A_11C_V33_GPRS_MMI/Tools/MinGW/include/c++/3.3.1/bits/stl_list.h ****      *  @brief  %List copy constructor.
 480:h:/6261A/11CW1352MP_BIRD61A_11C_V33_GPRS_MMI/Tools/MinGW/include/c++/3.3.1/bits/stl_list.h ****      *  @param  x  A %list of identical element and allocator types.
 481:h:/6261A/11CW1352MP_BIRD61A_11C_V33_GPRS_MMI/Tools/MinGW/include/c++/3.3.1/bits/stl_list.h ****      * 
 482:h:/6261A/11CW1352MP_BIRD61A_11C_V33_GPRS_MMI/Tools/MinGW/include/c++/3.3.1/bits/stl_list.h ****      *  The newly-created %list uses a copy of the allocation object used
 483:h:/6261A/11CW1352MP_BIRD61A_11C_V33_GPRS_MMI/Tools/MinGW/include/c++/3.3.1/bits/stl_list.h ****      *  by @a x.
 484:h:/6261A/11CW1352MP_BIRD61A_11C_V33_GPRS_MMI/Tools/MinGW/include/c++/3.3.1/bits/stl_list.h ****     */
 485:h:/6261A/11CW1352MP_BIRD61A_11C_V33_GPRS_MMI/Tools/MinGW/include/c++/3.3.1/bits/stl_list.h ****     list(const list& __x)
 486:h:/6261A/11CW1352MP_BIRD61A_11C_V33_GPRS_MMI/Tools/MinGW/include/c++/3.3.1/bits/stl_list.h ****       : _Base(__x.get_allocator())
 487:h:/6261A/11CW1352MP_BIRD61A_11C_V33_GPRS_MMI/Tools/MinGW/include/c++/3.3.1/bits/stl_list.h ****       { this->insert(begin(), __x.begin(), __x.end()); }
 488:h:/6261A/11CW1352MP_BIRD61A_11C_V33_GPRS_MMI/Tools/MinGW/include/c++/3.3.1/bits/stl_list.h ****   
 489:h:/6261A/11CW1352MP_BIRD61A_11C_V33_GPRS_MMI/Tools/MinGW/include/c++/3.3.1/bits/stl_list.h ****     /**
 490:h:/6261A/11CW1352MP_BIRD61A_11C_V33_GPRS_MMI/Tools/MinGW/include/c++/3.3.1/bits/stl_list.h ****      *  @brief  Builds a %list from a range.
 491:h:/6261A/11CW1352MP_BIRD61A_11C_V33_GPRS_MMI/Tools/MinGW/include/c++/3.3.1/bits/stl_list.h ****      *  @param  first  An input iterator.
 492:h:/6261A/11CW1352MP_BIRD61A_11C_V33_GPRS_MMI/Tools/MinGW/include/c++/3.3.1/bits/stl_list.h ****      *  @param  last  An input iterator.
 493:h:/6261A/11CW1352MP_BIRD61A_11C_V33_GPRS_MMI/Tools/MinGW/include/c++/3.3.1/bits/stl_list.h ****      * 
 494:h:/6261A/11CW1352MP_BIRD61A_11C_V33_GPRS_MMI/Tools/MinGW/include/c++/3.3.1/bits/stl_list.h ****      *  Create a %list consisting of copies of the elements from [first,last).
 495:h:/6261A/11CW1352MP_BIRD61A_11C_V33_GPRS_MMI/Tools/MinGW/include/c++/3.3.1/bits/stl_list.h ****      *  This is linear in N (where N is distance(first,last)).
 496:h:/6261A/11CW1352MP_BIRD61A_11C_V33_GPRS_MMI/Tools/MinGW/include/c++/3.3.1/bits/stl_list.h ****      *
 497:h:/6261A/11CW1352MP_BIRD61A_11C_V33_GPRS_MMI/Tools/MinGW/include/c++/3.3.1/bits/stl_list.h ****      *  @if maint
 498:h:/6261A/11CW1352MP_BIRD61A_11C_V33_GPRS_MMI/Tools/MinGW/include/c++/3.3.1/bits/stl_list.h ****      *  We don't need any dispatching tricks here, because insert does all of
 499:h:/6261A/11CW1352MP_BIRD61A_11C_V33_GPRS_MMI/Tools/MinGW/include/c++/3.3.1/bits/stl_list.h ****      *  that anyway.
 500:h:/6261A/11CW1352MP_BIRD61A_11C_V33_GPRS_MMI/Tools/MinGW/include/c++/3.3.1/bits/stl_list.h ****      *  @endif
 501:h:/6261A/11CW1352MP_BIRD61A_11C_V33_GPRS_MMI/Tools/MinGW/include/c++/3.3.1/bits/stl_list.h ****     */
 502:h:/6261A/11CW1352MP_BIRD61A_11C_V33_GPRS_MMI/Tools/MinGW/include/c++/3.3.1/bits/stl_list.h ****     template<typename _InputIterator>
 503:h:/6261A/11CW1352MP_BIRD61A_11C_V33_GPRS_MMI/Tools/MinGW/include/c++/3.3.1/bits/stl_list.h ****       list(_InputIterator __first, _InputIterator __last,
 504:h:/6261A/11CW1352MP_BIRD61A_11C_V33_GPRS_MMI/Tools/MinGW/include/c++/3.3.1/bits/stl_list.h ****            const allocator_type& __a = allocator_type())
 505:h:/6261A/11CW1352MP_BIRD61A_11C_V33_GPRS_MMI/Tools/MinGW/include/c++/3.3.1/bits/stl_list.h ****       : _Base(__a)
 506:h:/6261A/11CW1352MP_BIRD61A_11C_V33_GPRS_MMI/Tools/MinGW/include/c++/3.3.1/bits/stl_list.h ****       { this->insert(begin(), __first, __last); }
 507:h:/6261A/11CW1352MP_BIRD61A_11C_V33_GPRS_MMI/Tools/MinGW/include/c++/3.3.1/bits/stl_list.h ****   
 508:h:/6261A/11CW1352MP_BIRD61A_11C_V33_GPRS_MMI/Tools/MinGW/include/c++/3.3.1/bits/stl_list.h ****     /**
 509:h:/6261A/11CW1352MP_BIRD61A_11C_V33_GPRS_MMI/Tools/MinGW/include/c++/3.3.1/bits/stl_list.h ****      *  The dtor only erases the elements, and note that if the elements
 510:h:/6261A/11CW1352MP_BIRD61A_11C_V33_GPRS_MMI/Tools/MinGW/include/c++/3.3.1/bits/stl_list.h ****      *  themselves are pointers, the pointed-to memory is not touched in any
 511:h:/6261A/11CW1352MP_BIRD61A_11C_V33_GPRS_MMI/Tools/MinGW/include/c++/3.3.1/bits/stl_list.h ****      *  way.  Managing the pointer is the user's responsibilty.
 512:h:/6261A/11CW1352MP_BIRD61A_11C_V33_GPRS_MMI/Tools/MinGW/include/c++/3.3.1/bits/stl_list.h ****     */
 513:h:/6261A/11CW1352MP_BIRD61A_11C_V33_GPRS_MMI/Tools/MinGW/include/c++/3.3.1/bits/stl_list.h ****     ~list() { }
 4584              	LM19:
 4585              	L45:
 4586 0000 55       		pushl	%ebp
 4587 0001 89E5     		movl	%esp, %ebp
 4588 0003 83EC08   		subl	$8, %esp
 4590              	LM20:
 4591              	LBB4:
 4592 0006 8B4508   		movl	8(%ebp), %eax
 4593 0009 890424   		movl	%eax, (%esp)
 4594 000c E8000000 		call	__ZNSt10_List_baseIN10ThreadPool7JobDataESaIS1_EED2Ev
 4594      00
 4595 0011 C9       		leave
 4596 0012 C3       		ret
 4597              	L43:
 4598              	LBE4:
GAS LISTING h:/6261A/11CW1352MP_BIRD61A_11C_V33_GPRS_MMI/plutommi/Customer/ResGenerator/gcctmp/ccEHcaaa.s 			page 19


 4599              	Lscope2:
 4601 0013 90       		.text
 4602              		.align 2
 4605              	.globl __ZN10ThreadPoolD2Ev
 4607              	__ZN10ThreadPoolD2Ev:
 4609              	Ltext2:
  27:../../MMI/Resource/ThreadPool.cpp **** 
  28:../../MMI/Resource/ThreadPool.cpp **** ThreadPool::~ThreadPool()
  29:../../MMI/Resource/ThreadPool.cpp **** {
 4611              	LM21:
 4612 0470 55       		pushl	%ebp
 4613 0471 89E5     		movl	%esp, %ebp
 4614 0473 57       		pushl	%edi
 4615 0474 56       		pushl	%esi
 4616 0475 53       		pushl	%ebx
 4617 0476 83EC4C   		subl	$76, %esp
 4618 0479 C745E000 		movl	$___gxx_personality_sj0, -32(%ebp)
 4618      000000
 4619 0480 C745E414 		movl	$LLSDA665, -28(%ebp)
 4619      000000
 4620 0487 8D45E8   		leal	-24(%ebp), %eax
 4621 048a 8D55F4   		leal	-12(%ebp), %edx
 4622 048d 8910     		movl	%edx, (%eax)
 4623 048f BAD30400 		movl	$L60, %edx
 4623      00
 4624 0494 895004   		movl	%edx, 4(%eax)
 4625 0497 896008   		movl	%esp, 8(%eax)
 4626 049a 8D45C8   		leal	-56(%ebp), %eax
 4627 049d 890424   		movl	%eax, (%esp)
 4628 04a0 E8000000 		call	__Unwind_SjLj_Register
 4628      00
 4630              	LM22:
 4631              	LBB5:
 4632 04a5 8B4508   		movl	8(%ebp), %eax
 4633 04a8 C7000800 		movl	$__ZTV10ThreadPool+8, (%eax)
 4633      0000
  30:../../MMI/Resource/ThreadPool.cpp ****     Destroy();
 4635              	LM23:
 4636 04ae 8B4508   		movl	8(%ebp), %eax
 4637 04b1 890424   		movl	%eax, (%esp)
 4638 04b4 C745CC01 		movl	$1, -52(%ebp)
 4638      000000
 4639 04bb E88C0600 		call	__ZN10ThreadPool7DestroyEv
 4639      00
  31:../../MMI/Resource/ThreadPool.cpp ****     DeleteCriticalSection(&m_cs);
 4641              	LM24:
 4642 04c0 8B4508   		movl	8(%ebp), %eax
 4643 04c3 83C01C   		addl	$28, %eax
 4644 04c6 890424   		movl	%eax, (%esp)
 4645 04c9 E8000000 		call	_DeleteCriticalSection@4
 4645      00
 4646 04ce 83EC04   		subl	$4, %esp
 4647 04d1 EB34     		jmp	L51
 4648              	L60:
 4649 04d3 8D6D0C   		leal	12(%ebp), %ebp
 4650 04d6 8B45CC   		movl	-52(%ebp), %eax
 4651 04d9 8B55D0   		movl	-48(%ebp), %edx
GAS LISTING h:/6261A/11CW1352MP_BIRD61A_11C_V33_GPRS_MMI/plutommi/Customer/ResGenerator/gcctmp/ccEHcaaa.s 			page 20


 4652 04dc 8955C0   		movl	%edx, -64(%ebp)
 4653 04df 83F801   		cmpl	$1, %eax
 4654 04e2 743A     		je	L54
 4655              	L50:
 4656 04e4 8B45C0   		movl	-64(%ebp), %eax
 4657 04e7 8945C4   		movl	%eax, -60(%ebp)
 4658 04ea 8B4508   		movl	8(%ebp), %eax
 4659 04ed 83C008   		addl	$8, %eax
 4660 04f0 890424   		movl	%eax, (%esp)
 4661 04f3 C745CC00 		movl	$0, -52(%ebp)
 4661      000000
 4662 04fa E8000000 		call	__ZNSt6vectorIN10ThreadPool10ThreadDataESaIS1_EED1Ev
 4662      00
 4663 04ff 8B55C4   		movl	-60(%ebp), %edx
 4664 0502 8955C0   		movl	%edx, -64(%ebp)
 4665              	L52:
 4666 0505 EB17     		jmp	L54
 4667              	L51:
 4668 0507 8B4508   		movl	8(%ebp), %eax
 4669 050a 83C008   		addl	$8, %eax
 4670 050d 890424   		movl	%eax, (%esp)
 4671 0510 C745CC02 		movl	$2, -52(%ebp)
 4671      000000
 4672 0517 E8000000 		call	__ZNSt6vectorIN10ThreadPool10ThreadDataESaIS1_EED1Ev
 4672      00
 4673 051c EB33     		jmp	L55
 4674              	L54:
 4675 051e 8B45C0   		movl	-64(%ebp), %eax
 4676 0521 8945BC   		movl	%eax, -68(%ebp)
 4677 0524 8B4508   		movl	8(%ebp), %eax
 4678 0527 83C004   		addl	$4, %eax
 4679 052a 890424   		movl	%eax, (%esp)
 4680 052d C745CC00 		movl	$0, -52(%ebp)
 4680      000000
 4681 0534 E8000000 		call	__ZNSt4listIN10ThreadPool7JobDataESaIS1_EED1Ev
 4681      00
 4682 0539 8B55BC   		movl	-68(%ebp), %edx
 4683 053c 8955C0   		movl	%edx, -64(%ebp)
 4684              	L56:
 4685 053f 8B45C0   		movl	-64(%ebp), %eax
 4686 0542 890424   		movl	%eax, (%esp)
 4687 0545 C745CCFF 		movl	$-1, -52(%ebp)
 4687      FFFFFF
 4688 054c E8000000 		call	__Unwind_SjLj_Resume
 4688      00
 4689              	L55:
 4690 0551 8B4508   		movl	8(%ebp), %eax
 4691 0554 83C004   		addl	$4, %eax
 4692 0557 890424   		movl	%eax, (%esp)
 4693 055a C745CCFF 		movl	$-1, -52(%ebp)
 4693      FFFFFF
 4694 0561 E8000000 		call	__ZNSt4listIN10ThreadPool7JobDataESaIS1_EED1Ev
 4694      00
  32:../../MMI/Resource/ThreadPool.cpp **** }
 4696              	LM25:
 4697              	LBE5:
 4698 0566 B8010000 		movl	$1, %eax
GAS LISTING h:/6261A/11CW1352MP_BIRD61A_11C_V33_GPRS_MMI/plutommi/Customer/ResGenerator/gcctmp/ccEHcaaa.s 			page 21


 4698      00
 4699 056b 83E000   		andl	$0, %eax
 4700 056e 84C0     		testb	%al, %al
 4701 0570 740B     		je	L48
 4702 0572 8B4508   		movl	8(%ebp), %eax
 4703 0575 890424   		movl	%eax, (%esp)
 4704 0578 E8000000 		call	__ZdlPv
 4704      00
 4705              	L48:
 4706 057d 8D45C8   		leal	-56(%ebp), %eax
 4707 0580 890424   		movl	%eax, (%esp)
 4708 0583 E8000000 		call	__Unwind_SjLj_Unregister
 4708      00
 4709 0588 8D65F4   		leal	-12(%ebp), %esp
 4710 058b 5B       		popl	%ebx
 4711 058c 5E       		popl	%esi
 4712 058d 5F       		popl	%edi
 4713 058e 5D       		popl	%ebp
 4714 058f C3       		ret
 4715              		.section	.gcc_except_table,""
 4716              	LLSDA665:
 4717 0014 FF       		.byte	0xff
 4718 0015 FF       		.byte	0xff
 4719 0016 01       		.byte	0x1
 4720 0017 04       		.uleb128 LLSDACSE665-LLSDACSB665
 4721              	LLSDACSB665:
 4722 0018 00       		.uleb128 0x0
 4723 0019 00       		.uleb128 0x0
 4724 001a 01       		.uleb128 0x1
 4725 001b 00       		.uleb128 0x0
 4726              	LLSDACSE665:
 4727              		.text
 4728              	Lscope3:
 4730              		.align 2
 4733              	.globl __ZN10ThreadPoolD1Ev
 4735              	__ZN10ThreadPoolD1Ev:
 4737              	LM26:
 4738 0590 55       		pushl	%ebp
 4739 0591 89E5     		movl	%esp, %ebp
 4740 0593 57       		pushl	%edi
 4741 0594 56       		pushl	%esi
 4742 0595 53       		pushl	%ebx
 4743 0596 83EC4C   		subl	$76, %esp
 4744 0599 C745E000 		movl	$___gxx_personality_sj0, -32(%ebp)
 4744      000000
 4745 05a0 C745E41C 		movl	$LLSDA667, -28(%ebp)
 4745      000000
 4746 05a7 8D45E8   		leal	-24(%ebp), %eax
 4747 05aa 8D55F4   		leal	-12(%ebp), %edx
 4748 05ad 8910     		movl	%edx, (%eax)
 4749 05af BAF30500 		movl	$L73, %edx
 4749      00
 4750 05b4 895004   		movl	%edx, 4(%eax)
 4751 05b7 896008   		movl	%esp, 8(%eax)
 4752 05ba 8D45C8   		leal	-56(%ebp), %eax
 4753 05bd 890424   		movl	%eax, (%esp)
 4754 05c0 E8000000 		call	__Unwind_SjLj_Register
GAS LISTING h:/6261A/11CW1352MP_BIRD61A_11C_V33_GPRS_MMI/plutommi/Customer/ResGenerator/gcctmp/ccEHcaaa.s 			page 22


 4754      00
 4756              	LM27:
 4757              	LBB6:
 4758 05c5 8B4508   		movl	8(%ebp), %eax
 4759 05c8 C7000800 		movl	$__ZTV10ThreadPool+8, (%eax)
 4759      0000
 4761              	LM28:
 4762 05ce 8B4508   		movl	8(%ebp), %eax
 4763 05d1 890424   		movl	%eax, (%esp)
 4764 05d4 C745CC01 		movl	$1, -52(%ebp)
 4764      000000
 4765 05db E86C0500 		call	__ZN10ThreadPool7DestroyEv
 4765      00
 4767              	LM29:
 4768 05e0 8B4508   		movl	8(%ebp), %eax
 4769 05e3 83C01C   		addl	$28, %eax
 4770 05e6 890424   		movl	%eax, (%esp)
 4771 05e9 E8000000 		call	_DeleteCriticalSection@4
 4771      00
 4772 05ee 83EC04   		subl	$4, %esp
 4773 05f1 EB34     		jmp	L64
 4774              	L73:
 4775 05f3 8D6D0C   		leal	12(%ebp), %ebp
 4776 05f6 8B45CC   		movl	-52(%ebp), %eax
 4777 05f9 8B55D0   		movl	-48(%ebp), %edx
 4778 05fc 8955C0   		movl	%edx, -64(%ebp)
 4779 05ff 83F801   		cmpl	$1, %eax
 4780 0602 743A     		je	L67
 4781              	L63:
 4782 0604 8B45C0   		movl	-64(%ebp), %eax
 4783 0607 8945C4   		movl	%eax, -60(%ebp)
 4784 060a 8B4508   		movl	8(%ebp), %eax
 4785 060d 83C008   		addl	$8, %eax
 4786 0610 890424   		movl	%eax, (%esp)
 4787 0613 C745CC00 		movl	$0, -52(%ebp)
 4787      000000
 4788 061a E8000000 		call	__ZNSt6vectorIN10ThreadPool10ThreadDataESaIS1_EED1Ev
 4788      00
 4789 061f 8B55C4   		movl	-60(%ebp), %edx
 4790 0622 8955C0   		movl	%edx, -64(%ebp)
 4791              	L65:
 4792 0625 EB17     		jmp	L67
 4793              	L64:
 4794 0627 8B4508   		movl	8(%ebp), %eax
 4795 062a 83C008   		addl	$8, %eax
 4796 062d 890424   		movl	%eax, (%esp)
 4797 0630 C745CC02 		movl	$2, -52(%ebp)
 4797      000000
 4798 0637 E8000000 		call	__ZNSt6vectorIN10ThreadPool10ThreadDataESaIS1_EED1Ev
 4798      00
 4799 063c EB33     		jmp	L68
 4800              	L67:
 4801 063e 8B45C0   		movl	-64(%ebp), %eax
 4802 0641 8945BC   		movl	%eax, -68(%ebp)
 4803 0644 8B4508   		movl	8(%ebp), %eax
 4804 0647 83C004   		addl	$4, %eax
 4805 064a 890424   		movl	%eax, (%esp)
GAS LISTING h:/6261A/11CW1352MP_BIRD61A_11C_V33_GPRS_MMI/plutommi/Customer/ResGenerator/gcctmp/ccEHcaaa.s 			page 23


 4806 064d C745CC00 		movl	$0, -52(%ebp)
 4806      000000
 4807 0654 E8000000 		call	__ZNSt4listIN10ThreadPool7JobDataESaIS1_EED1Ev
 4807      00
 4808 0659 8B55BC   		movl	-68(%ebp), %edx
 4809 065c 8955C0   		movl	%edx, -64(%ebp)
 4810              	L69:
 4811 065f 8B45C0   		movl	-64(%ebp), %eax
 4812 0662 890424   		movl	%eax, (%esp)
 4813 0665 C745CCFF 		movl	$-1, -52(%ebp)
 4813      FFFFFF
 4814 066c E8000000 		call	__Unwind_SjLj_Resume
 4814      00
 4815              	L68:
 4816 0671 8B4508   		movl	8(%ebp), %eax
 4817 0674 83C004   		addl	$4, %eax
 4818 0677 890424   		movl	%eax, (%esp)
 4819 067a C745CCFF 		movl	$-1, -52(%ebp)
 4819      FFFFFF
 4820 0681 E8000000 		call	__ZNSt4listIN10ThreadPool7JobDataESaIS1_EED1Ev
 4820      00
 4822              	LM30:
 4823              	LBE6:
 4824 0686 B8010000 		movl	$1, %eax
 4824      00
 4825 068b 83E002   		andl	$2, %eax
 4826 068e 84C0     		testb	%al, %al
 4827 0690 740B     		je	L61
 4828 0692 8B4508   		movl	8(%ebp), %eax
 4829 0695 890424   		movl	%eax, (%esp)
 4830 0698 E8000000 		call	__ZdlPv
 4830      00
 4831              	L61:
 4832 069d 8D45C8   		leal	-56(%ebp), %eax
 4833 06a0 890424   		movl	%eax, (%esp)
 4834 06a3 E8000000 		call	__Unwind_SjLj_Unregister
 4834      00
 4835 06a8 8D65F4   		leal	-12(%ebp), %esp
 4836 06ab 5B       		popl	%ebx
 4837 06ac 5E       		popl	%esi
 4838 06ad 5F       		popl	%edi
 4839 06ae 5D       		popl	%ebp
 4840 06af C3       		ret
 4841              		.section	.gcc_except_table,""
 4842              	LLSDA667:
 4843 001c FF       		.byte	0xff
 4844 001d FF       		.byte	0xff
 4845 001e 01       		.byte	0x1
 4846 001f 04       		.uleb128 LLSDACSE667-LLSDACSB667
 4847              	LLSDACSB667:
 4848 0020 00       		.uleb128 0x0
 4849 0021 00       		.uleb128 0x0
 4850 0022 01       		.uleb128 0x1
 4851 0023 00       		.uleb128 0x0
 4852              	LLSDACSE667:
 4853              		.text
 4854              	Lscope4:
GAS LISTING h:/6261A/11CW1352MP_BIRD61A_11C_V33_GPRS_MMI/plutommi/Customer/ResGenerator/gcctmp/ccEHcaaa.s 			page 24


 4856              		.align 2
 4859              	.globl __ZN10ThreadPoolD0Ev
 4861              	__ZN10ThreadPoolD0Ev:
 4863              	LM31:
 4864 06b0 55       		pushl	%ebp
 4865 06b1 89E5     		movl	%esp, %ebp
 4866 06b3 57       		pushl	%edi
 4867 06b4 56       		pushl	%esi
 4868 06b5 53       		pushl	%ebx
 4869 06b6 83EC4C   		subl	$76, %esp
 4870 06b9 C745E000 		movl	$___gxx_personality_sj0, -32(%ebp)
 4870      000000
 4871 06c0 C745E424 		movl	$LLSDA669, -28(%ebp)
 4871      000000
 4872 06c7 8D45E8   		leal	-24(%ebp), %eax
 4873 06ca 8D55F4   		leal	-12(%ebp), %edx
 4874 06cd 8910     		movl	%edx, (%eax)
 4875 06cf BA130700 		movl	$L86, %edx
 4875      00
 4876 06d4 895004   		movl	%edx, 4(%eax)
 4877 06d7 896008   		movl	%esp, 8(%eax)
 4878 06da 8D45C8   		leal	-56(%ebp), %eax
 4879 06dd 890424   		movl	%eax, (%esp)
 4880 06e0 E8000000 		call	__Unwind_SjLj_Register
 4880      00
 4882              	LM32:
 4883              	LBB7:
 4884 06e5 8B4508   		movl	8(%ebp), %eax
 4885 06e8 C7000800 		movl	$__ZTV10ThreadPool+8, (%eax)
 4885      0000
 4887              	LM33:
 4888 06ee 8B4508   		movl	8(%ebp), %eax
 4889 06f1 890424   		movl	%eax, (%esp)
 4890 06f4 C745CC01 		movl	$1, -52(%ebp)
 4890      000000
 4891 06fb E84C0400 		call	__ZN10ThreadPool7DestroyEv
 4891      00
 4893              	LM34:
 4894 0700 8B4508   		movl	8(%ebp), %eax
 4895 0703 83C01C   		addl	$28, %eax
 4896 0706 890424   		movl	%eax, (%esp)
 4897 0709 E8000000 		call	_DeleteCriticalSection@4
 4897      00
 4898 070e 83EC04   		subl	$4, %esp
 4899 0711 EB34     		jmp	L77
 4900              	L86:
 4901 0713 8D6D0C   		leal	12(%ebp), %ebp
 4902 0716 8B45CC   		movl	-52(%ebp), %eax
 4903 0719 8B55D0   		movl	-48(%ebp), %edx
 4904 071c 8955C0   		movl	%edx, -64(%ebp)
 4905 071f 83F801   		cmpl	$1, %eax
 4906 0722 743A     		je	L80
 4907              	L76:
 4908 0724 8B45C0   		movl	-64(%ebp), %eax
 4909 0727 8945C4   		movl	%eax, -60(%ebp)
 4910 072a 8B4508   		movl	8(%ebp), %eax
 4911 072d 83C008   		addl	$8, %eax
GAS LISTING h:/6261A/11CW1352MP_BIRD61A_11C_V33_GPRS_MMI/plutommi/Customer/ResGenerator/gcctmp/ccEHcaaa.s 			page 25


 4912 0730 890424   		movl	%eax, (%esp)
 4913 0733 C745CC00 		movl	$0, -52(%ebp)
 4913      000000
 4914 073a E8000000 		call	__ZNSt6vectorIN10ThreadPool10ThreadDataESaIS1_EED1Ev
 4914      00
 4915 073f 8B55C4   		movl	-60(%ebp), %edx
 4916 0742 8955C0   		movl	%edx, -64(%ebp)
 4917              	L78:
 4918 0745 EB17     		jmp	L80
 4919              	L77:
 4920 0747 8B4508   		movl	8(%ebp), %eax
 4921 074a 83C008   		addl	$8, %eax
 4922 074d 890424   		movl	%eax, (%esp)
 4923 0750 C745CC02 		movl	$2, -52(%ebp)
 4923      000000
 4924 0757 E8000000 		call	__ZNSt6vectorIN10ThreadPool10ThreadDataESaIS1_EED1Ev
 4924      00
 4925 075c EB33     		jmp	L81
 4926              	L80:
 4927 075e 8B45C0   		movl	-64(%ebp), %eax
 4928 0761 8945BC   		movl	%eax, -68(%ebp)
 4929 0764 8B4508   		movl	8(%ebp), %eax
 4930 0767 83C004   		addl	$4, %eax
 4931 076a 890424   		movl	%eax, (%esp)
 4932 076d C745CC00 		movl	$0, -52(%ebp)
 4932      000000
 4933 0774 E8000000 		call	__ZNSt4listIN10ThreadPool7JobDataESaIS1_EED1Ev
 4933      00
 4934 0779 8B55BC   		movl	-68(%ebp), %edx
 4935 077c 8955C0   		movl	%edx, -64(%ebp)
 4936              	L82:
 4937 077f 8B45C0   		movl	-64(%ebp), %eax
 4938 0782 890424   		movl	%eax, (%esp)
 4939 0785 C745CCFF 		movl	$-1, -52(%ebp)
 4939      FFFFFF
 4940 078c E8000000 		call	__Unwind_SjLj_Resume
 4940      00
 4941              	L81:
 4942 0791 8B4508   		movl	8(%ebp), %eax
 4943 0794 83C004   		addl	$4, %eax
 4944 0797 890424   		movl	%eax, (%esp)
 4945 079a C745CCFF 		movl	$-1, -52(%ebp)
 4945      FFFFFF
 4946 07a1 E8000000 		call	__ZNSt4listIN10ThreadPool7JobDataESaIS1_EED1Ev
 4946      00
 4948              	LM35:
 4949              	LBE7:
 4950 07a6 B8010000 		movl	$1, %eax
 4950      00
 4951 07ab 83E003   		andl	$3, %eax
 4952 07ae 84C0     		testb	%al, %al
 4953 07b0 740B     		je	L74
 4954 07b2 8B4508   		movl	8(%ebp), %eax
 4955 07b5 890424   		movl	%eax, (%esp)
 4956 07b8 E8000000 		call	__ZdlPv
 4956      00
 4957              	L74:
GAS LISTING h:/6261A/11CW1352MP_BIRD61A_11C_V33_GPRS_MMI/plutommi/Customer/ResGenerator/gcctmp/ccEHcaaa.s 			page 26


 4958 07bd 8D45C8   		leal	-56(%ebp), %eax
 4959 07c0 890424   		movl	%eax, (%esp)
 4960 07c3 E8000000 		call	__Unwind_SjLj_Unregister
 4960      00
 4961 07c8 8D65F4   		leal	-12(%ebp), %esp
 4962 07cb 5B       		popl	%ebx
 4963 07cc 5E       		popl	%esi
 4964 07cd 5F       		popl	%edi
 4965 07ce 5D       		popl	%ebp
 4966 07cf C3       		ret
 4967              		.section	.gcc_except_table,""
 4968              	LLSDA669:
 4969 0024 FF       		.byte	0xff
 4970 0025 FF       		.byte	0xff
 4971 0026 01       		.byte	0x1
 4972 0027 04       		.uleb128 LLSDACSE669-LLSDACSB669
 4973              	LLSDACSB669:
 4974 0028 00       		.uleb128 0x0
 4975 0029 00       		.uleb128 0x0
 4976 002a 01       		.uleb128 0x1
 4977 002b 00       		.uleb128 0x0
 4978              	LLSDACSE669:
 4979              		.text
 4980              	Lscope5:
 4982 07d0 90909090 		.align 32
 4982      90909090 
 4982      90909090 
 4982      90909090 
 4983              	LC3:
 4984 07e0 2E2E2F2E 		.ascii "../../MMI/Resource/ThreadPool.cpp\0"
 4984      2E2F4D4D 
 4984      492F5265 
 4984      736F7572 
 4984      63652F54 
 4985              	LC4:
 4986 0802 6D5F684E 		.ascii "m_hNotifyShutdown != NULL\0"
 4986      6F746966 
 4986      79536875 
 4986      74646F77 
 4986      6E20213D 
 4987 081c 8D742600 		.align 32
 4988              	LC5:
 4989 0820 494E5641 		.ascii "INVALID_HANDLE_VALUE != hThread\0"
 4989      4C49445F 
 4989      48414E44 
 4989      4C455F56 
 4989      414C5545 
 4990              		.align 32
 4991              	LC6:
 4992 0840 54687265 		.ascii "Thread %d creation failed in ThreadPool::Create()\0"
 4992      61642025 
 4992      64206372 
 4992      65617469 
 4992      6F6E2066 
 4993              	LC7:
 4994 0872 43726561 		.ascii "Create Thread, ID = %d\0"
 4994      74652054 
GAS LISTING h:/6261A/11CW1352MP_BIRD61A_11C_V33_GPRS_MMI/plutommi/Customer/ResGenerator/gcctmp/ccEHcaaa.s 			page 27


 4994      68726561 
 4994      642C2049 
 4994      44203D20 
 4995 0889 90       		.align 2
 4999              	.globl __ZN10ThreadPool6CreateEi
 5001              	__ZN10ThreadPool6CreateEi:
  33:../../MMI/Resource/ThreadPool.cpp **** 
  34:../../MMI/Resource/ThreadPool.cpp **** bool ThreadPool::Create(int poolSize)
  35:../../MMI/Resource/ThreadPool.cpp **** {
 5003              	LM36:
 5004 088a 55       		pushl	%ebp
 5005 088b 89E5     		movl	%esp, %ebp
 5006 088d 53       		pushl	%ebx
 5007 088e 83EC54   		subl	$84, %esp
  36:../../MMI/Resource/ThreadPool.cpp ****     Destroy();
 5009              	LM37:
 5010              	LBB8:
 5011 0891 8B4508   		movl	8(%ebp), %eax
 5012 0894 890424   		movl	%eax, (%esp)
 5013 0897 E8B00200 		call	__ZN10ThreadPool7DestroyEv
 5013      00
  37:../../MMI/Resource/ThreadPool.cpp ****     if (poolSize == 0)
 5015              	LM38:
 5016 089c 837D0C00 		cmpl	$0, 12(%ebp)
 5017 08a0 750C     		jne	L88
  38:../../MMI/Resource/ThreadPool.cpp ****         return true;
 5019              	LM39:
 5020 08a2 C745D401 		movl	$1, -44(%ebp)
 5020      000000
 5021 08a9 E99A0100 		jmp	L87
 5021      00
 5022              	L88:
  39:../../MMI/Resource/ThreadPool.cpp **** 
  40:../../MMI/Resource/ThreadPool.cpp ****     // create the event which will signal the threads to stop
  41:../../MMI/Resource/ThreadPool.cpp ****     m_hNotifyShutdown = CreateEvent(NULL, TRUE, FALSE, NULL);
 5024              	LM40:
 5025 08ae 8B5D08   		movl	8(%ebp), %ebx
 5026 08b1 C744240C 		movl	$0, 12(%esp)
 5026      00000000 
 5027 08b9 C7442408 		movl	$0, 8(%esp)
 5027      00000000 
 5028 08c1 C7442404 		movl	$1, 4(%esp)
 5028      01000000 
 5029 08c9 C7042400 		movl	$0, (%esp)
 5029      000000
 5030 08d0 E8000000 		call	_CreateEventA@16
 5030      00
 5031 08d5 83EC10   		subl	$16, %esp
 5032 08d8 894318   		movl	%eax, 24(%ebx)
  42:../../MMI/Resource/ThreadPool.cpp ****     assert(m_hNotifyShutdown != NULL);
 5034              	LM41:
 5035 08db 8B4508   		movl	8(%ebp), %eax
 5036 08de 83781800 		cmpl	$0, 24(%eax)
 5037 08e2 751C     		jne	L90
 5038 08e4 C7442408 		movl	$42, 8(%esp)
 5038      2A000000 
 5039 08ec C7442404 		movl	$LC3, 4(%esp)
GAS LISTING h:/6261A/11CW1352MP_BIRD61A_11C_V33_GPRS_MMI/plutommi/Customer/ResGenerator/gcctmp/ccEHcaaa.s 			page 28


 5039      E0070000 
 5040 08f4 C7042402 		movl	$LC4, (%esp)
 5040      080000
 5041 08fb E8000000 		call	__assert
 5041      00
 5042              	L90:
  43:../../MMI/Resource/ThreadPool.cpp ****     if (m_hNotifyShutdown == NULL)
 5044              	LM42:
 5045 0900 8B4508   		movl	8(%ebp), %eax
 5046 0903 83781800 		cmpl	$0, 24(%eax)
 5047 0907 750C     		jne	L91
  44:../../MMI/Resource/ThreadPool.cpp ****         return false;
 5049              	LM43:
 5050 0909 C745D400 		movl	$0, -44(%ebp)
 5050      000000
 5051 0910 E9330100 		jmp	L87
 5051      00
 5052              	L91:
  45:../../MMI/Resource/ThreadPool.cpp **** 
  46:../../MMI/Resource/ThreadPool.cpp ****     // create the threads
  47:../../MMI/Resource/ThreadPool.cpp ****     for (int nIndex = 0; nIndex < poolSize; ++nIndex)
 5054              	LM44:
 5055              	LBB9:
 5056 0915 C745F400 		movl	$0, -12(%ebp)
 5056      000000
 5057              	L92:
 5058 091c 8B45F4   		movl	-12(%ebp), %eax
 5059 091f 3B450C   		cmpl	12(%ebp), %eax
 5060 0922 7C05     		jl	L95
 5061 0924 E9180100 		jmp	L93
 5061      00
 5062              	L95:
  48:../../MMI/Resource/ThreadPool.cpp ****     {
  49:../../MMI/Resource/ThreadPool.cpp ****         UINT uThreadId;
 5064              	LM45:
  50:../../MMI/Resource/ThreadPool.cpp ****         HANDLE hThread = (HANDLE)_beginthreadex(
 5066              	LM46:
 5067              	LBB10:
 5068              	LBB11:
 5069 0929 8D45F0   		leal	-16(%ebp), %eax
 5070 092c 89442414 		movl	%eax, 20(%esp)
 5071 0930 C7442410 		movl	$4, 16(%esp)
 5071      04000000 
 5072 0938 8B4508   		movl	8(%ebp), %eax
 5073 093b 8944240C 		movl	%eax, 12(%esp)
 5074 093f C7442408 		movl	$__ZN10ThreadPool10ThreadProcEPv@4, 8(%esp)
 5074      C0100000 
 5075 0947 C7442404 		movl	$0, 4(%esp)
 5075      00000000 
 5076 094f C7042400 		movl	$0, (%esp)
 5076      000000
 5077 0956 E8000000 		call	__beginthreadex
 5077      00
 5078 095b 8945EC   		movl	%eax, -20(%ebp)
  51:../../MMI/Resource/ThreadPool.cpp ****             NULL, 0, ThreadPool::ThreadProc, this,
  52:../../MMI/Resource/ThreadPool.cpp ****             CREATE_SUSPENDED, (UINT*)&uThreadId);
  53:../../MMI/Resource/ThreadPool.cpp ****         DWORD dwThreadId = uThreadId;
GAS LISTING h:/6261A/11CW1352MP_BIRD61A_11C_V33_GPRS_MMI/plutommi/Customer/ResGenerator/gcctmp/ccEHcaaa.s 			page 29


 5080              	LM47:
 5081 095e 8B45F0   		movl	-16(%ebp), %eax
 5082 0961 8945E8   		movl	%eax, -24(%ebp)
  54:../../MMI/Resource/ThreadPool.cpp ****         assert(INVALID_HANDLE_VALUE != hThread);
 5084              	LM48:
 5085 0964 837DECFF 		cmpl	$-1, -20(%ebp)
 5086 0968 751C     		jne	L97
 5087 096a C7442408 		movl	$54, 8(%esp)
 5087      36000000 
 5088 0972 C7442404 		movl	$LC3, 4(%esp)
 5088      E0070000 
 5089 097a C7042420 		movl	$LC5, (%esp)
 5089      080000
 5090 0981 E8000000 		call	__assert
 5090      00
 5091              	L97:
  55:../../MMI/Resource/ThreadPool.cpp **** 
  56:../../MMI/Resource/ThreadPool.cpp ****         if (hThread == INVALID_HANDLE_VALUE){
 5093              	LM49:
 5094 0986 837DECFF 		cmpl	$-1, -20(%ebp)
 5095 098a 752F     		jne	L98
  57:../../MMI/Resource/ThreadPool.cpp ****             THREADP_LOG_E("Thread %d creation failed in ThreadPool::Create()", nIndex);
 5097              	LM50:
 5098 098c 8B45F4   		movl	-12(%ebp), %eax
 5099 098f 8944240C 		movl	%eax, 12(%esp)
 5100 0993 C7442408 		movl	$LC6, 8(%esp)
 5100      40080000 
 5101 099b C7442404 		movl	$LC1, 4(%esp)
 5101      34000000 
 5102 09a3 C7042403 		movl	$3, (%esp)
 5102      000000
 5103 09aa E8000000 		call	_reslog_adaptor_log
 5103      00
  58:../../MMI/Resource/ThreadPool.cpp ****             return false;
 5105              	LM51:
 5106 09af C745D400 		movl	$0, -44(%ebp)
 5106      000000
 5107 09b6 E98D0000 		jmp	L87
 5107      00
 5108              	L98:
  59:../../MMI/Resource/ThreadPool.cpp ****         }
  60:../../MMI/Resource/ThreadPool.cpp **** 
  61:../../MMI/Resource/ThreadPool.cpp ****         // add the entry to the thread list
  62:../../MMI/Resource/ThreadPool.cpp ****         ThreadData td;
  63:../../MMI/Resource/ThreadPool.cpp ****         td.hWait = CreateEvent(NULL, TRUE, FALSE, NULL);
 5110              	LM52:
 5111 09bb C744240C 		movl	$0, 12(%esp)
 5111      00000000 
 5112 09c3 C7442408 		movl	$0, 8(%esp)
 5112      00000000 
 5113 09cb C7442404 		movl	$1, 4(%esp)
 5113      01000000 
 5114 09d3 C7042400 		movl	$0, (%esp)
 5114      000000
 5115 09da E8000000 		call	_CreateEventA@16
 5115      00
 5116 09df 83EC10   		subl	$16, %esp
GAS LISTING h:/6261A/11CW1352MP_BIRD61A_11C_V33_GPRS_MMI/plutommi/Customer/ResGenerator/gcctmp/ccEHcaaa.s 			page 30


 5117 09e2 8945D8   		movl	%eax, -40(%ebp)
  64:../../MMI/Resource/ThreadPool.cpp ****         td.hThread = hThread;
 5119              	LM53:
 5120 09e5 8B45EC   		movl	-20(%ebp), %eax
 5121 09e8 8945DC   		movl	%eax, -36(%ebp)
  65:../../MMI/Resource/ThreadPool.cpp ****         td.dwThreadId = dwThreadId;
 5123              	LM54:
 5124 09eb 8B45E8   		movl	-24(%ebp), %eax
 5125 09ee 8945E0   		movl	%eax, -32(%ebp)
  66:../../MMI/Resource/ThreadPool.cpp ****         THREADP_LOG_V("Create Thread, ID = %d", td.dwThreadId);
 5127              	LM55:
 5128 09f1 8B45E0   		movl	-32(%ebp), %eax
 5129 09f4 8944240C 		movl	%eax, 12(%esp)
 5130 09f8 C7442408 		movl	$LC7, 8(%esp)
 5130      72080000 
 5131 0a00 C7442404 		movl	$LC1, 4(%esp)
 5131      34000000 
 5132 0a08 C7042401 		movl	$1, (%esp)
 5132      000000
 5133 0a0f E8000000 		call	_reslog_adaptor_log
 5133      00
  67:../../MMI/Resource/ThreadPool.cpp ****         m_threads.push_back(td);
 5135              	LM56:
 5136 0a14 8D45D8   		leal	-40(%ebp), %eax
 5137 0a17 89442404 		movl	%eax, 4(%esp)
 5138 0a1b 8B4508   		movl	8(%ebp), %eax
 5139 0a1e 83C008   		addl	$8, %eax
 5140 0a21 890424   		movl	%eax, (%esp)
 5141 0a24 E8000000 		call	__ZNSt6vectorIN10ThreadPool10ThreadDataESaIS1_EE9push_backERKS1_
 5141      00
  68:../../MMI/Resource/ThreadPool.cpp ****         ResumeThread(hThread);
 5143              	LM57:
 5144 0a29 8B45EC   		movl	-20(%ebp), %eax
 5145 0a2c 890424   		movl	%eax, (%esp)
 5146 0a2f E8000000 		call	_ResumeThread@4
 5146      00
 5147 0a34 83EC04   		subl	$4, %esp
 5149              	LM58:
 5150 0a37 8D45F4   		leal	-12(%ebp), %eax
 5151              	LBE11:
 5152              	LBE10:
 5153 0a3a FF00     		incl	(%eax)
 5154 0a3c E9DBFEFF 		jmp	L92
 5154      FF
 5155              	L93:
  69:../../MMI/Resource/ThreadPool.cpp ****     }
  70:../../MMI/Resource/ThreadPool.cpp ****     return true;
 5157              	LM59:
 5158              	LBE9:
 5159 0a41 C745D401 		movl	$1, -44(%ebp)
 5159      000000
  71:../../MMI/Resource/ThreadPool.cpp **** }
 5161              	LM60:
 5162              	L87:
 5163              	LBE8:
 5164 0a48 8B45D4   		movl	-44(%ebp), %eax
 5165 0a4b 8B5DFC   		movl	-4(%ebp), %ebx
GAS LISTING h:/6261A/11CW1352MP_BIRD61A_11C_V33_GPRS_MMI/plutommi/Customer/ResGenerator/gcctmp/ccEHcaaa.s 			page 31


 5166 0a4e C9       		leave
 5167 0a4f C3       		ret
 5177              	Lscope6:
 5183 0a50 90909090 		.align 32
 5183      90909090 
 5183      90909090 
 5183      90909090 
 5184              	LC8:
 5185 0a60 436C6F73 		.ascii "Close hWait handle: 0x%x, thread ID = %d\0"
 5185      65206857 
 5185      61697420 
 5185      68616E64 
 5185      6C653A20 
 5186 0a89 90909090 		.align 32
 5186      90909090 
 5186      90909090 
 5186      90909090 
 5186      90909090 
 5187              	LC9:
 5188 0aa0 43616E6E 		.ascii "Cannnot close hWait handle, error = 0x%x\0"
 5188      6E6F7420 
 5188      636C6F73 
 5188      65206857 
 5188      61697420 
 5189 0ac9 90909090 		.align 32
 5189      90909090 
 5189      90909090 
 5189      90909090 
 5189      90909090 
 5190              	LC10:
 5191 0ae0 436C6F73 		.ascii "Close hThread handle: 0x%x, thread ID = %d\0"
 5191      65206854 
 5191      68726561 
 5191      64206861 
 5191      6E646C65 
 5192 0b0b 90909090 		.align 32
 5192      90909090 
 5192      90909090 
 5192      90909090 
 5192      90909090 
 5193              	LC11:
 5194 0b20 43616E6E 		.ascii "Cannnot close hThread handle, error = 0x%x\0"
 5194      6E6F7420 
 5194      636C6F73 
 5194      65206854 
 5194      68726561 
 5195 0b4b 90       		.align 2
 5198              	.globl __ZN10ThreadPool7DestroyEv
 5200              	__ZN10ThreadPool7DestroyEv:
  72:../../MMI/Resource/ThreadPool.cpp **** 
  73:../../MMI/Resource/ThreadPool.cpp **** void ThreadPool::Destroy()
  74:../../MMI/Resource/ThreadPool.cpp **** {
 5202              	LM61:
 5203 0b4c 55       		pushl	%ebp
 5204 0b4d 89E5     		movl	%esp, %ebp
 5205 0b4f 53       		pushl	%ebx
 5206 0b50 83EC74   		subl	$116, %esp
GAS LISTING h:/6261A/11CW1352MP_BIRD61A_11C_V33_GPRS_MMI/plutommi/Customer/ResGenerator/gcctmp/ccEHcaaa.s 			page 32


  75:../../MMI/Resource/ThreadPool.cpp ****     // Never created?
  76:../../MMI/Resource/ThreadPool.cpp ****     if (!m_hNotifyShutdown)
 5208              	LM62:
 5209              	LBB12:
 5210 0b53 8B4508   		movl	8(%ebp), %eax
 5211 0b56 83781800 		cmpl	$0, 24(%eax)
 5212 0b5a 7505     		jne	L100
  77:../../MMI/Resource/ThreadPool.cpp ****         return;
 5214              	LM63:
 5215 0b5c E99B0200 		jmp	L99
 5215      00
 5216              	L100:
  78:../../MMI/Resource/ThreadPool.cpp **** 
  79:../../MMI/Resource/ThreadPool.cpp ****     // tell all threads to shutdown.
  80:../../MMI/Resource/ThreadPool.cpp ****     SetEvent(m_hNotifyShutdown);
 5218              	LM64:
 5219 0b61 8B4508   		movl	8(%ebp), %eax
 5220 0b64 8B4018   		movl	24(%eax), %eax
 5221 0b67 890424   		movl	%eax, (%esp)
 5222 0b6a E8000000 		call	_SetEvent@4
 5222      00
 5223 0b6f 83EC04   		subl	$4, %esp
  81:../../MMI/Resource/ThreadPool.cpp ****     int timElapsed = 0;
 5225              	LM65:
 5226 0b72 C745F400 		movl	$0, -12(%ebp)
 5226      000000
  82:../../MMI/Resource/ThreadPool.cpp ****     while (GetWorkingThreadCount() > 0 && timElapsed < m_nWaitForThreadsToDieMS)
 5228              	LM66:
 5229              	L101:
 5230 0b79 8B4508   		movl	8(%ebp), %eax
 5231 0b7c 890424   		movl	%eax, (%esp)
 5232 0b7f E87E0200 		call	__ZN10ThreadPool21GetWorkingThreadCountEv
 5232      00
 5233 0b84 85C0     		testl	%eax, %eax
 5234 0b86 7E24     		jle	L102
 5235 0b88 8B5508   		movl	8(%ebp), %edx
 5236 0b8b 8B45F4   		movl	-12(%ebp), %eax
 5237 0b8e 3B4214   		cmpl	20(%edx), %eax
 5238 0b91 7C02     		jl	L103
 5239 0b93 EB17     		jmp	L102
 5240              	L103:
  83:../../MMI/Resource/ThreadPool.cpp ****     {
  84:../../MMI/Resource/ThreadPool.cpp ****         Sleep(100); // give the threads a chance to complete
 5242              	LM67:
 5243 0b95 C7042464 		movl	$100, (%esp)
 5243      000000
 5244 0b9c E8000000 		call	_Sleep@4
 5244      00
 5245 0ba1 83EC04   		subl	$4, %esp
  85:../../MMI/Resource/ThreadPool.cpp ****         timElapsed += 100;
 5247              	LM68:
 5248 0ba4 8D45F4   		leal	-12(%ebp), %eax
 5249 0ba7 830064   		addl	$100, (%eax)
 5250 0baa EBCD     		jmp	L101
 5251              	L102:
  86:../../MMI/Resource/ThreadPool.cpp ****     }
  87:../../MMI/Resource/ThreadPool.cpp **** 
GAS LISTING h:/6261A/11CW1352MP_BIRD61A_11C_V33_GPRS_MMI/plutommi/Customer/ResGenerator/gcctmp/ccEHcaaa.s 			page 33


  88:../../MMI/Resource/ThreadPool.cpp ****     // walk through the events and threads and close them all
  89:../../MMI/Resource/ThreadPool.cpp ****     for (ThreadList::iterator iter = m_threads.begin(); iter != m_threads.end(); ++iter)
 5253              	LM69:
 5254 0bac 8B4508   		movl	8(%ebp), %eax
 5255              	LBB13:
 5256 0baf 83C008   		addl	$8, %eax
 5257 0bb2 890424   		movl	%eax, (%esp)
 5258 0bb5 E8000000 		call	__ZNSt6vectorIN10ThreadPool10ThreadDataESaIS1_EE5beginEv
 5258      00
 5259 0bba 8945F0   		movl	%eax, -16(%ebp)
 5260              	L105:
 5261 0bbd 8B4508   		movl	8(%ebp), %eax
 5262 0bc0 83C008   		addl	$8, %eax
 5263 0bc3 890424   		movl	%eax, (%esp)
 5264 0bc6 E8000000 		call	__ZNSt6vectorIN10ThreadPool10ThreadDataESaIS1_EE3endEv
 5264      00
 5265 0bcb 8945EC   		movl	%eax, -20(%ebp)
 5266 0bce 8D45EC   		leal	-20(%ebp), %eax
 5267 0bd1 89442404 		movl	%eax, 4(%esp)
 5268 0bd5 8D45F0   		leal	-16(%ebp), %eax
 5269 0bd8 890424   		movl	%eax, (%esp)
 5270 0bdb E8000000 		call	__ZN9__gnu_cxxneIPN10ThreadPool10ThreadDataESt6vectorIS2_SaIS2_EEEEbRKNS_17__normal_iteratorI
 5270      00
 5271 0be0 84C0     		testb	%al, %al
 5272 0be2 7505     		jne	L108
 5273 0be4 E91A0100 		jmp	L106
 5273      00
 5274              	L108:
  90:../../MMI/Resource/ThreadPool.cpp ****     {
  91:../../MMI/Resource/ThreadPool.cpp ****         THREADP_LOG_V("Close hWait handle: 0x%x, thread ID = %d", iter->hWait, iter->dwThreadId);
 5276              	LM70:
 5277 0be9 8D45F0   		leal	-16(%ebp), %eax
 5278 0bec 890424   		movl	%eax, (%esp)
 5279 0bef E8000000 		call	__ZNK9__gnu_cxx17__normal_iteratorIPN10ThreadPool10ThreadDataESt6vectorIS2_SaIS2_EEEptEv
 5279      00
 5280 0bf4 89C3     		movl	%eax, %ebx
 5281 0bf6 8D45F0   		leal	-16(%ebp), %eax
 5282 0bf9 890424   		movl	%eax, (%esp)
 5283 0bfc E8000000 		call	__ZNK9__gnu_cxx17__normal_iteratorIPN10ThreadPool10ThreadDataESt6vectorIS2_SaIS2_EEEptEv
 5283      00
 5284 0c01 89C2     		movl	%eax, %edx
 5285 0c03 8B4308   		movl	8(%ebx), %eax
 5286 0c06 89442410 		movl	%eax, 16(%esp)
 5287 0c0a 8B02     		movl	(%edx), %eax
 5288 0c0c 8944240C 		movl	%eax, 12(%esp)
 5289 0c10 C7442408 		movl	$LC8, 8(%esp)
 5289      600A0000 
 5290 0c18 C7442404 		movl	$LC1, 4(%esp)
 5290      34000000 
 5291 0c20 C7042401 		movl	$1, (%esp)
 5291      000000
 5292 0c27 E8000000 		call	_reslog_adaptor_log
 5292      00
  92:../../MMI/Resource/ThreadPool.cpp ****         if(CloseHandle(iter->hWait)== 0){
 5294              	LM71:
 5295 0c2c 8D45F0   		leal	-16(%ebp), %eax
 5296 0c2f 890424   		movl	%eax, (%esp)
GAS LISTING h:/6261A/11CW1352MP_BIRD61A_11C_V33_GPRS_MMI/plutommi/Customer/ResGenerator/gcctmp/ccEHcaaa.s 			page 34


 5297 0c32 E8000000 		call	__ZNK9__gnu_cxx17__normal_iteratorIPN10ThreadPool10ThreadDataESt6vectorIS2_SaIS2_EEEptEv
 5297      00
 5298 0c37 8B00     		movl	(%eax), %eax
 5299 0c39 890424   		movl	%eax, (%esp)
 5300 0c3c E8000000 		call	_CloseHandle@4
 5300      00
 5301 0c41 83EC04   		subl	$4, %esp
 5302 0c44 85C0     		testl	%eax, %eax
 5303 0c46 7525     		jne	L109
  93:../../MMI/Resource/ThreadPool.cpp ****             THREADP_LOG_E("Cannnot close hWait handle, error = 0x%x", GetLastError());
 5305              	LM72:
 5306 0c48 E8000000 		call	_GetLastError@0
 5306      00
 5307 0c4d 8944240C 		movl	%eax, 12(%esp)
 5308 0c51 C7442408 		movl	$LC9, 8(%esp)
 5308      A00A0000 
 5309 0c59 C7442404 		movl	$LC1, 4(%esp)
 5309      34000000 
 5310 0c61 C7042403 		movl	$3, (%esp)
 5310      000000
 5311 0c68 E8000000 		call	_reslog_adaptor_log
 5311      00
 5312              	L109:
  94:../../MMI/Resource/ThreadPool.cpp ****         }
  95:../../MMI/Resource/ThreadPool.cpp **** 
  96:../../MMI/Resource/ThreadPool.cpp ****         THREADP_LOG_V("Close hThread handle: 0x%x, thread ID = %d", iter->hThread, iter->dwThreadId
 5314              	LM73:
 5315 0c6d 8D45F0   		leal	-16(%ebp), %eax
 5316 0c70 890424   		movl	%eax, (%esp)
 5317 0c73 E8000000 		call	__ZNK9__gnu_cxx17__normal_iteratorIPN10ThreadPool10ThreadDataESt6vectorIS2_SaIS2_EEEptEv
 5317      00
 5318 0c78 89C3     		movl	%eax, %ebx
 5319 0c7a 8D45F0   		leal	-16(%ebp), %eax
 5320 0c7d 890424   		movl	%eax, (%esp)
 5321 0c80 E8000000 		call	__ZNK9__gnu_cxx17__normal_iteratorIPN10ThreadPool10ThreadDataESt6vectorIS2_SaIS2_EEEptEv
 5321      00
 5322 0c85 89C2     		movl	%eax, %edx
 5323 0c87 8B4308   		movl	8(%ebx), %eax
 5324 0c8a 89442410 		movl	%eax, 16(%esp)
 5325 0c8e 8B4204   		movl	4(%edx), %eax
 5326 0c91 8944240C 		movl	%eax, 12(%esp)
 5327 0c95 C7442408 		movl	$LC10, 8(%esp)
 5327      E00A0000 
 5328 0c9d C7442404 		movl	$LC1, 4(%esp)
 5328      34000000 
 5329 0ca5 C7042401 		movl	$1, (%esp)
 5329      000000
 5330 0cac E8000000 		call	_reslog_adaptor_log
 5330      00
  97:../../MMI/Resource/ThreadPool.cpp ****         if(CloseHandle(iter->hThread)==0){
 5332              	LM74:
 5333 0cb1 8D45F0   		leal	-16(%ebp), %eax
 5334 0cb4 890424   		movl	%eax, (%esp)
 5335 0cb7 E8000000 		call	__ZNK9__gnu_cxx17__normal_iteratorIPN10ThreadPool10ThreadDataESt6vectorIS2_SaIS2_EEEptEv
 5335      00
 5336 0cbc 8B4004   		movl	4(%eax), %eax
 5337 0cbf 890424   		movl	%eax, (%esp)
GAS LISTING h:/6261A/11CW1352MP_BIRD61A_11C_V33_GPRS_MMI/plutommi/Customer/ResGenerator/gcctmp/ccEHcaaa.s 			page 35


 5338 0cc2 E8000000 		call	_CloseHandle@4
 5338      00
 5339 0cc7 83EC04   		subl	$4, %esp
 5340 0cca 85C0     		testl	%eax, %eax
 5341 0ccc 7525     		jne	L107
  98:../../MMI/Resource/ThreadPool.cpp ****             THREADP_LOG_E("Cannnot close hThread handle, error = 0x%x", GetLastError());
 5343              	LM75:
 5344 0cce E8000000 		call	_GetLastError@0
 5344      00
 5345 0cd3 8944240C 		movl	%eax, 12(%esp)
 5346 0cd7 C7442408 		movl	$LC11, 8(%esp)
 5346      200B0000 
 5347 0cdf C7442404 		movl	$LC1, 4(%esp)
 5347      34000000 
 5348 0ce7 C7042403 		movl	$3, (%esp)
 5348      000000
 5349 0cee E8000000 		call	_reslog_adaptor_log
 5349      00
 5351              	LM76:
 5352              	L107:
 5353 0cf3 8D45F0   		leal	-16(%ebp), %eax
 5354 0cf6 890424   		movl	%eax, (%esp)
 5355 0cf9 E8000000 		call	__ZN9__gnu_cxx17__normal_iteratorIPN10ThreadPool10ThreadDataESt6vectorIS2_SaIS2_EEEppEv
 5355      00
 5356 0cfe E9BAFEFF 		jmp	L105
 5356      FF
 5357              	L106:
  99:../../MMI/Resource/ThreadPool.cpp ****         }
 100:../../MMI/Resource/ThreadPool.cpp ****     }
 101:../../MMI/Resource/ThreadPool.cpp **** 
 102:../../MMI/Resource/ThreadPool.cpp ****     // close the shutdown event
 103:../../MMI/Resource/ThreadPool.cpp ****     CloseHandle(m_hNotifyShutdown);
 5359              	LM77:
 5360              	LBE13:
 5361 0d03 8B4508   		movl	8(%ebp), %eax
 5362 0d06 8B4018   		movl	24(%eax), %eax
 5363 0d09 890424   		movl	%eax, (%esp)
 5364 0d0c E8000000 		call	_CloseHandle@4
 5364      00
 5365 0d11 83EC04   		subl	$4, %esp
 104:../../MMI/Resource/ThreadPool.cpp ****     m_hNotifyShutdown = NULL;
 5367              	LM78:
 5368 0d14 8B4508   		movl	8(%ebp), %eax
 5369 0d17 C7401800 		movl	$0, 24(%eax)
 5369      000000
 105:../../MMI/Resource/ThreadPool.cpp **** 
 106:../../MMI/Resource/ThreadPool.cpp ****     // free any jobs not released
 107:../../MMI/Resource/ThreadPool.cpp ****     for (JobList::iterator funcIter = m_jobList.begin();
 5371              	LM79:
 5372              	LBB14:
 5373 0d1e 8D55D8   		leal	-40(%ebp), %edx
 5374 0d21 8B4508   		movl	8(%ebp), %eax
 5375 0d24 83C004   		addl	$4, %eax
 5376 0d27 89442404 		movl	%eax, 4(%esp)
 5377 0d2b 891424   		movl	%edx, (%esp)
 5378 0d2e E8000000 		call	__ZNSt4listIN10ThreadPool7JobDataESaIS1_EE5beginEv
 5378      00
GAS LISTING h:/6261A/11CW1352MP_BIRD61A_11C_V33_GPRS_MMI/plutommi/Customer/ResGenerator/gcctmp/ccEHcaaa.s 			page 36


 5379 0d33 83EC04   		subl	$4, %esp
 5380              	L111:
 5381 0d36 8D55C8   		leal	-56(%ebp), %edx
 5382 0d39 8B4508   		movl	8(%ebp), %eax
 5383 0d3c 83C004   		addl	$4, %eax
 5384 0d3f 89442404 		movl	%eax, 4(%esp)
 5385 0d43 891424   		movl	%edx, (%esp)
 5386 0d46 E8000000 		call	__ZNSt4listIN10ThreadPool7JobDataESaIS1_EE3endEv
 5386      00
 5387 0d4b 83EC04   		subl	$4, %esp
 5388 0d4e 8D45C8   		leal	-56(%ebp), %eax
 5389 0d51 89442404 		movl	%eax, 4(%esp)
 5390 0d55 8D45D8   		leal	-40(%ebp), %eax
 5391 0d58 890424   		movl	%eax, (%esp)
 5392 0d5b E8000000 		call	__ZNKSt19_List_iterator_baseneERKS_
 5392      00
 5393 0d60 84C0     		testb	%al, %al
 5394 0d62 7502     		jne	L114
 5395 0d64 EB7A     		jmp	L112
 5396              	L114:
 108:../../MMI/Resource/ThreadPool.cpp ****         funcIter != m_jobList.end(); funcIter++)
 109:../../MMI/Resource/ThreadPool.cpp ****         if (funcIter->runObject && funcIter->runObject->AutoDelete())
 5398              	LM80:
 5399 0d66 8D45D8   		leal	-40(%ebp), %eax
 5400 0d69 890424   		movl	%eax, (%esp)
 5401 0d6c E8000000 		call	__ZNKSt14_List_iteratorIN10ThreadPool7JobDataERS1_PS1_EptEv
 5401      00
 5402 0d71 83780800 		cmpl	$0, 8(%eax)
 5403 0d75 7447     		je	L113
 5404 0d77 8D45D8   		leal	-40(%ebp), %eax
 5405 0d7a 890424   		movl	%eax, (%esp)
 5406 0d7d E8000000 		call	__ZNKSt14_List_iteratorIN10ThreadPool7JobDataERS1_PS1_EptEv
 5406      00
 5407 0d82 8B4008   		movl	8(%eax), %eax
 5408 0d85 8B10     		movl	(%eax), %edx
 5409 0d87 83C20C   		addl	$12, %edx
 5410 0d8a 890424   		movl	%eax, (%esp)
 5411 0d8d 8B02     		movl	(%edx), %eax
 5412 0d8f FFD0     		call	*%eax
 5413 0d91 84C0     		testb	%al, %al
 5414 0d93 7429     		je	L113
 110:../../MMI/Resource/ThreadPool.cpp ****             delete funcIter->runObject;
 5416              	LM81:
 5417 0d95 8D45D8   		leal	-40(%ebp), %eax
 5418 0d98 890424   		movl	%eax, (%esp)
 5419 0d9b E8000000 		call	__ZNKSt14_List_iteratorIN10ThreadPool7JobDataERS1_PS1_EptEv
 5419      00
 5420 0da0 8B4008   		movl	8(%eax), %eax
 5421 0da3 8945B4   		movl	%eax, -76(%ebp)
 5422 0da6 837DB400 		cmpl	$0, -76(%ebp)
 5423 0daa 7412     		je	L113
 5424 0dac 8B55B4   		movl	-76(%ebp), %edx
 5425 0daf 8B02     		movl	(%edx), %eax
 5426 0db1 83C004   		addl	$4, %eax
 5427 0db4 8B55B4   		movl	-76(%ebp), %edx
 5428 0db7 891424   		movl	%edx, (%esp)
 5429 0dba 8B00     		movl	(%eax), %eax
GAS LISTING h:/6261A/11CW1352MP_BIRD61A_11C_V33_GPRS_MMI/plutommi/Customer/ResGenerator/gcctmp/ccEHcaaa.s 			page 37


 5430 0dbc FFD0     		call	*%eax
 5432              	LM82:
 5433              	L113:
 5434 0dbe 8D55B8   		leal	-72(%ebp), %edx
 5435 0dc1 C7442408 		movl	$0, 8(%esp)
 5435      00000000 
 5436 0dc9 8D45D8   		leal	-40(%ebp), %eax
 5437 0dcc 89442404 		movl	%eax, 4(%esp)
 5438 0dd0 891424   		movl	%edx, (%esp)
 5439 0dd3 E8000000 		call	__ZNSt14_List_iteratorIN10ThreadPool7JobDataERS1_PS1_EppEi
 5439      00
 5440 0dd8 83EC04   		subl	$4, %esp
 5441 0ddb E956FFFF 		jmp	L111
 5441      FF
 5442              	L112:
 111:../../MMI/Resource/ThreadPool.cpp **** 
 112:../../MMI/Resource/ThreadPool.cpp ****     // empty all collections
 113:../../MMI/Resource/ThreadPool.cpp ****     m_jobList.clear();
 5444              	LM83:
 5445 0de0 8B4508   		movl	8(%ebp), %eax
 5446              	LBE14:
 5447 0de3 83C004   		addl	$4, %eax
 5448 0de6 890424   		movl	%eax, (%esp)
 5449 0de9 E8000000 		call	__ZNSt4listIN10ThreadPool7JobDataESaIS1_EE5clearEv
 5449      00
 114:../../MMI/Resource/ThreadPool.cpp ****     m_threads.clear();
 5451              	LM84:
 5452 0dee 8B4508   		movl	8(%ebp), %eax
 5453 0df1 83C008   		addl	$8, %eax
 5454 0df4 890424   		movl	%eax, (%esp)
 5455 0df7 E8000000 		call	__ZNSt6vectorIN10ThreadPool10ThreadDataESaIS1_EE5clearEv
 5455      00
 115:../../MMI/Resource/ThreadPool.cpp **** }
 5457              	LM85:
 5458              	L99:
 5459 0dfc 8B5DFC   		movl	-4(%ebp), %ebx
 5460 0dff C9       		leave
 5461 0e00 C3       		ret
 5462              	LBE12:
 5472              	Lscope7:
 5474 0e01 90       		.align 2
 5477              	.globl __ZN10ThreadPool21GetWorkingThreadCountEv
 5479              	__ZN10ThreadPool21GetWorkingThreadCountEv:
 116:../../MMI/Resource/ThreadPool.cpp **** 
 117:../../MMI/Resource/ThreadPool.cpp **** int ThreadPool::GetWorkingThreadCount()
 118:../../MMI/Resource/ThreadPool.cpp **** {
 5481              	LM86:
 5482 0e02 55       		pushl	%ebp
 5483 0e03 89E5     		movl	%esp, %ebp
 5484 0e05 83EC18   		subl	$24, %esp
 119:../../MMI/Resource/ThreadPool.cpp ****     int nCount = 0;
 5486              	LM87:
 5487              	LBB15:
 5488 0e08 C745FC00 		movl	$0, -4(%ebp)
 5488      000000
 120:../../MMI/Resource/ThreadPool.cpp ****     EnterCriticalSection(&m_cs);
 5490              	LM88:
GAS LISTING h:/6261A/11CW1352MP_BIRD61A_11C_V33_GPRS_MMI/plutommi/Customer/ResGenerator/gcctmp/ccEHcaaa.s 			page 38


 5491 0e0f 8B4508   		movl	8(%ebp), %eax
 5492 0e12 83C01C   		addl	$28, %eax
 5493 0e15 890424   		movl	%eax, (%esp)
 5494 0e18 E8000000 		call	_EnterCriticalSection@4
 5494      00
 5495 0e1d 83EC04   		subl	$4, %esp
 121:../../MMI/Resource/ThreadPool.cpp ****     for (ThreadList::iterator iter = m_threads.begin(); iter != m_threads.end(); ++iter)
 5497              	LM89:
 5498 0e20 8B4508   		movl	8(%ebp), %eax
 5499              	LBB16:
 5500 0e23 83C008   		addl	$8, %eax
 5501 0e26 890424   		movl	%eax, (%esp)
 5502 0e29 E8000000 		call	__ZNSt6vectorIN10ThreadPool10ThreadDataESaIS1_EE5beginEv
 5502      00
 5503 0e2e 8945F8   		movl	%eax, -8(%ebp)
 5504              	L119:
 5505 0e31 8B4508   		movl	8(%ebp), %eax
 5506 0e34 83C008   		addl	$8, %eax
 5507 0e37 890424   		movl	%eax, (%esp)
 5508 0e3a E8000000 		call	__ZNSt6vectorIN10ThreadPool10ThreadDataESaIS1_EE3endEv
 5508      00
 5509 0e3f 8945F4   		movl	%eax, -12(%ebp)
 5510 0e42 8D45F4   		leal	-12(%ebp), %eax
 5511 0e45 89442404 		movl	%eax, 4(%esp)
 5512 0e49 8D45F8   		leal	-8(%ebp), %eax
 5513 0e4c 890424   		movl	%eax, (%esp)
 5514 0e4f E8000000 		call	__ZN9__gnu_cxxneIPN10ThreadPool10ThreadDataESt6vectorIS2_SaIS2_EEEEbRKNS_17__normal_iteratorI
 5514      00
 5515 0e54 84C0     		testb	%al, %al
 5516 0e56 7502     		jne	L122
 5517 0e58 EB36     		jmp	L120
 5518              	L122:
 122:../../MMI/Resource/ThreadPool.cpp ****         if (WaitForSingleObject(iter->hWait, 0) == WAIT_OBJECT_0)
 5520              	LM90:
 5521 0e5a 8D45F8   		leal	-8(%ebp), %eax
 5522 0e5d 890424   		movl	%eax, (%esp)
 5523 0e60 E8000000 		call	__ZNK9__gnu_cxx17__normal_iteratorIPN10ThreadPool10ThreadDataESt6vectorIS2_SaIS2_EEEptEv
 5523      00
 5524 0e65 C7442404 		movl	$0, 4(%esp)
 5524      00000000 
 5525 0e6d 8B00     		movl	(%eax), %eax
 5526 0e6f 890424   		movl	%eax, (%esp)
 5527 0e72 E8000000 		call	_WaitForSingleObject@8
 5527      00
 5528 0e77 83EC08   		subl	$8, %esp
 5529 0e7a 85C0     		testl	%eax, %eax
 5530 0e7c 7505     		jne	L121
 123:../../MMI/Resource/ThreadPool.cpp ****             ++nCount;
 5532              	LM91:
 5533 0e7e 8D45FC   		leal	-4(%ebp), %eax
 5534 0e81 FF00     		incl	(%eax)
 5536              	LM92:
 5537              	L121:
 5538 0e83 8D45F8   		leal	-8(%ebp), %eax
 5539 0e86 890424   		movl	%eax, (%esp)
 5540 0e89 E8000000 		call	__ZN9__gnu_cxx17__normal_iteratorIPN10ThreadPool10ThreadDataESt6vectorIS2_SaIS2_EEEppEv
 5540      00
GAS LISTING h:/6261A/11CW1352MP_BIRD61A_11C_V33_GPRS_MMI/plutommi/Customer/ResGenerator/gcctmp/ccEHcaaa.s 			page 39


 5541 0e8e EBA1     		jmp	L119
 5542              	L120:
 124:../../MMI/Resource/ThreadPool.cpp ****     LeaveCriticalSection(&m_cs);
 5544              	LM93:
 5545 0e90 8B4508   		movl	8(%ebp), %eax
 5546              	LBE16:
 5547 0e93 83C01C   		addl	$28, %eax
 5548 0e96 890424   		movl	%eax, (%esp)
 5549 0e99 E8000000 		call	_LeaveCriticalSection@4
 5549      00
 5550 0e9e 83EC04   		subl	$4, %esp
 125:../../MMI/Resource/ThreadPool.cpp ****     return nCount;
 5552              	LM94:
 5553 0ea1 8B45FC   		movl	-4(%ebp), %eax
 126:../../MMI/Resource/ThreadPool.cpp **** }
 5555              	LM95:
 5556 0ea4 C9       		leave
 5557 0ea5 C3       		ret
 5558              	LBE15:
 5565              	Lscope8:
 5567 0ea6 90909090 		.align 32
 5567      90909090 
 5567      90909090 
 5567      90909090 
 5567      90909090 
 5568              	LC12:
 5569 0ec0 7046756E 		.ascii "pFunc != NULL || runObject != NULL\0"
 5569      6320213D 
 5569      204E554C 
 5569      4C207C7C 
 5569      2072756E 
 5570 0ee3 90       		.align 2
 5577              	.globl __ZN10ThreadPool13AddJobToQueueEPFmPvES0_PNS_10IRunObjectENS_14ThreadPriorityE
 5579              	__ZN10ThreadPool13AddJobToQueueEPFmPvES0_PNS_10IRunObjectENS_14ThreadPriorityE:
 127:../../MMI/Resource/ThreadPool.cpp **** 
 128:../../MMI/Resource/ThreadPool.cpp **** void ThreadPool::AddJobToQueue(
 129:../../MMI/Resource/ThreadPool.cpp ****     LPTHREAD_START_ROUTINE pFunc, LPVOID pData,
 130:../../MMI/Resource/ThreadPool.cpp ****     IRunObject* runObject, ThreadPriority priority)
 131:../../MMI/Resource/ThreadPool.cpp **** {
 5581              	LM96:
 5582 0ee4 55       		pushl	%ebp
 5583 0ee5 89E5     		movl	%esp, %ebp
 5584 0ee7 83EC38   		subl	$56, %esp
 132:../../MMI/Resource/ThreadPool.cpp ****     assert(pFunc != NULL || runObject != NULL);
 5586              	LM97:
 5587              	LBB17:
 5588 0eea 837D0C00 		cmpl	$0, 12(%ebp)
 5589 0eee 7522     		jne	L126
 5590 0ef0 837D1400 		cmpl	$0, 20(%ebp)
 5591 0ef4 751C     		jne	L126
 5592 0ef6 C7442408 		movl	$132, 8(%esp)
 5592      84000000 
 5593 0efe C7442404 		movl	$LC3, 4(%esp)
 5593      E0070000 
 5594 0f06 C70424C0 		movl	$LC12, (%esp)
 5594      0E0000
 5595 0f0d E8000000 		call	__assert
GAS LISTING h:/6261A/11CW1352MP_BIRD61A_11C_V33_GPRS_MMI/plutommi/Customer/ResGenerator/gcctmp/ccEHcaaa.s 			page 40


 5595      00
 5596              	L126:
 133:../../MMI/Resource/ThreadPool.cpp ****     JobData jobData;
 134:../../MMI/Resource/ThreadPool.cpp ****     jobData.lpStartAddress = pFunc;
 5598              	LM98:
 5599 0f12 8B450C   		movl	12(%ebp), %eax
 5600 0f15 8945E8   		movl	%eax, -24(%ebp)
 135:../../MMI/Resource/ThreadPool.cpp ****     jobData.pData = pData;
 5602              	LM99:
 5603 0f18 8B4510   		movl	16(%ebp), %eax
 5604 0f1b 8945EC   		movl	%eax, -20(%ebp)
 136:../../MMI/Resource/ThreadPool.cpp ****     jobData.runObject = runObject;
 5606              	LM100:
 5607 0f1e 8B4514   		movl	20(%ebp), %eax
 5608 0f21 8945F0   		movl	%eax, -16(%ebp)
 137:../../MMI/Resource/ThreadPool.cpp **** 
 138:../../MMI/Resource/ThreadPool.cpp ****     // add it to the list
 139:../../MMI/Resource/ThreadPool.cpp ****     EnterCriticalSection(&m_cs);
 5610              	LM101:
 5611 0f24 8B4508   		movl	8(%ebp), %eax
 5612 0f27 83C01C   		addl	$28, %eax
 5613 0f2a 890424   		movl	%eax, (%esp)
 5614 0f2d E8000000 		call	_EnterCriticalSection@4
 5614      00
 5615 0f32 83EC04   		subl	$4, %esp
 140:../../MMI/Resource/ThreadPool.cpp ****     {
 141:../../MMI/Resource/ThreadPool.cpp ****         if (priority == Low)
 5617              	LM102:
 5618              	LBB18:
 5619 0f35 837D1801 		cmpl	$1, 24(%ebp)
 5620 0f39 7517     		jne	L127
 142:../../MMI/Resource/ThreadPool.cpp ****             m_jobList.push_back(jobData);
 5622              	LM103:
 5623 0f3b 8D45E8   		leal	-24(%ebp), %eax
 5624 0f3e 89442404 		movl	%eax, 4(%esp)
 5625 0f42 8B4508   		movl	8(%ebp), %eax
 5626 0f45 83C004   		addl	$4, %eax
 5627 0f48 890424   		movl	%eax, (%esp)
 5628 0f4b E8000000 		call	__ZNSt4listIN10ThreadPool7JobDataESaIS1_EE9push_backERKS1_
 5628      00
 5629 0f50 EB15     		jmp	L128
 5630              	L127:
 143:../../MMI/Resource/ThreadPool.cpp ****         else
 144:../../MMI/Resource/ThreadPool.cpp ****             m_jobList.push_front(jobData);
 5632              	LM104:
 5633 0f52 8D45E8   		leal	-24(%ebp), %eax
 5634 0f55 89442404 		movl	%eax, 4(%esp)
 5635 0f59 8B4508   		movl	8(%ebp), %eax
 5636 0f5c 83C004   		addl	$4, %eax
 5637 0f5f 890424   		movl	%eax, (%esp)
 5638 0f62 E8000000 		call	__ZNSt4listIN10ThreadPool7JobDataESaIS1_EE10push_frontERKS1_
 5638      00
 5639              	L128:
 145:../../MMI/Resource/ThreadPool.cpp **** 
 146:../../MMI/Resource/ThreadPool.cpp ****         // See if any threads are free
 147:../../MMI/Resource/ThreadPool.cpp ****         for (ThreadList::iterator iter = m_threads.begin(); iter != m_threads.end(); ++iter)
 5641              	LM105:
GAS LISTING h:/6261A/11CW1352MP_BIRD61A_11C_V33_GPRS_MMI/plutommi/Customer/ResGenerator/gcctmp/ccEHcaaa.s 			page 41


 5642 0f67 8B4508   		movl	8(%ebp), %eax
 5643              	LBB19:
 5644 0f6a 83C008   		addl	$8, %eax
 5645 0f6d 890424   		movl	%eax, (%esp)
 5646 0f70 E8000000 		call	__ZNSt6vectorIN10ThreadPool10ThreadDataESaIS1_EE5beginEv
 5646      00
 5647 0f75 8945E4   		movl	%eax, -28(%ebp)
 5648              	L129:
 5649 0f78 8B4508   		movl	8(%ebp), %eax
 5650 0f7b 83C008   		addl	$8, %eax
 5651 0f7e 890424   		movl	%eax, (%esp)
 5652 0f81 E8000000 		call	__ZNSt6vectorIN10ThreadPool10ThreadDataESaIS1_EE3endEv
 5652      00
 5653 0f86 8945E0   		movl	%eax, -32(%ebp)
 5654 0f89 8D45E0   		leal	-32(%ebp), %eax
 5655 0f8c 89442404 		movl	%eax, 4(%esp)
 5656 0f90 8D45E4   		leal	-28(%ebp), %eax
 5657 0f93 890424   		movl	%eax, (%esp)
 5658 0f96 E8000000 		call	__ZN9__gnu_cxxneIPN10ThreadPool10ThreadDataESt6vectorIS2_SaIS2_EEEEbRKNS_17__normal_iteratorI
 5658      00
 5659 0f9b 84C0     		testb	%al, %al
 5660 0f9d 7502     		jne	L132
 5661 0f9f EB4E     		jmp	L130
 5662              	L132:
 148:../../MMI/Resource/ThreadPool.cpp ****         {
 149:../../MMI/Resource/ThreadPool.cpp ****             if (WaitForSingleObject(iter->hWait, 0) == WAIT_TIMEOUT)
 5664              	LM106:
 5665 0fa1 8D45E4   		leal	-28(%ebp), %eax
 5666 0fa4 890424   		movl	%eax, (%esp)
 5667 0fa7 E8000000 		call	__ZNK9__gnu_cxx17__normal_iteratorIPN10ThreadPool10ThreadDataESt6vectorIS2_SaIS2_EEEptEv
 5667      00
 5668 0fac C7442404 		movl	$0, 4(%esp)
 5668      00000000 
 5669 0fb4 8B00     		movl	(%eax), %eax
 5670 0fb6 890424   		movl	%eax, (%esp)
 5671 0fb9 E8000000 		call	_WaitForSingleObject@8
 5671      00
 5672 0fbe 83EC08   		subl	$8, %esp
 5673 0fc1 3D020100 		cmpl	$258, %eax
 5673      00
 5674 0fc6 751A     		jne	L131
 150:../../MMI/Resource/ThreadPool.cpp ****             {
 151:../../MMI/Resource/ThreadPool.cpp ****                 // here is a free thread, wake it up
 152:../../MMI/Resource/ThreadPool.cpp ****                 SetEvent(iter->hWait);
 5676              	LM107:
 5677 0fc8 8D45E4   		leal	-28(%ebp), %eax
 5678 0fcb 890424   		movl	%eax, (%esp)
 5679 0fce E8000000 		call	__ZNK9__gnu_cxx17__normal_iteratorIPN10ThreadPool10ThreadDataESt6vectorIS2_SaIS2_EEEptEv
 5679      00
 5680 0fd3 8B00     		movl	(%eax), %eax
 5681 0fd5 890424   		movl	%eax, (%esp)
 5682 0fd8 E8000000 		call	_SetEvent@4
 5682      00
 5683 0fdd 83EC04   		subl	$4, %esp
 153:../../MMI/Resource/ThreadPool.cpp ****                 break;
 5685              	LM108:
 5686 0fe0 EB0D     		jmp	L130
GAS LISTING h:/6261A/11CW1352MP_BIRD61A_11C_V33_GPRS_MMI/plutommi/Customer/ResGenerator/gcctmp/ccEHcaaa.s 			page 42


 5688              	LM109:
 5689              	L131:
 5690 0fe2 8D45E4   		leal	-28(%ebp), %eax
 5691 0fe5 890424   		movl	%eax, (%esp)
 5692 0fe8 E8000000 		call	__ZN9__gnu_cxx17__normal_iteratorIPN10ThreadPool10ThreadDataESt6vectorIS2_SaIS2_EEEppEv
 5692      00
 5693 0fed EB89     		jmp	L129
 5694              	L130:
 154:../../MMI/Resource/ThreadPool.cpp ****             }
 155:../../MMI/Resource/ThreadPool.cpp ****         }
 156:../../MMI/Resource/ThreadPool.cpp ****     }
 157:../../MMI/Resource/ThreadPool.cpp ****     LeaveCriticalSection(&m_cs);
 5696              	LM110:
 5697 0fef 8B4508   		movl	8(%ebp), %eax
 5698              	LBE19:
 5699              	LBE18:
 5700 0ff2 83C01C   		addl	$28, %eax
 5701 0ff5 890424   		movl	%eax, (%esp)
 5702 0ff8 E8000000 		call	_LeaveCriticalSection@4
 5702      00
 5703 0ffd 83EC04   		subl	$4, %esp
 158:../../MMI/Resource/ThreadPool.cpp **** }
 5705              	LM111:
 5706 1000 C9       		leave
 5707 1001 C3       		ret
 5708              	LBE17:
 5715              	Lscope9:
 5717              		.align 2
 5721              	.globl __ZN10ThreadPool13GetWaitHandleEm
 5723              	__ZN10ThreadPool13GetWaitHandleEm:
 159:../../MMI/Resource/ThreadPool.cpp **** 
 160:../../MMI/Resource/ThreadPool.cpp **** // Called by the worker thread to get its wake-up event handle
 161:../../MMI/Resource/ThreadPool.cpp **** HANDLE ThreadPool::GetWaitHandle(DWORD dwThreadId)
 162:../../MMI/Resource/ThreadPool.cpp **** {
 5725              	LM112:
 5726 1002 55       		pushl	%ebp
 5727 1003 89E5     		movl	%esp, %ebp
 5728 1005 83EC18   		subl	$24, %esp
 163:../../MMI/Resource/ThreadPool.cpp ****     HANDLE hWait = NULL;
 5730              	LM113:
 5731              	LBB20:
 5732 1008 C745FC00 		movl	$0, -4(%ebp)
 5732      000000
 164:../../MMI/Resource/ThreadPool.cpp ****     EnterCriticalSection(&m_cs);
 5734              	LM114:
 5735 100f 8B4508   		movl	8(%ebp), %eax
 5736 1012 83C01C   		addl	$28, %eax
 5737 1015 890424   		movl	%eax, (%esp)
 5738 1018 E8000000 		call	_EnterCriticalSection@4
 5738      00
 5739 101d 83EC04   		subl	$4, %esp
 165:../../MMI/Resource/ThreadPool.cpp ****     for (ThreadList::iterator iter = m_threads.begin(); !hWait && iter != m_threads.end(); ++iter)
 5741              	LM115:
 5742 1020 8B4508   		movl	8(%ebp), %eax
 5743              	LBB21:
 5744 1023 83C008   		addl	$8, %eax
 5745 1026 890424   		movl	%eax, (%esp)
GAS LISTING h:/6261A/11CW1352MP_BIRD61A_11C_V33_GPRS_MMI/plutommi/Customer/ResGenerator/gcctmp/ccEHcaaa.s 			page 43


 5746 1029 E8000000 		call	__ZNSt6vectorIN10ThreadPool10ThreadDataESaIS1_EE5beginEv
 5746      00
 5747 102e 8945F8   		movl	%eax, -8(%ebp)
 5748              	L135:
 5749 1031 837DFC00 		cmpl	$0, -4(%ebp)
 5750 1035 7559     		jne	L136
 5751 1037 8B4508   		movl	8(%ebp), %eax
 5752 103a 83C008   		addl	$8, %eax
 5753 103d 890424   		movl	%eax, (%esp)
 5754 1040 E8000000 		call	__ZNSt6vectorIN10ThreadPool10ThreadDataESaIS1_EE3endEv
 5754      00
 5755 1045 8945F4   		movl	%eax, -12(%ebp)
 5756 1048 8D45F4   		leal	-12(%ebp), %eax
 5757 104b 89442404 		movl	%eax, 4(%esp)
 5758 104f 8D45F8   		leal	-8(%ebp), %eax
 5759 1052 890424   		movl	%eax, (%esp)
 5760 1055 E8000000 		call	__ZN9__gnu_cxxneIPN10ThreadPool10ThreadDataESt6vectorIS2_SaIS2_EEEEbRKNS_17__normal_iteratorI
 5760      00
 5761 105a 84C0     		testb	%al, %al
 5762 105c 7502     		jne	L138
 5763 105e EB30     		jmp	L136
 5764              	L138:
 166:../../MMI/Resource/ThreadPool.cpp ****         if (iter->dwThreadId == dwThreadId)
 5766              	LM116:
 5767 1060 8D45F8   		leal	-8(%ebp), %eax
 5768 1063 890424   		movl	%eax, (%esp)
 5769 1066 E8000000 		call	__ZNK9__gnu_cxx17__normal_iteratorIPN10ThreadPool10ThreadDataESt6vectorIS2_SaIS2_EEEptEv
 5769      00
 5770 106b 8B4008   		movl	8(%eax), %eax
 5771 106e 3B450C   		cmpl	12(%ebp), %eax
 5772 1071 7510     		jne	L137
 167:../../MMI/Resource/ThreadPool.cpp ****             hWait = iter->hWait;
 5774              	LM117:
 5775 1073 8D45F8   		leal	-8(%ebp), %eax
 5776 1076 890424   		movl	%eax, (%esp)
 5777 1079 E8000000 		call	__ZNK9__gnu_cxx17__normal_iteratorIPN10ThreadPool10ThreadDataESt6vectorIS2_SaIS2_EEEptEv
 5777      00
 5778 107e 8B00     		movl	(%eax), %eax
 5779 1080 8945FC   		movl	%eax, -4(%ebp)
 5781              	LM118:
 5782              	L137:
 5783 1083 8D45F8   		leal	-8(%ebp), %eax
 5784 1086 890424   		movl	%eax, (%esp)
 5785 1089 E8000000 		call	__ZN9__gnu_cxx17__normal_iteratorIPN10ThreadPool10ThreadDataESt6vectorIS2_SaIS2_EEEppEv
 5785      00
 5786 108e EBA1     		jmp	L135
 5787              	L136:
 168:../../MMI/Resource/ThreadPool.cpp ****     LeaveCriticalSection(&m_cs);
 5789              	LM119:
 5790 1090 8B4508   		movl	8(%ebp), %eax
 5791              	LBE21:
 5792 1093 83C01C   		addl	$28, %eax
 5793 1096 890424   		movl	%eax, (%esp)
 5794 1099 E8000000 		call	_LeaveCriticalSection@4
 5794      00
 5795 109e 83EC04   		subl	$4, %esp
 169:../../MMI/Resource/ThreadPool.cpp ****     return hWait;
GAS LISTING h:/6261A/11CW1352MP_BIRD61A_11C_V33_GPRS_MMI/plutommi/Customer/ResGenerator/gcctmp/ccEHcaaa.s 			page 44


 5797              	LM120:
 5798 10a1 8B45FC   		movl	-4(%ebp), %eax
 170:../../MMI/Resource/ThreadPool.cpp **** }
 5800              	LM121:
 5801 10a4 C9       		leave
 5802 10a5 C3       		ret
 5803              	LBE20:
 5810              	Lscope10:
 5812              	LC13:
 5813 10a6 4E554C4C 		.ascii "NULL != pool\0"
 5813      20213D20 
 5813      706F6F6C 
 5813      00
 5814              	LC14:
 5815 10b3 57616974 		.ascii "Wait failed\0"
 5815      20666169 
 5815      6C656400 
 5816 10bf 90       		.align 2
 5819              	.globl __ZN10ThreadPool10ThreadProcEPv@4
 5821              	__ZN10ThreadPool10ThreadProcEPv@4:
 171:../../MMI/Resource/ThreadPool.cpp **** 
 172:../../MMI/Resource/ThreadPool.cpp **** // static method:
 173:../../MMI/Resource/ThreadPool.cpp **** // This is the worker thread function which will run
 174:../../MMI/Resource/ThreadPool.cpp **** // continuously till the Thread Pool is deleted.
 175:../../MMI/Resource/ThreadPool.cpp **** UINT __stdcall ThreadPool::ThreadProc(LPVOID pParam)
 176:../../MMI/Resource/ThreadPool.cpp **** {
 5823              	LM122:
 5824 10c0 55       		pushl	%ebp
 5825 10c1 89E5     		movl	%esp, %ebp
 5826 10c3 56       		pushl	%esi
 5827 10c4 53       		pushl	%ebx
 5828 10c5 83EC70   		subl	$112, %esp
 177:../../MMI/Resource/ThreadPool.cpp ****     ThreadPool* pool = static_cast<ThreadPool*>(pParam);
 5830              	LM123:
 5831              	LBB22:
 5832 10c8 8B4508   		movl	8(%ebp), %eax
 5833 10cb 8945F4   		movl	%eax, -12(%ebp)
 178:../../MMI/Resource/ThreadPool.cpp ****     assert(NULL != pool);
 5835              	LM124:
 5836 10ce 837DF400 		cmpl	$0, -12(%ebp)
 5837 10d2 751C     		jne	L143
 5838 10d4 C7442408 		movl	$178, 8(%esp)
 5838      B2000000 
 5839 10dc C7442404 		movl	$LC3, 4(%esp)
 5839      E0070000 
 5840 10e4 C70424A6 		movl	$LC13, (%esp)
 5840      100000
 5841 10eb E8000000 		call	__assert
 5841      00
 5842              	L143:
 179:../../MMI/Resource/ThreadPool.cpp ****     if (pool == NULL)
 5844              	LM125:
 5845 10f0 837DF400 		cmpl	$0, -12(%ebp)
 5846 10f4 750C     		jne	L144
 180:../../MMI/Resource/ThreadPool.cpp ****         return 1;
 5848              	LM126:
 5849 10f6 C745A401 		movl	$1, -92(%ebp)
GAS LISTING h:/6261A/11CW1352MP_BIRD61A_11C_V33_GPRS_MMI/plutommi/Customer/ResGenerator/gcctmp/ccEHcaaa.s 			page 45


 5849      000000
 5850 10fd E9080200 		jmp	L141
 5850      00
 5851              	L144:
 181:../../MMI/Resource/ThreadPool.cpp **** 
 182:../../MMI/Resource/ThreadPool.cpp ****     DWORD dwThreadId = GetCurrentThreadId();
 5853              	LM127:
 5854 1102 E8000000 		call	_GetCurrentThreadId@0
 5854      00
 5855 1107 8945F0   		movl	%eax, -16(%ebp)
 183:../../MMI/Resource/ThreadPool.cpp ****     HANDLE hWaits[2] = { pool->GetWaitHandle(dwThreadId), pool->m_hNotifyShutdown };
 5857              	LM128:
 5858 110a 8B45F0   		movl	-16(%ebp), %eax
 5859 110d 89442404 		movl	%eax, 4(%esp)
 5860 1111 8B45F4   		movl	-12(%ebp), %eax
 5861 1114 890424   		movl	%eax, (%esp)
 5862 1117 E8E6FEFF 		call	__ZN10ThreadPool13GetWaitHandleEm
 5862      FF
 5863 111c 89C3     		movl	%eax, %ebx
 5864 111e 8B45F4   		movl	-12(%ebp), %eax
 5865 1121 8B7018   		movl	24(%eax), %esi
 5866 1124 895DE8   		movl	%ebx, -24(%ebp)
 5867 1127 8975EC   		movl	%esi, -20(%ebp)
 184:../../MMI/Resource/ThreadPool.cpp ****     bool bContinue = true;
 5869              	LM129:
 5870 112a C645E701 		movb	$1, -25(%ebp)
 185:../../MMI/Resource/ThreadPool.cpp ****     while (bContinue)
 5872              	LM130:
 5873              	L145:
 5874 112e 807DE700 		cmpb	$0, -25(%ebp)
 5875 1132 7505     		jne	L147
 5876 1134 E9BC0100 		jmp	L146
 5876      00
 5877              	L147:
 186:../../MMI/Resource/ThreadPool.cpp ****     {
 187:../../MMI/Resource/ThreadPool.cpp ****         DWORD waitResult = WaitForMultipleObjects(2, hWaits, FALSE, INFINITE);
 5879              	LM131:
 5880              	LBB23:
 5881              	LBB24:
 5882 1139 C744240C 		movl	$-1, 12(%esp)
 5882      FFFFFFFF 
 5883 1141 C7442408 		movl	$0, 8(%esp)
 5883      00000000 
 5884 1149 8D45E8   		leal	-24(%ebp), %eax
 5885 114c 89442404 		movl	%eax, 4(%esp)
 5886 1150 C7042402 		movl	$2, (%esp)
 5886      000000
 5887 1157 E8000000 		call	_WaitForMultipleObjects@16
 5887      00
 5888 115c 83EC10   		subl	$16, %esp
 5889 115f 8945E0   		movl	%eax, -32(%ebp)
 188:../../MMI/Resource/ThreadPool.cpp ****         if (waitResult == WAIT_FAILED)
 5891              	LM132:
 5892 1162 837DE0FF 		cmpl	$-1, -32(%ebp)
 5893 1166 752A     		jne	L148
 189:../../MMI/Resource/ThreadPool.cpp ****             throw "Wait failed";
 5895              	LM133:
GAS LISTING h:/6261A/11CW1352MP_BIRD61A_11C_V33_GPRS_MMI/plutommi/Customer/ResGenerator/gcctmp/ccEHcaaa.s 			page 46


 5896 1168 C7042404 		movl	$4, (%esp)
 5896      000000
 5897 116f E8000000 		call	___cxa_allocate_exception
 5897      00
 5898 1174 C700B310 		movl	$LC14, (%eax)
 5898      0000
 5899              	L149:
 5900 117a C7442408 		movl	$0, 8(%esp)
 5900      00000000 
 5901 1182 C7442404 		movl	$__ZTIPKc, 4(%esp)
 5901      00000000 
 5902 118a 890424   		movl	%eax, (%esp)
 5903 118d E8000000 		call	___cxa_throw
 5903      00
 5904              	L148:
 190:../../MMI/Resource/ThreadPool.cpp ****         if (waitResult == WAIT_OBJECT_0 || waitResult == WAIT_OBJECT_0 + 1)
 5906              	LM134:
 5907              	LBB25:
 5908 1192 837DE000 		cmpl	$0, -32(%ebp)
 5909 1196 7408     		je	L152
 5910 1198 837DE001 		cmpl	$1, -32(%ebp)
 5911 119c 7402     		je	L152
 5912 119e EB8E     		jmp	L145
 5913              	L152:
 191:../../MMI/Resource/ThreadPool.cpp ****         {
 192:../../MMI/Resource/ThreadPool.cpp ****             // Shutting down?
 193:../../MMI/Resource/ThreadPool.cpp ****             if (pool->CheckThreadStop())
 5915              	LM135:
 5916              	LBB26:
 5917 11a0 8B45F4   		movl	-12(%ebp), %eax
 5918 11a3 890424   		movl	%eax, (%esp)
 5919 11a6 E8000000 		call	__ZN10ThreadPool15CheckThreadStopEv
 5919      00
 5920 11ab 84C0     		testb	%al, %al
 5921 11ad 7405     		je	L153
 194:../../MMI/Resource/ThreadPool.cpp ****                 break;
 5923              	LM136:
 5924 11af E9410100 		jmp	L146
 5924      00
 5925              	L153:
 195:../../MMI/Resource/ThreadPool.cpp **** 
 196:../../MMI/Resource/ThreadPool.cpp ****             // We have been woken up.  Get the next available job
 197:../../MMI/Resource/ThreadPool.cpp ****             EnterCriticalSection(&pool->m_cs);
 5927              	LM137:
 5928 11b4 8B45F4   		movl	-12(%ebp), %eax
 5929 11b7 83C01C   		addl	$28, %eax
 5930 11ba 890424   		movl	%eax, (%esp)
 5931 11bd E8000000 		call	_EnterCriticalSection@4
 5931      00
 5932 11c2 83EC04   		subl	$4, %esp
 198:../../MMI/Resource/ThreadPool.cpp ****             JobList::iterator iter = pool->m_jobList.begin();
 5934              	LM138:
 5935 11c5 8D55C8   		leal	-56(%ebp), %edx
 5936 11c8 8B45F4   		movl	-12(%ebp), %eax
 5937 11cb 83C004   		addl	$4, %eax
 5938 11ce 89442404 		movl	%eax, 4(%esp)
 5939 11d2 891424   		movl	%edx, (%esp)
GAS LISTING h:/6261A/11CW1352MP_BIRD61A_11C_V33_GPRS_MMI/plutommi/Customer/ResGenerator/gcctmp/ccEHcaaa.s 			page 47


 5940 11d5 E8000000 		call	__ZNSt4listIN10ThreadPool7JobDataESaIS1_EE5beginEv
 5940      00
 5941 11da 83EC04   		subl	$4, %esp
 199:../../MMI/Resource/ThreadPool.cpp ****             if (iter == pool->m_jobList.end())
 5943              	LM139:
 5944              	LBB27:
 5945 11dd 8D55B8   		leal	-72(%ebp), %edx
 5946 11e0 8B45F4   		movl	-12(%ebp), %eax
 5947 11e3 83C004   		addl	$4, %eax
 5948 11e6 89442404 		movl	%eax, 4(%esp)
 5949 11ea 891424   		movl	%edx, (%esp)
 5950 11ed E8000000 		call	__ZNSt4listIN10ThreadPool7JobDataESaIS1_EE3endEv
 5950      00
 5951 11f2 83EC04   		subl	$4, %esp
 5952 11f5 8D45B8   		leal	-72(%ebp), %eax
 5953 11f8 89442404 		movl	%eax, 4(%esp)
 5954 11fc 8D45C8   		leal	-56(%ebp), %eax
 5955 11ff 890424   		movl	%eax, (%esp)
 5956 1202 E8000000 		call	__ZNKSt19_List_iterator_baseeqERKS_
 5956      00
 5957 1207 84C0     		testb	%al, %al
 5958 1209 7424     		je	L154
 200:../../MMI/Resource/ThreadPool.cpp ****             {
 201:../../MMI/Resource/ThreadPool.cpp ****                 // No job available, go back to sleep
 202:../../MMI/Resource/ThreadPool.cpp ****                 ResetEvent(hWaits[0]);
 5960              	LM140:
 5961 120b 8B45E8   		movl	-24(%ebp), %eax
 5962 120e 890424   		movl	%eax, (%esp)
 5963 1211 E8000000 		call	_ResetEvent@4
 5963      00
 5964 1216 83EC04   		subl	$4, %esp
 203:../../MMI/Resource/ThreadPool.cpp ****                 LeaveCriticalSection(&pool->m_cs);
 5966              	LM141:
 5967 1219 8B45F4   		movl	-12(%ebp), %eax
 5968 121c 83C01C   		addl	$28, %eax
 5969 121f 890424   		movl	%eax, (%esp)
 5970 1222 E8000000 		call	_LeaveCriticalSection@4
 5970      00
 5971 1227 83EC04   		subl	$4, %esp
 204:../../MMI/Resource/ThreadPool.cpp ****                 continue;
 5973              	LM142:
 5974 122a E9FFFEFF 		jmp	L145
 5974      FF
 5975              	L154:
 205:../../MMI/Resource/ThreadPool.cpp ****             }
 206:../../MMI/Resource/ThreadPool.cpp ****             else
 207:../../MMI/Resource/ThreadPool.cpp ****             {
 208:../../MMI/Resource/ThreadPool.cpp ****                 // Get the job and remove it from the queue
 209:../../MMI/Resource/ThreadPool.cpp ****                 LPTHREAD_START_ROUTINE proc = iter->lpStartAddress;
 5977              	LM143:
 5978              	LBB28:
 5979 122f 8D45C8   		leal	-56(%ebp), %eax
 5980 1232 890424   		movl	%eax, (%esp)
 5981 1235 E8000000 		call	__ZNKSt14_List_iteratorIN10ThreadPool7JobDataERS1_PS1_EptEv
 5981      00
 5982 123a 8B00     		movl	(%eax), %eax
 5983 123c 8945B4   		movl	%eax, -76(%ebp)
GAS LISTING h:/6261A/11CW1352MP_BIRD61A_11C_V33_GPRS_MMI/plutommi/Customer/ResGenerator/gcctmp/ccEHcaaa.s 			page 48


 210:../../MMI/Resource/ThreadPool.cpp ****                 LPVOID data = iter->pData;
 5985              	LM144:
 5986 123f 8D45C8   		leal	-56(%ebp), %eax
 5987 1242 890424   		movl	%eax, (%esp)
 5988 1245 E8000000 		call	__ZNKSt14_List_iteratorIN10ThreadPool7JobDataERS1_PS1_EptEv
 5988      00
 5989 124a 8B4004   		movl	4(%eax), %eax
 5990 124d 8945B0   		movl	%eax, -80(%ebp)
 211:../../MMI/Resource/ThreadPool.cpp ****                 IRunObject* runObject = iter->runObject;
 5992              	LM145:
 5993 1250 8D45C8   		leal	-56(%ebp), %eax
 5994 1253 890424   		movl	%eax, (%esp)
 5995 1256 E8000000 		call	__ZNKSt14_List_iteratorIN10ThreadPool7JobDataERS1_PS1_EptEv
 5995      00
 5996 125b 8B4008   		movl	8(%eax), %eax
 5997 125e 8945AC   		movl	%eax, -84(%ebp)
 212:../../MMI/Resource/ThreadPool.cpp ****                 pool->m_jobList.pop_front();
 5999              	LM146:
 6000 1261 8B45F4   		movl	-12(%ebp), %eax
 6001 1264 83C004   		addl	$4, %eax
 6002 1267 890424   		movl	%eax, (%esp)
 6003 126a E8000000 		call	__ZNSt4listIN10ThreadPool7JobDataESaIS1_EE9pop_frontEv
 6003      00
 213:../../MMI/Resource/ThreadPool.cpp ****                 LeaveCriticalSection(&pool->m_cs);
 6005              	LM147:
 6006 126f 8B45F4   		movl	-12(%ebp), %eax
 6007 1272 83C01C   		addl	$28, %eax
 6008 1275 890424   		movl	%eax, (%esp)
 6009 1278 E8000000 		call	_LeaveCriticalSection@4
 6009      00
 6010 127d 83EC04   		subl	$4, %esp
 214:../../MMI/Resource/ThreadPool.cpp **** 
 215:../../MMI/Resource/ThreadPool.cpp ****                 // Run the job
 216:../../MMI/Resource/ThreadPool.cpp ****                 if (proc)
 6012              	LM148:
 6013              	LBB29:
 6014 1280 837DB400 		cmpl	$0, -76(%ebp)
 6015 1284 7413     		je	L156
 217:../../MMI/Resource/ThreadPool.cpp ****                     proc(data);
 6017              	LM149:
 6018 1286 8B45B0   		movl	-80(%ebp), %eax
 6019 1289 890424   		movl	%eax, (%esp)
 6020 128c 8B45B4   		movl	-76(%ebp), %eax
 6021 128f FFD0     		call	*%eax
 6022 1291 83EC04   		subl	$4, %esp
 6023 1294 E995FEFF 		jmp	L145
 6023      FF
 6024              	L156:
 218:../../MMI/Resource/ThreadPool.cpp ****                 else if (runObject)
 6026              	LM150:
 6027              	LBB30:
 6028              	LBB31:
 6029 1299 837DAC00 		cmpl	$0, -84(%ebp)
 6030 129d 0F848BFE 		je	L145
 6030      FFFF
 219:../../MMI/Resource/ThreadPool.cpp ****                 {
 220:../../MMI/Resource/ThreadPool.cpp ****                     bool autoDelete = runObject->AutoDelete();
GAS LISTING h:/6261A/11CW1352MP_BIRD61A_11C_V33_GPRS_MMI/plutommi/Customer/ResGenerator/gcctmp/ccEHcaaa.s 			page 49


 6032              	LM151:
 6033              	LBB32:
 6034 12a3 8B45AC   		movl	-84(%ebp), %eax
 6035 12a6 8B10     		movl	(%eax), %edx
 6036 12a8 83C20C   		addl	$12, %edx
 6037 12ab 8B45AC   		movl	-84(%ebp), %eax
 6038 12ae 890424   		movl	%eax, (%esp)
 6039 12b1 8B02     		movl	(%edx), %eax
 6040 12b3 FFD0     		call	*%eax
 6041 12b5 8845AB   		movb	%al, -85(%ebp)
 221:../../MMI/Resource/ThreadPool.cpp ****                     runObject->Run(); // may execute "delete this"
 6043              	LM152:
 6044 12b8 8B45AC   		movl	-84(%ebp), %eax
 6045 12bb 8B10     		movl	(%eax), %edx
 6046 12bd 83C208   		addl	$8, %edx
 6047 12c0 8B45AC   		movl	-84(%ebp), %eax
 6048 12c3 890424   		movl	%eax, (%esp)
 6049 12c6 8B02     		movl	(%edx), %eax
 6050 12c8 FFD0     		call	*%eax
 222:../../MMI/Resource/ThreadPool.cpp ****                     if (autoDelete)
 6052              	LM153:
 6053 12ca 807DAB00 		cmpb	$0, -85(%ebp)
 6054 12ce 0F845AFE 		je	L145
 6054      FFFF
 223:../../MMI/Resource/ThreadPool.cpp ****                         delete runObject;
 6056              	LM154:
 6057 12d4 837DAC00 		cmpl	$0, -84(%ebp)
 6058 12d8 0F8450FE 		je	L145
 6058      FFFF
 6059 12de 8B45AC   		movl	-84(%ebp), %eax
 6060 12e1 8B10     		movl	(%eax), %edx
 6061 12e3 83C204   		addl	$4, %edx
 6062 12e6 8B45AC   		movl	-84(%ebp), %eax
 6063 12e9 890424   		movl	%eax, (%esp)
 6064 12ec 8B02     		movl	(%edx), %eax
 6065 12ee FFD0     		call	*%eax
 6066 12f0 E939FEFF 		jmp	L145
 6066      FF
 6067              	L146:
 224:../../MMI/Resource/ThreadPool.cpp ****                 }
 225:../../MMI/Resource/ThreadPool.cpp ****             }
 226:../../MMI/Resource/ThreadPool.cpp ****         }
 227:../../MMI/Resource/ThreadPool.cpp ****     }
 228:../../MMI/Resource/ThreadPool.cpp ****     // Thread is shutting down
 229:../../MMI/Resource/ThreadPool.cpp ****     ResetEvent(hWaits[0]);
 6069              	LM155:
 6070              	LBE32:
 6071              	LBE31:
 6072              	LBE30:
 6073              	LBE29:
 6074              	LBE28:
 6075              	LBE27:
 6076              	LBE26:
 6077              	LBE25:
 6078              	LBE24:
 6079              	LBE23:
 6080 12f5 8B45E8   		movl	-24(%ebp), %eax
GAS LISTING h:/6261A/11CW1352MP_BIRD61A_11C_V33_GPRS_MMI/plutommi/Customer/ResGenerator/gcctmp/ccEHcaaa.s 			page 50


 6081 12f8 890424   		movl	%eax, (%esp)
 6082 12fb E8000000 		call	_ResetEvent@4
 6082      00
 6083 1300 83EC04   		subl	$4, %esp
 230:../../MMI/Resource/ThreadPool.cpp ****     return 0;
 6085              	LM156:
 6086 1303 C745A400 		movl	$0, -92(%ebp)
 6086      000000
 231:../../MMI/Resource/ThreadPool.cpp **** }
 6088              	LM157:
 6089              	L141:
 6090              	LBE22:
 6091 130a 8B45A4   		movl	-92(%ebp), %eax
 6092 130d 8D65F8   		leal	-8(%ebp), %esp
 6093 1310 5B       		popl	%ebx
 6094 1311 5E       		popl	%esi
 6095 1312 5D       		popl	%ebp
 6096 1313 C20400   		ret	$4
 6117              	Lscope11:
 6119              		.section	.text$_ZNSaIN10ThreadPool7JobDataEEC1Ev,"x"
 6120              		.linkonce discard
 6121              		.align 2
 6124              	.globl __ZNSaIN10ThreadPool7JobDataEEC1Ev
 6126              	__ZNSaIN10ThreadPool7JobDataEEC1Ev:
 6128              	Ltext3:
   1:h:/6261A/11CW1352MP_BIRD61A_11C_V33_GPRS_MMI/Tools/MinGW/include/c++/3.3.1/bits/stl_alloc.h **** // Allocators -*- C++ -*-
   2:h:/6261A/11CW1352MP_BIRD61A_11C_V33_GPRS_MMI/Tools/MinGW/include/c++/3.3.1/bits/stl_alloc.h **** 
   3:h:/6261A/11CW1352MP_BIRD61A_11C_V33_GPRS_MMI/Tools/MinGW/include/c++/3.3.1/bits/stl_alloc.h **** // Copyright (C) 2001, 2002, 2003 Free Software Foundation, Inc.
   4:h:/6261A/11CW1352MP_BIRD61A_11C_V33_GPRS_MMI/Tools/MinGW/include/c++/3.3.1/bits/stl_alloc.h **** //
   5:h:/6261A/11CW1352MP_BIRD61A_11C_V33_GPRS_MMI/Tools/MinGW/include/c++/3.3.1/bits/stl_alloc.h **** // This file is part of the GNU ISO C++ Library.  This library is free
   6:h:/6261A/11CW1352MP_BIRD61A_11C_V33_GPRS_MMI/Tools/MinGW/include/c++/3.3.1/bits/stl_alloc.h **** // software; you can redistribute it and/or modify it under the
   7:h:/6261A/11CW1352MP_BIRD61A_11C_V33_GPRS_MMI/Tools/MinGW/include/c++/3.3.1/bits/stl_alloc.h **** // terms of the GNU General Public License as published by the
   8:h:/6261A/11CW1352MP_BIRD61A_11C_V33_GPRS_MMI/Tools/MinGW/include/c++/3.3.1/bits/stl_alloc.h **** // Free Software Foundation; either version 2, or (at your option)
   9:h:/6261A/11CW1352MP_BIRD61A_11C_V33_GPRS_MMI/Tools/MinGW/include/c++/3.3.1/bits/stl_alloc.h **** // any later version.
  10:h:/6261A/11CW1352MP_BIRD61A_11C_V33_GPRS_MMI/Tools/MinGW/include/c++/3.3.1/bits/stl_alloc.h **** 
  11:h:/6261A/11CW1352MP_BIRD61A_11C_V33_GPRS_MMI/Tools/MinGW/include/c++/3.3.1/bits/stl_alloc.h **** // This library is distributed in the hope that it will be useful,
  12:h:/6261A/11CW1352MP_BIRD61A_11C_V33_GPRS_MMI/Tools/MinGW/include/c++/3.3.1/bits/stl_alloc.h **** // but WITHOUT ANY WARRANTY; without even the implied warranty of
  13:h:/6261A/11CW1352MP_BIRD61A_11C_V33_GPRS_MMI/Tools/MinGW/include/c++/3.3.1/bits/stl_alloc.h **** // MERCHANTABILITY or FITNESS FOR A PARTICULAR PURPOSE.  See the
  14:h:/6261A/11CW1352MP_BIRD61A_11C_V33_GPRS_MMI/Tools/MinGW/include/c++/3.3.1/bits/stl_alloc.h **** // GNU General Public License for more details.
  15:h:/6261A/11CW1352MP_BIRD61A_11C_V33_GPRS_MMI/Tools/MinGW/include/c++/3.3.1/bits/stl_alloc.h **** 
  16:h:/6261A/11CW1352MP_BIRD61A_11C_V33_GPRS_MMI/Tools/MinGW/include/c++/3.3.1/bits/stl_alloc.h **** // You should have received a copy of the GNU General Public License along
  17:h:/6261A/11CW1352MP_BIRD61A_11C_V33_GPRS_MMI/Tools/MinGW/include/c++/3.3.1/bits/stl_alloc.h **** // with this library; see the file COPYING.  If not, write to the Free
  18:h:/6261A/11CW1352MP_BIRD61A_11C_V33_GPRS_MMI/Tools/MinGW/include/c++/3.3.1/bits/stl_alloc.h **** // Software Foundation, 59 Temple Place - Suite 330, Boston, MA 02111-1307,
  19:h:/6261A/11CW1352MP_BIRD61A_11C_V33_GPRS_MMI/Tools/MinGW/include/c++/3.3.1/bits/stl_alloc.h **** // USA.
  20:h:/6261A/11CW1352MP_BIRD61A_11C_V33_GPRS_MMI/Tools/MinGW/include/c++/3.3.1/bits/stl_alloc.h **** 
  21:h:/6261A/11CW1352MP_BIRD61A_11C_V33_GPRS_MMI/Tools/MinGW/include/c++/3.3.1/bits/stl_alloc.h **** // As a special exception, you may use this file as part of a free software
  22:h:/6261A/11CW1352MP_BIRD61A_11C_V33_GPRS_MMI/Tools/MinGW/include/c++/3.3.1/bits/stl_alloc.h **** // library without restriction.  Specifically, if other files instantiate
  23:h:/6261A/11CW1352MP_BIRD61A_11C_V33_GPRS_MMI/Tools/MinGW/include/c++/3.3.1/bits/stl_alloc.h **** // templates or use macros or inline functions from this file, or you compile
  24:h:/6261A/11CW1352MP_BIRD61A_11C_V33_GPRS_MMI/Tools/MinGW/include/c++/3.3.1/bits/stl_alloc.h **** // this file and link it with other files to produce an executable, this
  25:h:/6261A/11CW1352MP_BIRD61A_11C_V33_GPRS_MMI/Tools/MinGW/include/c++/3.3.1/bits/stl_alloc.h **** // file does not by itself cause the resulting executable to be covered by
  26:h:/6261A/11CW1352MP_BIRD61A_11C_V33_GPRS_MMI/Tools/MinGW/include/c++/3.3.1/bits/stl_alloc.h **** // the GNU General Public License.  This exception does not however
  27:h:/6261A/11CW1352MP_BIRD61A_11C_V33_GPRS_MMI/Tools/MinGW/include/c++/3.3.1/bits/stl_alloc.h **** // invalidate any other reasons why the executable file might be covered by
  28:h:/6261A/11CW1352MP_BIRD61A_11C_V33_GPRS_MMI/Tools/MinGW/include/c++/3.3.1/bits/stl_alloc.h **** // the GNU General Public License.
  29:h:/6261A/11CW1352MP_BIRD61A_11C_V33_GPRS_MMI/Tools/MinGW/include/c++/3.3.1/bits/stl_alloc.h **** 
  30:h:/6261A/11CW1352MP_BIRD61A_11C_V33_GPRS_MMI/Tools/MinGW/include/c++/3.3.1/bits/stl_alloc.h **** /*
  31:h:/6261A/11CW1352MP_BIRD61A_11C_V33_GPRS_MMI/Tools/MinGW/include/c++/3.3.1/bits/stl_alloc.h ****  * Copyright (c) 1996-1997
  32:h:/6261A/11CW1352MP_BIRD61A_11C_V33_GPRS_MMI/Tools/MinGW/include/c++/3.3.1/bits/stl_alloc.h ****  * Silicon Graphics Computer Systems, Inc.
GAS LISTING h:/6261A/11CW1352MP_BIRD61A_11C_V33_GPRS_MMI/plutommi/Customer/ResGenerator/gcctmp/ccEHcaaa.s 			page 51


  33:h:/6261A/11CW1352MP_BIRD61A_11C_V33_GPRS_MMI/Tools/MinGW/include/c++/3.3.1/bits/stl_alloc.h ****  *
  34:h:/6261A/11CW1352MP_BIRD61A_11C_V33_GPRS_MMI/Tools/MinGW/include/c++/3.3.1/bits/stl_alloc.h ****  * Permission to use, copy, modify, distribute and sell this software
  35:h:/6261A/11CW1352MP_BIRD61A_11C_V33_GPRS_MMI/Tools/MinGW/include/c++/3.3.1/bits/stl_alloc.h ****  * and its documentation for any purpose is hereby granted without fee,
  36:h:/6261A/11CW1352MP_BIRD61A_11C_V33_GPRS_MMI/Tools/MinGW/include/c++/3.3.1/bits/stl_alloc.h ****  * provided that the above copyright notice appear in all copies and
  37:h:/6261A/11CW1352MP_BIRD61A_11C_V33_GPRS_MMI/Tools/MinGW/include/c++/3.3.1/bits/stl_alloc.h ****  * that both that copyright notice and this permission notice appear
  38:h:/6261A/11CW1352MP_BIRD61A_11C_V33_GPRS_MMI/Tools/MinGW/include/c++/3.3.1/bits/stl_alloc.h ****  * in supporting documentation.  Silicon Graphics makes no
  39:h:/6261A/11CW1352MP_BIRD61A_11C_V33_GPRS_MMI/Tools/MinGW/include/c++/3.3.1/bits/stl_alloc.h ****  * representations about the suitability of this software for any
  40:h:/6261A/11CW1352MP_BIRD61A_11C_V33_GPRS_MMI/Tools/MinGW/include/c++/3.3.1/bits/stl_alloc.h ****  * purpose.  It is provided "as is" without express or implied warranty.
  41:h:/6261A/11CW1352MP_BIRD61A_11C_V33_GPRS_MMI/Tools/MinGW/include/c++/3.3.1/bits/stl_alloc.h ****  */
  42:h:/6261A/11CW1352MP_BIRD61A_11C_V33_GPRS_MMI/Tools/MinGW/include/c++/3.3.1/bits/stl_alloc.h **** 
  43:h:/6261A/11CW1352MP_BIRD61A_11C_V33_GPRS_MMI/Tools/MinGW/include/c++/3.3.1/bits/stl_alloc.h **** /** @file stl_alloc.h
  44:h:/6261A/11CW1352MP_BIRD61A_11C_V33_GPRS_MMI/Tools/MinGW/include/c++/3.3.1/bits/stl_alloc.h ****  *  This is an internal header file, included by other library headers.
  45:h:/6261A/11CW1352MP_BIRD61A_11C_V33_GPRS_MMI/Tools/MinGW/include/c++/3.3.1/bits/stl_alloc.h ****  *  You should not attempt to use it directly.
  46:h:/6261A/11CW1352MP_BIRD61A_11C_V33_GPRS_MMI/Tools/MinGW/include/c++/3.3.1/bits/stl_alloc.h ****  */
  47:h:/6261A/11CW1352MP_BIRD61A_11C_V33_GPRS_MMI/Tools/MinGW/include/c++/3.3.1/bits/stl_alloc.h **** 
  48:h:/6261A/11CW1352MP_BIRD61A_11C_V33_GPRS_MMI/Tools/MinGW/include/c++/3.3.1/bits/stl_alloc.h **** #ifndef __GLIBCPP_INTERNAL_ALLOC_H
  49:h:/6261A/11CW1352MP_BIRD61A_11C_V33_GPRS_MMI/Tools/MinGW/include/c++/3.3.1/bits/stl_alloc.h **** #define __GLIBCPP_INTERNAL_ALLOC_H
  50:h:/6261A/11CW1352MP_BIRD61A_11C_V33_GPRS_MMI/Tools/MinGW/include/c++/3.3.1/bits/stl_alloc.h **** 
  51:h:/6261A/11CW1352MP_BIRD61A_11C_V33_GPRS_MMI/Tools/MinGW/include/c++/3.3.1/bits/stl_alloc.h **** /**
  52:h:/6261A/11CW1352MP_BIRD61A_11C_V33_GPRS_MMI/Tools/MinGW/include/c++/3.3.1/bits/stl_alloc.h ****  *  @defgroup Allocators Memory Allocators
  53:h:/6261A/11CW1352MP_BIRD61A_11C_V33_GPRS_MMI/Tools/MinGW/include/c++/3.3.1/bits/stl_alloc.h ****  *  @if maint
  54:h:/6261A/11CW1352MP_BIRD61A_11C_V33_GPRS_MMI/Tools/MinGW/include/c++/3.3.1/bits/stl_alloc.h ****  *  stl_alloc.h implements some node allocators.  These are NOT the same as
  55:h:/6261A/11CW1352MP_BIRD61A_11C_V33_GPRS_MMI/Tools/MinGW/include/c++/3.3.1/bits/stl_alloc.h ****  *  allocators in the C++ standard, nor in the original H-P STL.  They do not
  56:h:/6261A/11CW1352MP_BIRD61A_11C_V33_GPRS_MMI/Tools/MinGW/include/c++/3.3.1/bits/stl_alloc.h ****  *  encapsulate different pointer types; we assume that there is only one
  57:h:/6261A/11CW1352MP_BIRD61A_11C_V33_GPRS_MMI/Tools/MinGW/include/c++/3.3.1/bits/stl_alloc.h ****  *  pointer type.  The C++ standard allocators are intended to allocate
  58:h:/6261A/11CW1352MP_BIRD61A_11C_V33_GPRS_MMI/Tools/MinGW/include/c++/3.3.1/bits/stl_alloc.h ****  *  individual objects, not pools or arenas.
  59:h:/6261A/11CW1352MP_BIRD61A_11C_V33_GPRS_MMI/Tools/MinGW/include/c++/3.3.1/bits/stl_alloc.h ****  *
  60:h:/6261A/11CW1352MP_BIRD61A_11C_V33_GPRS_MMI/Tools/MinGW/include/c++/3.3.1/bits/stl_alloc.h ****  *  In this file allocators are of two different styles:  "standard" and
  61:h:/6261A/11CW1352MP_BIRD61A_11C_V33_GPRS_MMI/Tools/MinGW/include/c++/3.3.1/bits/stl_alloc.h ****  *  "SGI" (quotes included).  "Standard" allocators conform to 20.4.  "SGI"
  62:h:/6261A/11CW1352MP_BIRD61A_11C_V33_GPRS_MMI/Tools/MinGW/include/c++/3.3.1/bits/stl_alloc.h ****  *  allocators differ in AT LEAST the following ways (add to this list as you
  63:h:/6261A/11CW1352MP_BIRD61A_11C_V33_GPRS_MMI/Tools/MinGW/include/c++/3.3.1/bits/stl_alloc.h ****  *  discover them):
  64:h:/6261A/11CW1352MP_BIRD61A_11C_V33_GPRS_MMI/Tools/MinGW/include/c++/3.3.1/bits/stl_alloc.h ****  *
  65:h:/6261A/11CW1352MP_BIRD61A_11C_V33_GPRS_MMI/Tools/MinGW/include/c++/3.3.1/bits/stl_alloc.h ****  *   - "Standard" allocate() takes two parameters (n_count,hint=0) but "SGI"
  66:h:/6261A/11CW1352MP_BIRD61A_11C_V33_GPRS_MMI/Tools/MinGW/include/c++/3.3.1/bits/stl_alloc.h ****  *     allocate() takes one paramter (n_size).
  67:h:/6261A/11CW1352MP_BIRD61A_11C_V33_GPRS_MMI/Tools/MinGW/include/c++/3.3.1/bits/stl_alloc.h ****  *   - Likewise, "standard" deallocate()'s argument is a count, but in "SGI"
  68:h:/6261A/11CW1352MP_BIRD61A_11C_V33_GPRS_MMI/Tools/MinGW/include/c++/3.3.1/bits/stl_alloc.h ****  *     is a byte size.
  69:h:/6261A/11CW1352MP_BIRD61A_11C_V33_GPRS_MMI/Tools/MinGW/include/c++/3.3.1/bits/stl_alloc.h ****  *   - max_size(), construct(), and destroy() are missing in "SGI" allocators.
  70:h:/6261A/11CW1352MP_BIRD61A_11C_V33_GPRS_MMI/Tools/MinGW/include/c++/3.3.1/bits/stl_alloc.h ****  *   - reallocate(p,oldsz,newsz) is added in "SGI", and behaves as
  71:h:/6261A/11CW1352MP_BIRD61A_11C_V33_GPRS_MMI/Tools/MinGW/include/c++/3.3.1/bits/stl_alloc.h ****  *     if p=realloc(p,newsz).
  72:h:/6261A/11CW1352MP_BIRD61A_11C_V33_GPRS_MMI/Tools/MinGW/include/c++/3.3.1/bits/stl_alloc.h ****  *
  73:h:/6261A/11CW1352MP_BIRD61A_11C_V33_GPRS_MMI/Tools/MinGW/include/c++/3.3.1/bits/stl_alloc.h ****  *  "SGI" allocators may be wrapped in __allocator to convert the interface
  74:h:/6261A/11CW1352MP_BIRD61A_11C_V33_GPRS_MMI/Tools/MinGW/include/c++/3.3.1/bits/stl_alloc.h ****  *  into a "standard" one.
  75:h:/6261A/11CW1352MP_BIRD61A_11C_V33_GPRS_MMI/Tools/MinGW/include/c++/3.3.1/bits/stl_alloc.h ****  *  @endif
  76:h:/6261A/11CW1352MP_BIRD61A_11C_V33_GPRS_MMI/Tools/MinGW/include/c++/3.3.1/bits/stl_alloc.h ****  *
  77:h:/6261A/11CW1352MP_BIRD61A_11C_V33_GPRS_MMI/Tools/MinGW/include/c++/3.3.1/bits/stl_alloc.h ****  *  @note The @c reallocate member functions have been deprecated for 3.2
  78:h:/6261A/11CW1352MP_BIRD61A_11C_V33_GPRS_MMI/Tools/MinGW/include/c++/3.3.1/bits/stl_alloc.h ****  *        and will be removed in 3.4.  You must define @c _GLIBCPP_DEPRECATED
  79:h:/6261A/11CW1352MP_BIRD61A_11C_V33_GPRS_MMI/Tools/MinGW/include/c++/3.3.1/bits/stl_alloc.h ****  *        to make this visible in 3.2; see c++config.h.
  80:h:/6261A/11CW1352MP_BIRD61A_11C_V33_GPRS_MMI/Tools/MinGW/include/c++/3.3.1/bits/stl_alloc.h ****  *
  81:h:/6261A/11CW1352MP_BIRD61A_11C_V33_GPRS_MMI/Tools/MinGW/include/c++/3.3.1/bits/stl_alloc.h ****  *  The canonical description of these classes is in docs/html/ext/howto.html
  82:h:/6261A/11CW1352MP_BIRD61A_11C_V33_GPRS_MMI/Tools/MinGW/include/c++/3.3.1/bits/stl_alloc.h ****  *  or online at http://gcc.gnu.org/onlinedocs/libstdc++/ext/howto.html#3
  83:h:/6261A/11CW1352MP_BIRD61A_11C_V33_GPRS_MMI/Tools/MinGW/include/c++/3.3.1/bits/stl_alloc.h **** */
  84:h:/6261A/11CW1352MP_BIRD61A_11C_V33_GPRS_MMI/Tools/MinGW/include/c++/3.3.1/bits/stl_alloc.h **** 
  85:h:/6261A/11CW1352MP_BIRD61A_11C_V33_GPRS_MMI/Tools/MinGW/include/c++/3.3.1/bits/stl_alloc.h **** #include <cstddef>
  86:h:/6261A/11CW1352MP_BIRD61A_11C_V33_GPRS_MMI/Tools/MinGW/include/c++/3.3.1/bits/stl_alloc.h **** #include <cstdlib>
  87:h:/6261A/11CW1352MP_BIRD61A_11C_V33_GPRS_MMI/Tools/MinGW/include/c++/3.3.1/bits/stl_alloc.h **** #include <cstring>
  88:h:/6261A/11CW1352MP_BIRD61A_11C_V33_GPRS_MMI/Tools/MinGW/include/c++/3.3.1/bits/stl_alloc.h **** #include <bits/functexcept.h>   // For __throw_bad_alloc
  89:h:/6261A/11CW1352MP_BIRD61A_11C_V33_GPRS_MMI/Tools/MinGW/include/c++/3.3.1/bits/stl_alloc.h **** #include <bits/stl_threads.h>
GAS LISTING h:/6261A/11CW1352MP_BIRD61A_11C_V33_GPRS_MMI/plutommi/Customer/ResGenerator/gcctmp/ccEHcaaa.s 			page 52


  90:h:/6261A/11CW1352MP_BIRD61A_11C_V33_GPRS_MMI/Tools/MinGW/include/c++/3.3.1/bits/stl_alloc.h **** 
  91:h:/6261A/11CW1352MP_BIRD61A_11C_V33_GPRS_MMI/Tools/MinGW/include/c++/3.3.1/bits/stl_alloc.h **** #include <bits/atomicity.h>
  92:h:/6261A/11CW1352MP_BIRD61A_11C_V33_GPRS_MMI/Tools/MinGW/include/c++/3.3.1/bits/stl_alloc.h **** 
  93:h:/6261A/11CW1352MP_BIRD61A_11C_V33_GPRS_MMI/Tools/MinGW/include/c++/3.3.1/bits/stl_alloc.h **** namespace std
  94:h:/6261A/11CW1352MP_BIRD61A_11C_V33_GPRS_MMI/Tools/MinGW/include/c++/3.3.1/bits/stl_alloc.h **** {
  95:h:/6261A/11CW1352MP_BIRD61A_11C_V33_GPRS_MMI/Tools/MinGW/include/c++/3.3.1/bits/stl_alloc.h ****   /**
  96:h:/6261A/11CW1352MP_BIRD61A_11C_V33_GPRS_MMI/Tools/MinGW/include/c++/3.3.1/bits/stl_alloc.h ****    *  @if maint
  97:h:/6261A/11CW1352MP_BIRD61A_11C_V33_GPRS_MMI/Tools/MinGW/include/c++/3.3.1/bits/stl_alloc.h ****    *  A new-based allocator, as required by the standard.  Allocation and
  98:h:/6261A/11CW1352MP_BIRD61A_11C_V33_GPRS_MMI/Tools/MinGW/include/c++/3.3.1/bits/stl_alloc.h ****    *  deallocation forward to global new and delete.  "SGI" style, minus
  99:h:/6261A/11CW1352MP_BIRD61A_11C_V33_GPRS_MMI/Tools/MinGW/include/c++/3.3.1/bits/stl_alloc.h ****    *  reallocate().
 100:h:/6261A/11CW1352MP_BIRD61A_11C_V33_GPRS_MMI/Tools/MinGW/include/c++/3.3.1/bits/stl_alloc.h ****    *  @endif
 101:h:/6261A/11CW1352MP_BIRD61A_11C_V33_GPRS_MMI/Tools/MinGW/include/c++/3.3.1/bits/stl_alloc.h ****    *  (See @link Allocators allocators info @endlink for more.)
 102:h:/6261A/11CW1352MP_BIRD61A_11C_V33_GPRS_MMI/Tools/MinGW/include/c++/3.3.1/bits/stl_alloc.h ****    */
 103:h:/6261A/11CW1352MP_BIRD61A_11C_V33_GPRS_MMI/Tools/MinGW/include/c++/3.3.1/bits/stl_alloc.h ****   class __new_alloc
 104:h:/6261A/11CW1352MP_BIRD61A_11C_V33_GPRS_MMI/Tools/MinGW/include/c++/3.3.1/bits/stl_alloc.h ****   {
 105:h:/6261A/11CW1352MP_BIRD61A_11C_V33_GPRS_MMI/Tools/MinGW/include/c++/3.3.1/bits/stl_alloc.h ****   public:
 106:h:/6261A/11CW1352MP_BIRD61A_11C_V33_GPRS_MMI/Tools/MinGW/include/c++/3.3.1/bits/stl_alloc.h ****     static void*
 107:h:/6261A/11CW1352MP_BIRD61A_11C_V33_GPRS_MMI/Tools/MinGW/include/c++/3.3.1/bits/stl_alloc.h ****     allocate(size_t __n)
 108:h:/6261A/11CW1352MP_BIRD61A_11C_V33_GPRS_MMI/Tools/MinGW/include/c++/3.3.1/bits/stl_alloc.h ****     { return ::operator new(__n); }
 109:h:/6261A/11CW1352MP_BIRD61A_11C_V33_GPRS_MMI/Tools/MinGW/include/c++/3.3.1/bits/stl_alloc.h **** 
 110:h:/6261A/11CW1352MP_BIRD61A_11C_V33_GPRS_MMI/Tools/MinGW/include/c++/3.3.1/bits/stl_alloc.h ****     static void
 111:h:/6261A/11CW1352MP_BIRD61A_11C_V33_GPRS_MMI/Tools/MinGW/include/c++/3.3.1/bits/stl_alloc.h ****     deallocate(void* __p, size_t)
 112:h:/6261A/11CW1352MP_BIRD61A_11C_V33_GPRS_MMI/Tools/MinGW/include/c++/3.3.1/bits/stl_alloc.h ****     { ::operator delete(__p); }
 113:h:/6261A/11CW1352MP_BIRD61A_11C_V33_GPRS_MMI/Tools/MinGW/include/c++/3.3.1/bits/stl_alloc.h ****   };
 114:h:/6261A/11CW1352MP_BIRD61A_11C_V33_GPRS_MMI/Tools/MinGW/include/c++/3.3.1/bits/stl_alloc.h **** 
 115:h:/6261A/11CW1352MP_BIRD61A_11C_V33_GPRS_MMI/Tools/MinGW/include/c++/3.3.1/bits/stl_alloc.h **** 
 116:h:/6261A/11CW1352MP_BIRD61A_11C_V33_GPRS_MMI/Tools/MinGW/include/c++/3.3.1/bits/stl_alloc.h ****   /**
 117:h:/6261A/11CW1352MP_BIRD61A_11C_V33_GPRS_MMI/Tools/MinGW/include/c++/3.3.1/bits/stl_alloc.h ****    *  @if maint
 118:h:/6261A/11CW1352MP_BIRD61A_11C_V33_GPRS_MMI/Tools/MinGW/include/c++/3.3.1/bits/stl_alloc.h ****    *  A malloc-based allocator.  Typically slower than the
 119:h:/6261A/11CW1352MP_BIRD61A_11C_V33_GPRS_MMI/Tools/MinGW/include/c++/3.3.1/bits/stl_alloc.h ****    *  __default_alloc_template (below).  Typically thread-safe and more
 120:h:/6261A/11CW1352MP_BIRD61A_11C_V33_GPRS_MMI/Tools/MinGW/include/c++/3.3.1/bits/stl_alloc.h ****    *  storage efficient.  The template argument is unused and is only present
 121:h:/6261A/11CW1352MP_BIRD61A_11C_V33_GPRS_MMI/Tools/MinGW/include/c++/3.3.1/bits/stl_alloc.h ****    *  to permit multiple instantiations (but see __default_alloc_template
 122:h:/6261A/11CW1352MP_BIRD61A_11C_V33_GPRS_MMI/Tools/MinGW/include/c++/3.3.1/bits/stl_alloc.h ****    *  for caveats).  "SGI" style, plus __set_malloc_handler for OOM conditions.
 123:h:/6261A/11CW1352MP_BIRD61A_11C_V33_GPRS_MMI/Tools/MinGW/include/c++/3.3.1/bits/stl_alloc.h ****    *  @endif
 124:h:/6261A/11CW1352MP_BIRD61A_11C_V33_GPRS_MMI/Tools/MinGW/include/c++/3.3.1/bits/stl_alloc.h ****    *  (See @link Allocators allocators info @endlink for more.)
 125:h:/6261A/11CW1352MP_BIRD61A_11C_V33_GPRS_MMI/Tools/MinGW/include/c++/3.3.1/bits/stl_alloc.h ****    */
 126:h:/6261A/11CW1352MP_BIRD61A_11C_V33_GPRS_MMI/Tools/MinGW/include/c++/3.3.1/bits/stl_alloc.h ****   template<int __inst>
 127:h:/6261A/11CW1352MP_BIRD61A_11C_V33_GPRS_MMI/Tools/MinGW/include/c++/3.3.1/bits/stl_alloc.h ****     class __malloc_alloc_template
 128:h:/6261A/11CW1352MP_BIRD61A_11C_V33_GPRS_MMI/Tools/MinGW/include/c++/3.3.1/bits/stl_alloc.h ****     {
 129:h:/6261A/11CW1352MP_BIRD61A_11C_V33_GPRS_MMI/Tools/MinGW/include/c++/3.3.1/bits/stl_alloc.h ****     private:
 130:h:/6261A/11CW1352MP_BIRD61A_11C_V33_GPRS_MMI/Tools/MinGW/include/c++/3.3.1/bits/stl_alloc.h ****       static void* _S_oom_malloc(size_t);
 131:h:/6261A/11CW1352MP_BIRD61A_11C_V33_GPRS_MMI/Tools/MinGW/include/c++/3.3.1/bits/stl_alloc.h ****       static void* _S_oom_realloc(void*, size_t);
 132:h:/6261A/11CW1352MP_BIRD61A_11C_V33_GPRS_MMI/Tools/MinGW/include/c++/3.3.1/bits/stl_alloc.h ****       static void (* __malloc_alloc_oom_handler)();
 133:h:/6261A/11CW1352MP_BIRD61A_11C_V33_GPRS_MMI/Tools/MinGW/include/c++/3.3.1/bits/stl_alloc.h **** 
 134:h:/6261A/11CW1352MP_BIRD61A_11C_V33_GPRS_MMI/Tools/MinGW/include/c++/3.3.1/bits/stl_alloc.h ****     public:
 135:h:/6261A/11CW1352MP_BIRD61A_11C_V33_GPRS_MMI/Tools/MinGW/include/c++/3.3.1/bits/stl_alloc.h ****       static void*
 136:h:/6261A/11CW1352MP_BIRD61A_11C_V33_GPRS_MMI/Tools/MinGW/include/c++/3.3.1/bits/stl_alloc.h ****       allocate(size_t __n)
 137:h:/6261A/11CW1352MP_BIRD61A_11C_V33_GPRS_MMI/Tools/MinGW/include/c++/3.3.1/bits/stl_alloc.h ****       {
 138:h:/6261A/11CW1352MP_BIRD61A_11C_V33_GPRS_MMI/Tools/MinGW/include/c++/3.3.1/bits/stl_alloc.h ****         void* __result = malloc(__n);
 139:h:/6261A/11CW1352MP_BIRD61A_11C_V33_GPRS_MMI/Tools/MinGW/include/c++/3.3.1/bits/stl_alloc.h ****         if (__builtin_expect(__result == 0, 0))
 140:h:/6261A/11CW1352MP_BIRD61A_11C_V33_GPRS_MMI/Tools/MinGW/include/c++/3.3.1/bits/stl_alloc.h **** 	  __result = _S_oom_malloc(__n);
 141:h:/6261A/11CW1352MP_BIRD61A_11C_V33_GPRS_MMI/Tools/MinGW/include/c++/3.3.1/bits/stl_alloc.h ****         return __result;
 142:h:/6261A/11CW1352MP_BIRD61A_11C_V33_GPRS_MMI/Tools/MinGW/include/c++/3.3.1/bits/stl_alloc.h ****       }
 143:h:/6261A/11CW1352MP_BIRD61A_11C_V33_GPRS_MMI/Tools/MinGW/include/c++/3.3.1/bits/stl_alloc.h **** 
 144:h:/6261A/11CW1352MP_BIRD61A_11C_V33_GPRS_MMI/Tools/MinGW/include/c++/3.3.1/bits/stl_alloc.h ****       static void
 145:h:/6261A/11CW1352MP_BIRD61A_11C_V33_GPRS_MMI/Tools/MinGW/include/c++/3.3.1/bits/stl_alloc.h ****       deallocate(void* __p, size_t /* __n */)
 146:h:/6261A/11CW1352MP_BIRD61A_11C_V33_GPRS_MMI/Tools/MinGW/include/c++/3.3.1/bits/stl_alloc.h ****       { free(__p); }
GAS LISTING h:/6261A/11CW1352MP_BIRD61A_11C_V33_GPRS_MMI/plutommi/Customer/ResGenerator/gcctmp/ccEHcaaa.s 			page 53


 147:h:/6261A/11CW1352MP_BIRD61A_11C_V33_GPRS_MMI/Tools/MinGW/include/c++/3.3.1/bits/stl_alloc.h **** 
 148:h:/6261A/11CW1352MP_BIRD61A_11C_V33_GPRS_MMI/Tools/MinGW/include/c++/3.3.1/bits/stl_alloc.h ****       static void*
 149:h:/6261A/11CW1352MP_BIRD61A_11C_V33_GPRS_MMI/Tools/MinGW/include/c++/3.3.1/bits/stl_alloc.h ****       reallocate(void* __p, size_t /* old_sz */, size_t __new_sz)
 150:h:/6261A/11CW1352MP_BIRD61A_11C_V33_GPRS_MMI/Tools/MinGW/include/c++/3.3.1/bits/stl_alloc.h ****       {
 151:h:/6261A/11CW1352MP_BIRD61A_11C_V33_GPRS_MMI/Tools/MinGW/include/c++/3.3.1/bits/stl_alloc.h ****         void* __result = realloc(__p, __new_sz);
 152:h:/6261A/11CW1352MP_BIRD61A_11C_V33_GPRS_MMI/Tools/MinGW/include/c++/3.3.1/bits/stl_alloc.h ****         if (__builtin_expect(__result == 0, 0))
 153:h:/6261A/11CW1352MP_BIRD61A_11C_V33_GPRS_MMI/Tools/MinGW/include/c++/3.3.1/bits/stl_alloc.h ****           __result = _S_oom_realloc(__p, __new_sz);
 154:h:/6261A/11CW1352MP_BIRD61A_11C_V33_GPRS_MMI/Tools/MinGW/include/c++/3.3.1/bits/stl_alloc.h ****         return __result;
 155:h:/6261A/11CW1352MP_BIRD61A_11C_V33_GPRS_MMI/Tools/MinGW/include/c++/3.3.1/bits/stl_alloc.h ****       }
 156:h:/6261A/11CW1352MP_BIRD61A_11C_V33_GPRS_MMI/Tools/MinGW/include/c++/3.3.1/bits/stl_alloc.h **** 
 157:h:/6261A/11CW1352MP_BIRD61A_11C_V33_GPRS_MMI/Tools/MinGW/include/c++/3.3.1/bits/stl_alloc.h ****       static void (* __set_malloc_handler(void (*__f)()))()
 158:h:/6261A/11CW1352MP_BIRD61A_11C_V33_GPRS_MMI/Tools/MinGW/include/c++/3.3.1/bits/stl_alloc.h ****       {
 159:h:/6261A/11CW1352MP_BIRD61A_11C_V33_GPRS_MMI/Tools/MinGW/include/c++/3.3.1/bits/stl_alloc.h ****         void (* __old)() = __malloc_alloc_oom_handler;
 160:h:/6261A/11CW1352MP_BIRD61A_11C_V33_GPRS_MMI/Tools/MinGW/include/c++/3.3.1/bits/stl_alloc.h ****         __malloc_alloc_oom_handler = __f;
 161:h:/6261A/11CW1352MP_BIRD61A_11C_V33_GPRS_MMI/Tools/MinGW/include/c++/3.3.1/bits/stl_alloc.h ****         return __old;
 162:h:/6261A/11CW1352MP_BIRD61A_11C_V33_GPRS_MMI/Tools/MinGW/include/c++/3.3.1/bits/stl_alloc.h ****       }
 163:h:/6261A/11CW1352MP_BIRD61A_11C_V33_GPRS_MMI/Tools/MinGW/include/c++/3.3.1/bits/stl_alloc.h ****     };
 164:h:/6261A/11CW1352MP_BIRD61A_11C_V33_GPRS_MMI/Tools/MinGW/include/c++/3.3.1/bits/stl_alloc.h **** 
 165:h:/6261A/11CW1352MP_BIRD61A_11C_V33_GPRS_MMI/Tools/MinGW/include/c++/3.3.1/bits/stl_alloc.h ****   // malloc_alloc out-of-memory handling
 166:h:/6261A/11CW1352MP_BIRD61A_11C_V33_GPRS_MMI/Tools/MinGW/include/c++/3.3.1/bits/stl_alloc.h ****   template<int __inst>
 167:h:/6261A/11CW1352MP_BIRD61A_11C_V33_GPRS_MMI/Tools/MinGW/include/c++/3.3.1/bits/stl_alloc.h ****     void (* __malloc_alloc_template<__inst>::__malloc_alloc_oom_handler)() = 0;
 168:h:/6261A/11CW1352MP_BIRD61A_11C_V33_GPRS_MMI/Tools/MinGW/include/c++/3.3.1/bits/stl_alloc.h **** 
 169:h:/6261A/11CW1352MP_BIRD61A_11C_V33_GPRS_MMI/Tools/MinGW/include/c++/3.3.1/bits/stl_alloc.h ****   template<int __inst>
 170:h:/6261A/11CW1352MP_BIRD61A_11C_V33_GPRS_MMI/Tools/MinGW/include/c++/3.3.1/bits/stl_alloc.h ****     void*
 171:h:/6261A/11CW1352MP_BIRD61A_11C_V33_GPRS_MMI/Tools/MinGW/include/c++/3.3.1/bits/stl_alloc.h ****     __malloc_alloc_template<__inst>::
 172:h:/6261A/11CW1352MP_BIRD61A_11C_V33_GPRS_MMI/Tools/MinGW/include/c++/3.3.1/bits/stl_alloc.h ****     _S_oom_malloc(size_t __n)
 173:h:/6261A/11CW1352MP_BIRD61A_11C_V33_GPRS_MMI/Tools/MinGW/include/c++/3.3.1/bits/stl_alloc.h ****     {
 174:h:/6261A/11CW1352MP_BIRD61A_11C_V33_GPRS_MMI/Tools/MinGW/include/c++/3.3.1/bits/stl_alloc.h ****       void (* __my_malloc_handler)();
 175:h:/6261A/11CW1352MP_BIRD61A_11C_V33_GPRS_MMI/Tools/MinGW/include/c++/3.3.1/bits/stl_alloc.h ****       void* __result;
 176:h:/6261A/11CW1352MP_BIRD61A_11C_V33_GPRS_MMI/Tools/MinGW/include/c++/3.3.1/bits/stl_alloc.h **** 
 177:h:/6261A/11CW1352MP_BIRD61A_11C_V33_GPRS_MMI/Tools/MinGW/include/c++/3.3.1/bits/stl_alloc.h ****       for (;;)
 178:h:/6261A/11CW1352MP_BIRD61A_11C_V33_GPRS_MMI/Tools/MinGW/include/c++/3.3.1/bits/stl_alloc.h ****         {
 179:h:/6261A/11CW1352MP_BIRD61A_11C_V33_GPRS_MMI/Tools/MinGW/include/c++/3.3.1/bits/stl_alloc.h ****           __my_malloc_handler = __malloc_alloc_oom_handler;
 180:h:/6261A/11CW1352MP_BIRD61A_11C_V33_GPRS_MMI/Tools/MinGW/include/c++/3.3.1/bits/stl_alloc.h ****           if (__builtin_expect(__my_malloc_handler == 0, 0))
 181:h:/6261A/11CW1352MP_BIRD61A_11C_V33_GPRS_MMI/Tools/MinGW/include/c++/3.3.1/bits/stl_alloc.h ****             __throw_bad_alloc();
 182:h:/6261A/11CW1352MP_BIRD61A_11C_V33_GPRS_MMI/Tools/MinGW/include/c++/3.3.1/bits/stl_alloc.h ****           (*__my_malloc_handler)();
 183:h:/6261A/11CW1352MP_BIRD61A_11C_V33_GPRS_MMI/Tools/MinGW/include/c++/3.3.1/bits/stl_alloc.h ****           __result = malloc(__n);
 184:h:/6261A/11CW1352MP_BIRD61A_11C_V33_GPRS_MMI/Tools/MinGW/include/c++/3.3.1/bits/stl_alloc.h ****           if (__result)
 185:h:/6261A/11CW1352MP_BIRD61A_11C_V33_GPRS_MMI/Tools/MinGW/include/c++/3.3.1/bits/stl_alloc.h ****             return __result;
 186:h:/6261A/11CW1352MP_BIRD61A_11C_V33_GPRS_MMI/Tools/MinGW/include/c++/3.3.1/bits/stl_alloc.h ****         }
 187:h:/6261A/11CW1352MP_BIRD61A_11C_V33_GPRS_MMI/Tools/MinGW/include/c++/3.3.1/bits/stl_alloc.h ****     }
 188:h:/6261A/11CW1352MP_BIRD61A_11C_V33_GPRS_MMI/Tools/MinGW/include/c++/3.3.1/bits/stl_alloc.h **** 
 189:h:/6261A/11CW1352MP_BIRD61A_11C_V33_GPRS_MMI/Tools/MinGW/include/c++/3.3.1/bits/stl_alloc.h ****   template<int __inst>
 190:h:/6261A/11CW1352MP_BIRD61A_11C_V33_GPRS_MMI/Tools/MinGW/include/c++/3.3.1/bits/stl_alloc.h ****     void*
 191:h:/6261A/11CW1352MP_BIRD61A_11C_V33_GPRS_MMI/Tools/MinGW/include/c++/3.3.1/bits/stl_alloc.h ****     __malloc_alloc_template<__inst>::
 192:h:/6261A/11CW1352MP_BIRD61A_11C_V33_GPRS_MMI/Tools/MinGW/include/c++/3.3.1/bits/stl_alloc.h ****     _S_oom_realloc(void* __p, size_t __n)
 193:h:/6261A/11CW1352MP_BIRD61A_11C_V33_GPRS_MMI/Tools/MinGW/include/c++/3.3.1/bits/stl_alloc.h ****     {
 194:h:/6261A/11CW1352MP_BIRD61A_11C_V33_GPRS_MMI/Tools/MinGW/include/c++/3.3.1/bits/stl_alloc.h ****       void (* __my_malloc_handler)();
 195:h:/6261A/11CW1352MP_BIRD61A_11C_V33_GPRS_MMI/Tools/MinGW/include/c++/3.3.1/bits/stl_alloc.h ****       void* __result;
 196:h:/6261A/11CW1352MP_BIRD61A_11C_V33_GPRS_MMI/Tools/MinGW/include/c++/3.3.1/bits/stl_alloc.h **** 
 197:h:/6261A/11CW1352MP_BIRD61A_11C_V33_GPRS_MMI/Tools/MinGW/include/c++/3.3.1/bits/stl_alloc.h ****       for (;;)
 198:h:/6261A/11CW1352MP_BIRD61A_11C_V33_GPRS_MMI/Tools/MinGW/include/c++/3.3.1/bits/stl_alloc.h ****         {
 199:h:/6261A/11CW1352MP_BIRD61A_11C_V33_GPRS_MMI/Tools/MinGW/include/c++/3.3.1/bits/stl_alloc.h ****           __my_malloc_handler = __malloc_alloc_oom_handler;
 200:h:/6261A/11CW1352MP_BIRD61A_11C_V33_GPRS_MMI/Tools/MinGW/include/c++/3.3.1/bits/stl_alloc.h ****           if (__builtin_expect(__my_malloc_handler == 0, 0))
 201:h:/6261A/11CW1352MP_BIRD61A_11C_V33_GPRS_MMI/Tools/MinGW/include/c++/3.3.1/bits/stl_alloc.h ****             __throw_bad_alloc();
 202:h:/6261A/11CW1352MP_BIRD61A_11C_V33_GPRS_MMI/Tools/MinGW/include/c++/3.3.1/bits/stl_alloc.h ****           (*__my_malloc_handler)();
 203:h:/6261A/11CW1352MP_BIRD61A_11C_V33_GPRS_MMI/Tools/MinGW/include/c++/3.3.1/bits/stl_alloc.h ****           __result = realloc(__p, __n);
GAS LISTING h:/6261A/11CW1352MP_BIRD61A_11C_V33_GPRS_MMI/plutommi/Customer/ResGenerator/gcctmp/ccEHcaaa.s 			page 54


 204:h:/6261A/11CW1352MP_BIRD61A_11C_V33_GPRS_MMI/Tools/MinGW/include/c++/3.3.1/bits/stl_alloc.h ****           if (__result)
 205:h:/6261A/11CW1352MP_BIRD61A_11C_V33_GPRS_MMI/Tools/MinGW/include/c++/3.3.1/bits/stl_alloc.h ****             return __result;
 206:h:/6261A/11CW1352MP_BIRD61A_11C_V33_GPRS_MMI/Tools/MinGW/include/c++/3.3.1/bits/stl_alloc.h ****         }
 207:h:/6261A/11CW1352MP_BIRD61A_11C_V33_GPRS_MMI/Tools/MinGW/include/c++/3.3.1/bits/stl_alloc.h ****     }
 208:h:/6261A/11CW1352MP_BIRD61A_11C_V33_GPRS_MMI/Tools/MinGW/include/c++/3.3.1/bits/stl_alloc.h **** 
 209:h:/6261A/11CW1352MP_BIRD61A_11C_V33_GPRS_MMI/Tools/MinGW/include/c++/3.3.1/bits/stl_alloc.h ****   // Should not be referenced within the library anymore.
 210:h:/6261A/11CW1352MP_BIRD61A_11C_V33_GPRS_MMI/Tools/MinGW/include/c++/3.3.1/bits/stl_alloc.h ****   typedef __new_alloc                 __mem_interface;
 211:h:/6261A/11CW1352MP_BIRD61A_11C_V33_GPRS_MMI/Tools/MinGW/include/c++/3.3.1/bits/stl_alloc.h **** 
 212:h:/6261A/11CW1352MP_BIRD61A_11C_V33_GPRS_MMI/Tools/MinGW/include/c++/3.3.1/bits/stl_alloc.h ****   /**
 213:h:/6261A/11CW1352MP_BIRD61A_11C_V33_GPRS_MMI/Tools/MinGW/include/c++/3.3.1/bits/stl_alloc.h ****    *  @if maint
 214:h:/6261A/11CW1352MP_BIRD61A_11C_V33_GPRS_MMI/Tools/MinGW/include/c++/3.3.1/bits/stl_alloc.h ****    *  This is used primarily (only?) in _Alloc_traits and other places to
 215:h:/6261A/11CW1352MP_BIRD61A_11C_V33_GPRS_MMI/Tools/MinGW/include/c++/3.3.1/bits/stl_alloc.h ****    *  help provide the _Alloc_type typedef.  All it does is forward the
 216:h:/6261A/11CW1352MP_BIRD61A_11C_V33_GPRS_MMI/Tools/MinGW/include/c++/3.3.1/bits/stl_alloc.h ****    *  requests after some minimal checking.
 217:h:/6261A/11CW1352MP_BIRD61A_11C_V33_GPRS_MMI/Tools/MinGW/include/c++/3.3.1/bits/stl_alloc.h ****    *
 218:h:/6261A/11CW1352MP_BIRD61A_11C_V33_GPRS_MMI/Tools/MinGW/include/c++/3.3.1/bits/stl_alloc.h ****    *  This is neither "standard"-conforming nor "SGI".  The _Alloc parameter
 219:h:/6261A/11CW1352MP_BIRD61A_11C_V33_GPRS_MMI/Tools/MinGW/include/c++/3.3.1/bits/stl_alloc.h ****    *  must be "SGI" style.
 220:h:/6261A/11CW1352MP_BIRD61A_11C_V33_GPRS_MMI/Tools/MinGW/include/c++/3.3.1/bits/stl_alloc.h ****    *  @endif
 221:h:/6261A/11CW1352MP_BIRD61A_11C_V33_GPRS_MMI/Tools/MinGW/include/c++/3.3.1/bits/stl_alloc.h ****    *  (See @link Allocators allocators info @endlink for more.)
 222:h:/6261A/11CW1352MP_BIRD61A_11C_V33_GPRS_MMI/Tools/MinGW/include/c++/3.3.1/bits/stl_alloc.h ****    */
 223:h:/6261A/11CW1352MP_BIRD61A_11C_V33_GPRS_MMI/Tools/MinGW/include/c++/3.3.1/bits/stl_alloc.h ****   template<typename _Tp, typename _Alloc>
 224:h:/6261A/11CW1352MP_BIRD61A_11C_V33_GPRS_MMI/Tools/MinGW/include/c++/3.3.1/bits/stl_alloc.h ****     class __simple_alloc
 225:h:/6261A/11CW1352MP_BIRD61A_11C_V33_GPRS_MMI/Tools/MinGW/include/c++/3.3.1/bits/stl_alloc.h ****     {
 226:h:/6261A/11CW1352MP_BIRD61A_11C_V33_GPRS_MMI/Tools/MinGW/include/c++/3.3.1/bits/stl_alloc.h ****     public:
 227:h:/6261A/11CW1352MP_BIRD61A_11C_V33_GPRS_MMI/Tools/MinGW/include/c++/3.3.1/bits/stl_alloc.h ****       static _Tp*
 228:h:/6261A/11CW1352MP_BIRD61A_11C_V33_GPRS_MMI/Tools/MinGW/include/c++/3.3.1/bits/stl_alloc.h ****       allocate(size_t __n)
 229:h:/6261A/11CW1352MP_BIRD61A_11C_V33_GPRS_MMI/Tools/MinGW/include/c++/3.3.1/bits/stl_alloc.h ****       {
 230:h:/6261A/11CW1352MP_BIRD61A_11C_V33_GPRS_MMI/Tools/MinGW/include/c++/3.3.1/bits/stl_alloc.h **** 	_Tp* __ret = 0;
 231:h:/6261A/11CW1352MP_BIRD61A_11C_V33_GPRS_MMI/Tools/MinGW/include/c++/3.3.1/bits/stl_alloc.h **** 	if (__n)
 232:h:/6261A/11CW1352MP_BIRD61A_11C_V33_GPRS_MMI/Tools/MinGW/include/c++/3.3.1/bits/stl_alloc.h **** 	  __ret = static_cast<_Tp*>(_Alloc::allocate(__n * sizeof(_Tp)));
 233:h:/6261A/11CW1352MP_BIRD61A_11C_V33_GPRS_MMI/Tools/MinGW/include/c++/3.3.1/bits/stl_alloc.h **** 	return __ret;
 234:h:/6261A/11CW1352MP_BIRD61A_11C_V33_GPRS_MMI/Tools/MinGW/include/c++/3.3.1/bits/stl_alloc.h ****       }
 235:h:/6261A/11CW1352MP_BIRD61A_11C_V33_GPRS_MMI/Tools/MinGW/include/c++/3.3.1/bits/stl_alloc.h ****   
 236:h:/6261A/11CW1352MP_BIRD61A_11C_V33_GPRS_MMI/Tools/MinGW/include/c++/3.3.1/bits/stl_alloc.h ****       static _Tp*
 237:h:/6261A/11CW1352MP_BIRD61A_11C_V33_GPRS_MMI/Tools/MinGW/include/c++/3.3.1/bits/stl_alloc.h ****       allocate()
 238:h:/6261A/11CW1352MP_BIRD61A_11C_V33_GPRS_MMI/Tools/MinGW/include/c++/3.3.1/bits/stl_alloc.h ****       { return (_Tp*) _Alloc::allocate(sizeof (_Tp)); }
 239:h:/6261A/11CW1352MP_BIRD61A_11C_V33_GPRS_MMI/Tools/MinGW/include/c++/3.3.1/bits/stl_alloc.h ****   
 240:h:/6261A/11CW1352MP_BIRD61A_11C_V33_GPRS_MMI/Tools/MinGW/include/c++/3.3.1/bits/stl_alloc.h ****       static void
 241:h:/6261A/11CW1352MP_BIRD61A_11C_V33_GPRS_MMI/Tools/MinGW/include/c++/3.3.1/bits/stl_alloc.h ****       deallocate(_Tp* __p, size_t __n)
 242:h:/6261A/11CW1352MP_BIRD61A_11C_V33_GPRS_MMI/Tools/MinGW/include/c++/3.3.1/bits/stl_alloc.h ****       { if (0 != __n) _Alloc::deallocate(__p, __n * sizeof (_Tp)); }
 243:h:/6261A/11CW1352MP_BIRD61A_11C_V33_GPRS_MMI/Tools/MinGW/include/c++/3.3.1/bits/stl_alloc.h ****   
 244:h:/6261A/11CW1352MP_BIRD61A_11C_V33_GPRS_MMI/Tools/MinGW/include/c++/3.3.1/bits/stl_alloc.h ****       static void
 245:h:/6261A/11CW1352MP_BIRD61A_11C_V33_GPRS_MMI/Tools/MinGW/include/c++/3.3.1/bits/stl_alloc.h ****       deallocate(_Tp* __p)
 246:h:/6261A/11CW1352MP_BIRD61A_11C_V33_GPRS_MMI/Tools/MinGW/include/c++/3.3.1/bits/stl_alloc.h ****       { _Alloc::deallocate(__p, sizeof (_Tp)); }
 247:h:/6261A/11CW1352MP_BIRD61A_11C_V33_GPRS_MMI/Tools/MinGW/include/c++/3.3.1/bits/stl_alloc.h ****     };
 248:h:/6261A/11CW1352MP_BIRD61A_11C_V33_GPRS_MMI/Tools/MinGW/include/c++/3.3.1/bits/stl_alloc.h **** 
 249:h:/6261A/11CW1352MP_BIRD61A_11C_V33_GPRS_MMI/Tools/MinGW/include/c++/3.3.1/bits/stl_alloc.h **** 
 250:h:/6261A/11CW1352MP_BIRD61A_11C_V33_GPRS_MMI/Tools/MinGW/include/c++/3.3.1/bits/stl_alloc.h ****   /**
 251:h:/6261A/11CW1352MP_BIRD61A_11C_V33_GPRS_MMI/Tools/MinGW/include/c++/3.3.1/bits/stl_alloc.h ****    *  @if maint
 252:h:/6261A/11CW1352MP_BIRD61A_11C_V33_GPRS_MMI/Tools/MinGW/include/c++/3.3.1/bits/stl_alloc.h ****    *  An adaptor for an underlying allocator (_Alloc) to check the size
 253:h:/6261A/11CW1352MP_BIRD61A_11C_V33_GPRS_MMI/Tools/MinGW/include/c++/3.3.1/bits/stl_alloc.h ****    *  arguments for debugging.
 254:h:/6261A/11CW1352MP_BIRD61A_11C_V33_GPRS_MMI/Tools/MinGW/include/c++/3.3.1/bits/stl_alloc.h ****    *
 255:h:/6261A/11CW1352MP_BIRD61A_11C_V33_GPRS_MMI/Tools/MinGW/include/c++/3.3.1/bits/stl_alloc.h ****    *  "There is some evidence that this can confuse Purify." - SGI comment
 256:h:/6261A/11CW1352MP_BIRD61A_11C_V33_GPRS_MMI/Tools/MinGW/include/c++/3.3.1/bits/stl_alloc.h ****    *
 257:h:/6261A/11CW1352MP_BIRD61A_11C_V33_GPRS_MMI/Tools/MinGW/include/c++/3.3.1/bits/stl_alloc.h ****    *  This adaptor is "SGI" style.  The _Alloc parameter must also be "SGI".
 258:h:/6261A/11CW1352MP_BIRD61A_11C_V33_GPRS_MMI/Tools/MinGW/include/c++/3.3.1/bits/stl_alloc.h ****    *  @endif
 259:h:/6261A/11CW1352MP_BIRD61A_11C_V33_GPRS_MMI/Tools/MinGW/include/c++/3.3.1/bits/stl_alloc.h ****    *  (See @link Allocators allocators info @endlink for more.)
 260:h:/6261A/11CW1352MP_BIRD61A_11C_V33_GPRS_MMI/Tools/MinGW/include/c++/3.3.1/bits/stl_alloc.h ****    */
GAS LISTING h:/6261A/11CW1352MP_BIRD61A_11C_V33_GPRS_MMI/plutommi/Customer/ResGenerator/gcctmp/ccEHcaaa.s 			page 55


 261:h:/6261A/11CW1352MP_BIRD61A_11C_V33_GPRS_MMI/Tools/MinGW/include/c++/3.3.1/bits/stl_alloc.h ****   template<typename _Alloc>
 262:h:/6261A/11CW1352MP_BIRD61A_11C_V33_GPRS_MMI/Tools/MinGW/include/c++/3.3.1/bits/stl_alloc.h ****     class __debug_alloc
 263:h:/6261A/11CW1352MP_BIRD61A_11C_V33_GPRS_MMI/Tools/MinGW/include/c++/3.3.1/bits/stl_alloc.h ****     {
 264:h:/6261A/11CW1352MP_BIRD61A_11C_V33_GPRS_MMI/Tools/MinGW/include/c++/3.3.1/bits/stl_alloc.h ****     private:
 265:h:/6261A/11CW1352MP_BIRD61A_11C_V33_GPRS_MMI/Tools/MinGW/include/c++/3.3.1/bits/stl_alloc.h ****       // Size of space used to store size.  Note that this must be
 266:h:/6261A/11CW1352MP_BIRD61A_11C_V33_GPRS_MMI/Tools/MinGW/include/c++/3.3.1/bits/stl_alloc.h ****       // large enough to preserve alignment.
 267:h:/6261A/11CW1352MP_BIRD61A_11C_V33_GPRS_MMI/Tools/MinGW/include/c++/3.3.1/bits/stl_alloc.h ****       enum {_S_extra = 8};
 268:h:/6261A/11CW1352MP_BIRD61A_11C_V33_GPRS_MMI/Tools/MinGW/include/c++/3.3.1/bits/stl_alloc.h **** 
 269:h:/6261A/11CW1352MP_BIRD61A_11C_V33_GPRS_MMI/Tools/MinGW/include/c++/3.3.1/bits/stl_alloc.h ****     public:
 270:h:/6261A/11CW1352MP_BIRD61A_11C_V33_GPRS_MMI/Tools/MinGW/include/c++/3.3.1/bits/stl_alloc.h ****       static void*
 271:h:/6261A/11CW1352MP_BIRD61A_11C_V33_GPRS_MMI/Tools/MinGW/include/c++/3.3.1/bits/stl_alloc.h ****       allocate(size_t __n)
 272:h:/6261A/11CW1352MP_BIRD61A_11C_V33_GPRS_MMI/Tools/MinGW/include/c++/3.3.1/bits/stl_alloc.h ****       {
 273:h:/6261A/11CW1352MP_BIRD61A_11C_V33_GPRS_MMI/Tools/MinGW/include/c++/3.3.1/bits/stl_alloc.h ****         char* __result = (char*)_Alloc::allocate(__n + (int) _S_extra);
 274:h:/6261A/11CW1352MP_BIRD61A_11C_V33_GPRS_MMI/Tools/MinGW/include/c++/3.3.1/bits/stl_alloc.h ****         *(size_t*)__result = __n;
 275:h:/6261A/11CW1352MP_BIRD61A_11C_V33_GPRS_MMI/Tools/MinGW/include/c++/3.3.1/bits/stl_alloc.h ****         return __result + (int) _S_extra;
 276:h:/6261A/11CW1352MP_BIRD61A_11C_V33_GPRS_MMI/Tools/MinGW/include/c++/3.3.1/bits/stl_alloc.h ****       }
 277:h:/6261A/11CW1352MP_BIRD61A_11C_V33_GPRS_MMI/Tools/MinGW/include/c++/3.3.1/bits/stl_alloc.h **** 
 278:h:/6261A/11CW1352MP_BIRD61A_11C_V33_GPRS_MMI/Tools/MinGW/include/c++/3.3.1/bits/stl_alloc.h ****       static void
 279:h:/6261A/11CW1352MP_BIRD61A_11C_V33_GPRS_MMI/Tools/MinGW/include/c++/3.3.1/bits/stl_alloc.h ****       deallocate(void* __p, size_t __n)
 280:h:/6261A/11CW1352MP_BIRD61A_11C_V33_GPRS_MMI/Tools/MinGW/include/c++/3.3.1/bits/stl_alloc.h ****       {
 281:h:/6261A/11CW1352MP_BIRD61A_11C_V33_GPRS_MMI/Tools/MinGW/include/c++/3.3.1/bits/stl_alloc.h ****         char* __real_p = (char*)__p - (int) _S_extra;
 282:h:/6261A/11CW1352MP_BIRD61A_11C_V33_GPRS_MMI/Tools/MinGW/include/c++/3.3.1/bits/stl_alloc.h ****         if (*(size_t*)__real_p != __n)
 283:h:/6261A/11CW1352MP_BIRD61A_11C_V33_GPRS_MMI/Tools/MinGW/include/c++/3.3.1/bits/stl_alloc.h **** 	  abort();
 284:h:/6261A/11CW1352MP_BIRD61A_11C_V33_GPRS_MMI/Tools/MinGW/include/c++/3.3.1/bits/stl_alloc.h ****         _Alloc::deallocate(__real_p, __n + (int) _S_extra);
 285:h:/6261A/11CW1352MP_BIRD61A_11C_V33_GPRS_MMI/Tools/MinGW/include/c++/3.3.1/bits/stl_alloc.h ****       }
 286:h:/6261A/11CW1352MP_BIRD61A_11C_V33_GPRS_MMI/Tools/MinGW/include/c++/3.3.1/bits/stl_alloc.h **** 
 287:h:/6261A/11CW1352MP_BIRD61A_11C_V33_GPRS_MMI/Tools/MinGW/include/c++/3.3.1/bits/stl_alloc.h ****       static void*
 288:h:/6261A/11CW1352MP_BIRD61A_11C_V33_GPRS_MMI/Tools/MinGW/include/c++/3.3.1/bits/stl_alloc.h ****       reallocate(void* __p, size_t __old_sz, size_t __new_sz)
 289:h:/6261A/11CW1352MP_BIRD61A_11C_V33_GPRS_MMI/Tools/MinGW/include/c++/3.3.1/bits/stl_alloc.h ****       {
 290:h:/6261A/11CW1352MP_BIRD61A_11C_V33_GPRS_MMI/Tools/MinGW/include/c++/3.3.1/bits/stl_alloc.h ****         char* __real_p = (char*)__p - (int) _S_extra;
 291:h:/6261A/11CW1352MP_BIRD61A_11C_V33_GPRS_MMI/Tools/MinGW/include/c++/3.3.1/bits/stl_alloc.h ****         if (*(size_t*)__real_p != __old_sz)
 292:h:/6261A/11CW1352MP_BIRD61A_11C_V33_GPRS_MMI/Tools/MinGW/include/c++/3.3.1/bits/stl_alloc.h **** 	  abort();
 293:h:/6261A/11CW1352MP_BIRD61A_11C_V33_GPRS_MMI/Tools/MinGW/include/c++/3.3.1/bits/stl_alloc.h ****         char* __result = (char*) _Alloc::reallocate(__real_p, 
 294:h:/6261A/11CW1352MP_BIRD61A_11C_V33_GPRS_MMI/Tools/MinGW/include/c++/3.3.1/bits/stl_alloc.h **** 						    __old_sz + (int) _S_extra,
 295:h:/6261A/11CW1352MP_BIRD61A_11C_V33_GPRS_MMI/Tools/MinGW/include/c++/3.3.1/bits/stl_alloc.h **** 						    __new_sz + (int) _S_extra);
 296:h:/6261A/11CW1352MP_BIRD61A_11C_V33_GPRS_MMI/Tools/MinGW/include/c++/3.3.1/bits/stl_alloc.h ****         *(size_t*)__result = __new_sz;
 297:h:/6261A/11CW1352MP_BIRD61A_11C_V33_GPRS_MMI/Tools/MinGW/include/c++/3.3.1/bits/stl_alloc.h ****         return __result + (int) _S_extra;
 298:h:/6261A/11CW1352MP_BIRD61A_11C_V33_GPRS_MMI/Tools/MinGW/include/c++/3.3.1/bits/stl_alloc.h ****       }
 299:h:/6261A/11CW1352MP_BIRD61A_11C_V33_GPRS_MMI/Tools/MinGW/include/c++/3.3.1/bits/stl_alloc.h ****     };
 300:h:/6261A/11CW1352MP_BIRD61A_11C_V33_GPRS_MMI/Tools/MinGW/include/c++/3.3.1/bits/stl_alloc.h **** 
 301:h:/6261A/11CW1352MP_BIRD61A_11C_V33_GPRS_MMI/Tools/MinGW/include/c++/3.3.1/bits/stl_alloc.h **** 
 302:h:/6261A/11CW1352MP_BIRD61A_11C_V33_GPRS_MMI/Tools/MinGW/include/c++/3.3.1/bits/stl_alloc.h ****   /**
 303:h:/6261A/11CW1352MP_BIRD61A_11C_V33_GPRS_MMI/Tools/MinGW/include/c++/3.3.1/bits/stl_alloc.h ****    *  @if maint
 304:h:/6261A/11CW1352MP_BIRD61A_11C_V33_GPRS_MMI/Tools/MinGW/include/c++/3.3.1/bits/stl_alloc.h ****    *  Default node allocator.  "SGI" style.  Uses various allocators to
 305:h:/6261A/11CW1352MP_BIRD61A_11C_V33_GPRS_MMI/Tools/MinGW/include/c++/3.3.1/bits/stl_alloc.h ****    *  fulfill underlying requests (and makes as few requests as possible
 306:h:/6261A/11CW1352MP_BIRD61A_11C_V33_GPRS_MMI/Tools/MinGW/include/c++/3.3.1/bits/stl_alloc.h ****    *  when in default high-speed pool mode).
 307:h:/6261A/11CW1352MP_BIRD61A_11C_V33_GPRS_MMI/Tools/MinGW/include/c++/3.3.1/bits/stl_alloc.h ****    *
 308:h:/6261A/11CW1352MP_BIRD61A_11C_V33_GPRS_MMI/Tools/MinGW/include/c++/3.3.1/bits/stl_alloc.h ****    *  Important implementation properties:
 309:h:/6261A/11CW1352MP_BIRD61A_11C_V33_GPRS_MMI/Tools/MinGW/include/c++/3.3.1/bits/stl_alloc.h ****    *  0. If globally mandated, then allocate objects from __new_alloc
 310:h:/6261A/11CW1352MP_BIRD61A_11C_V33_GPRS_MMI/Tools/MinGW/include/c++/3.3.1/bits/stl_alloc.h ****    *  1. If the clients request an object of size > _MAX_BYTES, the resulting
 311:h:/6261A/11CW1352MP_BIRD61A_11C_V33_GPRS_MMI/Tools/MinGW/include/c++/3.3.1/bits/stl_alloc.h ****    *     object will be obtained directly from __new_alloc
 312:h:/6261A/11CW1352MP_BIRD61A_11C_V33_GPRS_MMI/Tools/MinGW/include/c++/3.3.1/bits/stl_alloc.h ****    *  2. In all other cases, we allocate an object of size exactly
 313:h:/6261A/11CW1352MP_BIRD61A_11C_V33_GPRS_MMI/Tools/MinGW/include/c++/3.3.1/bits/stl_alloc.h ****    *     _S_round_up(requested_size).  Thus the client has enough size
 314:h:/6261A/11CW1352MP_BIRD61A_11C_V33_GPRS_MMI/Tools/MinGW/include/c++/3.3.1/bits/stl_alloc.h ****    *     information that we can return the object to the proper free list
 315:h:/6261A/11CW1352MP_BIRD61A_11C_V33_GPRS_MMI/Tools/MinGW/include/c++/3.3.1/bits/stl_alloc.h ****    *     without permanently losing part of the object.
 316:h:/6261A/11CW1352MP_BIRD61A_11C_V33_GPRS_MMI/Tools/MinGW/include/c++/3.3.1/bits/stl_alloc.h ****    *
 317:h:/6261A/11CW1352MP_BIRD61A_11C_V33_GPRS_MMI/Tools/MinGW/include/c++/3.3.1/bits/stl_alloc.h ****    *  The first template parameter specifies whether more than one thread may
GAS LISTING h:/6261A/11CW1352MP_BIRD61A_11C_V33_GPRS_MMI/plutommi/Customer/ResGenerator/gcctmp/ccEHcaaa.s 			page 56


 318:h:/6261A/11CW1352MP_BIRD61A_11C_V33_GPRS_MMI/Tools/MinGW/include/c++/3.3.1/bits/stl_alloc.h ****    *  use this allocator.  It is safe to allocate an object from one instance
 319:h:/6261A/11CW1352MP_BIRD61A_11C_V33_GPRS_MMI/Tools/MinGW/include/c++/3.3.1/bits/stl_alloc.h ****    *  of a default_alloc and deallocate it with another one.  This effectively
 320:h:/6261A/11CW1352MP_BIRD61A_11C_V33_GPRS_MMI/Tools/MinGW/include/c++/3.3.1/bits/stl_alloc.h ****    *  transfers its ownership to the second one.  This may have undesirable
 321:h:/6261A/11CW1352MP_BIRD61A_11C_V33_GPRS_MMI/Tools/MinGW/include/c++/3.3.1/bits/stl_alloc.h ****    *  effects on reference locality.
 322:h:/6261A/11CW1352MP_BIRD61A_11C_V33_GPRS_MMI/Tools/MinGW/include/c++/3.3.1/bits/stl_alloc.h ****    *
 323:h:/6261A/11CW1352MP_BIRD61A_11C_V33_GPRS_MMI/Tools/MinGW/include/c++/3.3.1/bits/stl_alloc.h ****    *  The second parameter is unused and serves only to allow the creation of
 324:h:/6261A/11CW1352MP_BIRD61A_11C_V33_GPRS_MMI/Tools/MinGW/include/c++/3.3.1/bits/stl_alloc.h ****    *  multiple default_alloc instances.  Note that containers built on different
 325:h:/6261A/11CW1352MP_BIRD61A_11C_V33_GPRS_MMI/Tools/MinGW/include/c++/3.3.1/bits/stl_alloc.h ****    *  allocator instances have different types, limiting the utility of this
 326:h:/6261A/11CW1352MP_BIRD61A_11C_V33_GPRS_MMI/Tools/MinGW/include/c++/3.3.1/bits/stl_alloc.h ****    *  approach.  If you do not wish to share the free lists with the main
 327:h:/6261A/11CW1352MP_BIRD61A_11C_V33_GPRS_MMI/Tools/MinGW/include/c++/3.3.1/bits/stl_alloc.h ****    *  default_alloc instance, instantiate this with a non-zero __inst.
 328:h:/6261A/11CW1352MP_BIRD61A_11C_V33_GPRS_MMI/Tools/MinGW/include/c++/3.3.1/bits/stl_alloc.h ****    *
 329:h:/6261A/11CW1352MP_BIRD61A_11C_V33_GPRS_MMI/Tools/MinGW/include/c++/3.3.1/bits/stl_alloc.h ****    *  @endif
 330:h:/6261A/11CW1352MP_BIRD61A_11C_V33_GPRS_MMI/Tools/MinGW/include/c++/3.3.1/bits/stl_alloc.h ****    *  (See @link Allocators allocators info @endlink for more.)
 331:h:/6261A/11CW1352MP_BIRD61A_11C_V33_GPRS_MMI/Tools/MinGW/include/c++/3.3.1/bits/stl_alloc.h ****    */
 332:h:/6261A/11CW1352MP_BIRD61A_11C_V33_GPRS_MMI/Tools/MinGW/include/c++/3.3.1/bits/stl_alloc.h ****   template<bool __threads, int __inst>
 333:h:/6261A/11CW1352MP_BIRD61A_11C_V33_GPRS_MMI/Tools/MinGW/include/c++/3.3.1/bits/stl_alloc.h ****     class __default_alloc_template
 334:h:/6261A/11CW1352MP_BIRD61A_11C_V33_GPRS_MMI/Tools/MinGW/include/c++/3.3.1/bits/stl_alloc.h ****     {
 335:h:/6261A/11CW1352MP_BIRD61A_11C_V33_GPRS_MMI/Tools/MinGW/include/c++/3.3.1/bits/stl_alloc.h ****     private:
 336:h:/6261A/11CW1352MP_BIRD61A_11C_V33_GPRS_MMI/Tools/MinGW/include/c++/3.3.1/bits/stl_alloc.h ****       enum {_ALIGN = 8};
 337:h:/6261A/11CW1352MP_BIRD61A_11C_V33_GPRS_MMI/Tools/MinGW/include/c++/3.3.1/bits/stl_alloc.h ****       enum {_MAX_BYTES = 128};
 338:h:/6261A/11CW1352MP_BIRD61A_11C_V33_GPRS_MMI/Tools/MinGW/include/c++/3.3.1/bits/stl_alloc.h ****       enum {_NFREELISTS = _MAX_BYTES / _ALIGN};
 339:h:/6261A/11CW1352MP_BIRD61A_11C_V33_GPRS_MMI/Tools/MinGW/include/c++/3.3.1/bits/stl_alloc.h **** 
 340:h:/6261A/11CW1352MP_BIRD61A_11C_V33_GPRS_MMI/Tools/MinGW/include/c++/3.3.1/bits/stl_alloc.h ****       union _Obj
 341:h:/6261A/11CW1352MP_BIRD61A_11C_V33_GPRS_MMI/Tools/MinGW/include/c++/3.3.1/bits/stl_alloc.h ****       {
 342:h:/6261A/11CW1352MP_BIRD61A_11C_V33_GPRS_MMI/Tools/MinGW/include/c++/3.3.1/bits/stl_alloc.h ****         union _Obj* _M_free_list_link;
 343:h:/6261A/11CW1352MP_BIRD61A_11C_V33_GPRS_MMI/Tools/MinGW/include/c++/3.3.1/bits/stl_alloc.h ****         char        _M_client_data[1];    // The client sees this.
 344:h:/6261A/11CW1352MP_BIRD61A_11C_V33_GPRS_MMI/Tools/MinGW/include/c++/3.3.1/bits/stl_alloc.h ****       };
 345:h:/6261A/11CW1352MP_BIRD61A_11C_V33_GPRS_MMI/Tools/MinGW/include/c++/3.3.1/bits/stl_alloc.h **** 
 346:h:/6261A/11CW1352MP_BIRD61A_11C_V33_GPRS_MMI/Tools/MinGW/include/c++/3.3.1/bits/stl_alloc.h ****       static _Obj* volatile         _S_free_list[_NFREELISTS];
 347:h:/6261A/11CW1352MP_BIRD61A_11C_V33_GPRS_MMI/Tools/MinGW/include/c++/3.3.1/bits/stl_alloc.h **** 
 348:h:/6261A/11CW1352MP_BIRD61A_11C_V33_GPRS_MMI/Tools/MinGW/include/c++/3.3.1/bits/stl_alloc.h ****       // Chunk allocation state.
 349:h:/6261A/11CW1352MP_BIRD61A_11C_V33_GPRS_MMI/Tools/MinGW/include/c++/3.3.1/bits/stl_alloc.h ****       static char*                  _S_start_free;
 350:h:/6261A/11CW1352MP_BIRD61A_11C_V33_GPRS_MMI/Tools/MinGW/include/c++/3.3.1/bits/stl_alloc.h ****       static char*                  _S_end_free;
 351:h:/6261A/11CW1352MP_BIRD61A_11C_V33_GPRS_MMI/Tools/MinGW/include/c++/3.3.1/bits/stl_alloc.h ****       static size_t                 _S_heap_size;
 352:h:/6261A/11CW1352MP_BIRD61A_11C_V33_GPRS_MMI/Tools/MinGW/include/c++/3.3.1/bits/stl_alloc.h **** 
 353:h:/6261A/11CW1352MP_BIRD61A_11C_V33_GPRS_MMI/Tools/MinGW/include/c++/3.3.1/bits/stl_alloc.h ****       static _STL_mutex_lock        _S_node_allocator_lock;
 354:h:/6261A/11CW1352MP_BIRD61A_11C_V33_GPRS_MMI/Tools/MinGW/include/c++/3.3.1/bits/stl_alloc.h **** 
 355:h:/6261A/11CW1352MP_BIRD61A_11C_V33_GPRS_MMI/Tools/MinGW/include/c++/3.3.1/bits/stl_alloc.h ****       static size_t
 356:h:/6261A/11CW1352MP_BIRD61A_11C_V33_GPRS_MMI/Tools/MinGW/include/c++/3.3.1/bits/stl_alloc.h ****       _S_round_up(size_t __bytes)
 357:h:/6261A/11CW1352MP_BIRD61A_11C_V33_GPRS_MMI/Tools/MinGW/include/c++/3.3.1/bits/stl_alloc.h ****       { return (((__bytes) + (size_t) _ALIGN-1) & ~((size_t) _ALIGN - 1)); }
 358:h:/6261A/11CW1352MP_BIRD61A_11C_V33_GPRS_MMI/Tools/MinGW/include/c++/3.3.1/bits/stl_alloc.h **** 
 359:h:/6261A/11CW1352MP_BIRD61A_11C_V33_GPRS_MMI/Tools/MinGW/include/c++/3.3.1/bits/stl_alloc.h ****       static size_t
 360:h:/6261A/11CW1352MP_BIRD61A_11C_V33_GPRS_MMI/Tools/MinGW/include/c++/3.3.1/bits/stl_alloc.h ****       _S_freelist_index(size_t __bytes)
 361:h:/6261A/11CW1352MP_BIRD61A_11C_V33_GPRS_MMI/Tools/MinGW/include/c++/3.3.1/bits/stl_alloc.h ****       { return (((__bytes) + (size_t)_ALIGN - 1)/(size_t)_ALIGN - 1); }
 362:h:/6261A/11CW1352MP_BIRD61A_11C_V33_GPRS_MMI/Tools/MinGW/include/c++/3.3.1/bits/stl_alloc.h **** 
 363:h:/6261A/11CW1352MP_BIRD61A_11C_V33_GPRS_MMI/Tools/MinGW/include/c++/3.3.1/bits/stl_alloc.h ****       // Returns an object of size __n, and optionally adds to size __n
 364:h:/6261A/11CW1352MP_BIRD61A_11C_V33_GPRS_MMI/Tools/MinGW/include/c++/3.3.1/bits/stl_alloc.h ****       // free list.
 365:h:/6261A/11CW1352MP_BIRD61A_11C_V33_GPRS_MMI/Tools/MinGW/include/c++/3.3.1/bits/stl_alloc.h ****       static void*
 366:h:/6261A/11CW1352MP_BIRD61A_11C_V33_GPRS_MMI/Tools/MinGW/include/c++/3.3.1/bits/stl_alloc.h ****       _S_refill(size_t __n);
 367:h:/6261A/11CW1352MP_BIRD61A_11C_V33_GPRS_MMI/Tools/MinGW/include/c++/3.3.1/bits/stl_alloc.h **** 
 368:h:/6261A/11CW1352MP_BIRD61A_11C_V33_GPRS_MMI/Tools/MinGW/include/c++/3.3.1/bits/stl_alloc.h ****       // Allocates a chunk for nobjs of size size.  nobjs may be reduced
 369:h:/6261A/11CW1352MP_BIRD61A_11C_V33_GPRS_MMI/Tools/MinGW/include/c++/3.3.1/bits/stl_alloc.h ****       // if it is inconvenient to allocate the requested number.
 370:h:/6261A/11CW1352MP_BIRD61A_11C_V33_GPRS_MMI/Tools/MinGW/include/c++/3.3.1/bits/stl_alloc.h ****       static char*
 371:h:/6261A/11CW1352MP_BIRD61A_11C_V33_GPRS_MMI/Tools/MinGW/include/c++/3.3.1/bits/stl_alloc.h ****       _S_chunk_alloc(size_t __size, int& __nobjs);
 372:h:/6261A/11CW1352MP_BIRD61A_11C_V33_GPRS_MMI/Tools/MinGW/include/c++/3.3.1/bits/stl_alloc.h **** 
 373:h:/6261A/11CW1352MP_BIRD61A_11C_V33_GPRS_MMI/Tools/MinGW/include/c++/3.3.1/bits/stl_alloc.h ****       // It would be nice to use _STL_auto_lock here.  But we need a
 374:h:/6261A/11CW1352MP_BIRD61A_11C_V33_GPRS_MMI/Tools/MinGW/include/c++/3.3.1/bits/stl_alloc.h ****       // test whether threads are in use.
GAS LISTING h:/6261A/11CW1352MP_BIRD61A_11C_V33_GPRS_MMI/plutommi/Customer/ResGenerator/gcctmp/ccEHcaaa.s 			page 57


 375:h:/6261A/11CW1352MP_BIRD61A_11C_V33_GPRS_MMI/Tools/MinGW/include/c++/3.3.1/bits/stl_alloc.h ****       struct _Lock
 376:h:/6261A/11CW1352MP_BIRD61A_11C_V33_GPRS_MMI/Tools/MinGW/include/c++/3.3.1/bits/stl_alloc.h ****       {
 377:h:/6261A/11CW1352MP_BIRD61A_11C_V33_GPRS_MMI/Tools/MinGW/include/c++/3.3.1/bits/stl_alloc.h ****         _Lock() { if (__threads) _S_node_allocator_lock._M_acquire_lock(); }
 378:h:/6261A/11CW1352MP_BIRD61A_11C_V33_GPRS_MMI/Tools/MinGW/include/c++/3.3.1/bits/stl_alloc.h ****         ~_Lock() { if (__threads) _S_node_allocator_lock._M_release_lock(); }
 379:h:/6261A/11CW1352MP_BIRD61A_11C_V33_GPRS_MMI/Tools/MinGW/include/c++/3.3.1/bits/stl_alloc.h ****       } __attribute__ ((__unused__));
 380:h:/6261A/11CW1352MP_BIRD61A_11C_V33_GPRS_MMI/Tools/MinGW/include/c++/3.3.1/bits/stl_alloc.h ****       friend struct _Lock;
 381:h:/6261A/11CW1352MP_BIRD61A_11C_V33_GPRS_MMI/Tools/MinGW/include/c++/3.3.1/bits/stl_alloc.h **** 
 382:h:/6261A/11CW1352MP_BIRD61A_11C_V33_GPRS_MMI/Tools/MinGW/include/c++/3.3.1/bits/stl_alloc.h ****       static _Atomic_word _S_force_new;
 383:h:/6261A/11CW1352MP_BIRD61A_11C_V33_GPRS_MMI/Tools/MinGW/include/c++/3.3.1/bits/stl_alloc.h **** 
 384:h:/6261A/11CW1352MP_BIRD61A_11C_V33_GPRS_MMI/Tools/MinGW/include/c++/3.3.1/bits/stl_alloc.h ****     public:
 385:h:/6261A/11CW1352MP_BIRD61A_11C_V33_GPRS_MMI/Tools/MinGW/include/c++/3.3.1/bits/stl_alloc.h ****       // __n must be > 0
 386:h:/6261A/11CW1352MP_BIRD61A_11C_V33_GPRS_MMI/Tools/MinGW/include/c++/3.3.1/bits/stl_alloc.h ****       static void*
 387:h:/6261A/11CW1352MP_BIRD61A_11C_V33_GPRS_MMI/Tools/MinGW/include/c++/3.3.1/bits/stl_alloc.h ****       allocate(size_t __n)
 388:h:/6261A/11CW1352MP_BIRD61A_11C_V33_GPRS_MMI/Tools/MinGW/include/c++/3.3.1/bits/stl_alloc.h ****       {
 389:h:/6261A/11CW1352MP_BIRD61A_11C_V33_GPRS_MMI/Tools/MinGW/include/c++/3.3.1/bits/stl_alloc.h **** 	void* __ret = 0;
 390:h:/6261A/11CW1352MP_BIRD61A_11C_V33_GPRS_MMI/Tools/MinGW/include/c++/3.3.1/bits/stl_alloc.h **** 
 391:h:/6261A/11CW1352MP_BIRD61A_11C_V33_GPRS_MMI/Tools/MinGW/include/c++/3.3.1/bits/stl_alloc.h **** 	// If there is a race through here, assume answer from getenv
 392:h:/6261A/11CW1352MP_BIRD61A_11C_V33_GPRS_MMI/Tools/MinGW/include/c++/3.3.1/bits/stl_alloc.h **** 	// will resolve in same direction.  Inspired by techniques
 393:h:/6261A/11CW1352MP_BIRD61A_11C_V33_GPRS_MMI/Tools/MinGW/include/c++/3.3.1/bits/stl_alloc.h **** 	// to efficiently support threading found in basic_string.h.
 394:h:/6261A/11CW1352MP_BIRD61A_11C_V33_GPRS_MMI/Tools/MinGW/include/c++/3.3.1/bits/stl_alloc.h **** 	if (_S_force_new == 0)
 395:h:/6261A/11CW1352MP_BIRD61A_11C_V33_GPRS_MMI/Tools/MinGW/include/c++/3.3.1/bits/stl_alloc.h **** 	  {
 396:h:/6261A/11CW1352MP_BIRD61A_11C_V33_GPRS_MMI/Tools/MinGW/include/c++/3.3.1/bits/stl_alloc.h **** 	    if (getenv("GLIBCPP_FORCE_NEW"))
 397:h:/6261A/11CW1352MP_BIRD61A_11C_V33_GPRS_MMI/Tools/MinGW/include/c++/3.3.1/bits/stl_alloc.h **** 	      __atomic_add(&_S_force_new, 1);
 398:h:/6261A/11CW1352MP_BIRD61A_11C_V33_GPRS_MMI/Tools/MinGW/include/c++/3.3.1/bits/stl_alloc.h **** 	    else
 399:h:/6261A/11CW1352MP_BIRD61A_11C_V33_GPRS_MMI/Tools/MinGW/include/c++/3.3.1/bits/stl_alloc.h **** 	      __atomic_add(&_S_force_new, -1);
 400:h:/6261A/11CW1352MP_BIRD61A_11C_V33_GPRS_MMI/Tools/MinGW/include/c++/3.3.1/bits/stl_alloc.h **** 	  }
 401:h:/6261A/11CW1352MP_BIRD61A_11C_V33_GPRS_MMI/Tools/MinGW/include/c++/3.3.1/bits/stl_alloc.h **** 
 402:h:/6261A/11CW1352MP_BIRD61A_11C_V33_GPRS_MMI/Tools/MinGW/include/c++/3.3.1/bits/stl_alloc.h **** 	if ((__n > (size_t) _MAX_BYTES) || (_S_force_new > 0))
 403:h:/6261A/11CW1352MP_BIRD61A_11C_V33_GPRS_MMI/Tools/MinGW/include/c++/3.3.1/bits/stl_alloc.h **** 	  __ret = __new_alloc::allocate(__n);
 404:h:/6261A/11CW1352MP_BIRD61A_11C_V33_GPRS_MMI/Tools/MinGW/include/c++/3.3.1/bits/stl_alloc.h **** 	else
 405:h:/6261A/11CW1352MP_BIRD61A_11C_V33_GPRS_MMI/Tools/MinGW/include/c++/3.3.1/bits/stl_alloc.h **** 	  {
 406:h:/6261A/11CW1352MP_BIRD61A_11C_V33_GPRS_MMI/Tools/MinGW/include/c++/3.3.1/bits/stl_alloc.h **** 	    _Obj* volatile* __my_free_list = _S_free_list
 407:h:/6261A/11CW1352MP_BIRD61A_11C_V33_GPRS_MMI/Tools/MinGW/include/c++/3.3.1/bits/stl_alloc.h **** 	      + _S_freelist_index(__n);
 408:h:/6261A/11CW1352MP_BIRD61A_11C_V33_GPRS_MMI/Tools/MinGW/include/c++/3.3.1/bits/stl_alloc.h **** 	    // Acquire the lock here with a constructor call.  This
 409:h:/6261A/11CW1352MP_BIRD61A_11C_V33_GPRS_MMI/Tools/MinGW/include/c++/3.3.1/bits/stl_alloc.h **** 	    // ensures that it is released in exit or during stack
 410:h:/6261A/11CW1352MP_BIRD61A_11C_V33_GPRS_MMI/Tools/MinGW/include/c++/3.3.1/bits/stl_alloc.h **** 	    // unwinding.
 411:h:/6261A/11CW1352MP_BIRD61A_11C_V33_GPRS_MMI/Tools/MinGW/include/c++/3.3.1/bits/stl_alloc.h **** 	    _Lock __lock_instance;
 412:h:/6261A/11CW1352MP_BIRD61A_11C_V33_GPRS_MMI/Tools/MinGW/include/c++/3.3.1/bits/stl_alloc.h **** 	    _Obj* __restrict__ __result = *__my_free_list;
 413:h:/6261A/11CW1352MP_BIRD61A_11C_V33_GPRS_MMI/Tools/MinGW/include/c++/3.3.1/bits/stl_alloc.h **** 	    if (__builtin_expect(__result == 0, 0))
 414:h:/6261A/11CW1352MP_BIRD61A_11C_V33_GPRS_MMI/Tools/MinGW/include/c++/3.3.1/bits/stl_alloc.h **** 	      __ret = _S_refill(_S_round_up(__n));
 415:h:/6261A/11CW1352MP_BIRD61A_11C_V33_GPRS_MMI/Tools/MinGW/include/c++/3.3.1/bits/stl_alloc.h **** 	    else
 416:h:/6261A/11CW1352MP_BIRD61A_11C_V33_GPRS_MMI/Tools/MinGW/include/c++/3.3.1/bits/stl_alloc.h **** 	      {
 417:h:/6261A/11CW1352MP_BIRD61A_11C_V33_GPRS_MMI/Tools/MinGW/include/c++/3.3.1/bits/stl_alloc.h **** 		*__my_free_list = __result -> _M_free_list_link;
 418:h:/6261A/11CW1352MP_BIRD61A_11C_V33_GPRS_MMI/Tools/MinGW/include/c++/3.3.1/bits/stl_alloc.h **** 		__ret = __result;
 419:h:/6261A/11CW1352MP_BIRD61A_11C_V33_GPRS_MMI/Tools/MinGW/include/c++/3.3.1/bits/stl_alloc.h **** 	      }	    
 420:h:/6261A/11CW1352MP_BIRD61A_11C_V33_GPRS_MMI/Tools/MinGW/include/c++/3.3.1/bits/stl_alloc.h **** 	    if (__builtin_expect(__ret == 0, 0))
 421:h:/6261A/11CW1352MP_BIRD61A_11C_V33_GPRS_MMI/Tools/MinGW/include/c++/3.3.1/bits/stl_alloc.h **** 	      __throw_bad_alloc();
 422:h:/6261A/11CW1352MP_BIRD61A_11C_V33_GPRS_MMI/Tools/MinGW/include/c++/3.3.1/bits/stl_alloc.h **** 	  }
 423:h:/6261A/11CW1352MP_BIRD61A_11C_V33_GPRS_MMI/Tools/MinGW/include/c++/3.3.1/bits/stl_alloc.h **** 	return __ret;
 424:h:/6261A/11CW1352MP_BIRD61A_11C_V33_GPRS_MMI/Tools/MinGW/include/c++/3.3.1/bits/stl_alloc.h ****       }
 425:h:/6261A/11CW1352MP_BIRD61A_11C_V33_GPRS_MMI/Tools/MinGW/include/c++/3.3.1/bits/stl_alloc.h **** 
 426:h:/6261A/11CW1352MP_BIRD61A_11C_V33_GPRS_MMI/Tools/MinGW/include/c++/3.3.1/bits/stl_alloc.h ****       // __p may not be 0
 427:h:/6261A/11CW1352MP_BIRD61A_11C_V33_GPRS_MMI/Tools/MinGW/include/c++/3.3.1/bits/stl_alloc.h ****       static void
 428:h:/6261A/11CW1352MP_BIRD61A_11C_V33_GPRS_MMI/Tools/MinGW/include/c++/3.3.1/bits/stl_alloc.h ****       deallocate(void* __p, size_t __n)
 429:h:/6261A/11CW1352MP_BIRD61A_11C_V33_GPRS_MMI/Tools/MinGW/include/c++/3.3.1/bits/stl_alloc.h ****       {
 430:h:/6261A/11CW1352MP_BIRD61A_11C_V33_GPRS_MMI/Tools/MinGW/include/c++/3.3.1/bits/stl_alloc.h **** 	if ((__n > (size_t) _MAX_BYTES) || (_S_force_new > 0))
 431:h:/6261A/11CW1352MP_BIRD61A_11C_V33_GPRS_MMI/Tools/MinGW/include/c++/3.3.1/bits/stl_alloc.h **** 	  __new_alloc::deallocate(__p, __n);
GAS LISTING h:/6261A/11CW1352MP_BIRD61A_11C_V33_GPRS_MMI/plutommi/Customer/ResGenerator/gcctmp/ccEHcaaa.s 			page 58


 432:h:/6261A/11CW1352MP_BIRD61A_11C_V33_GPRS_MMI/Tools/MinGW/include/c++/3.3.1/bits/stl_alloc.h **** 	else
 433:h:/6261A/11CW1352MP_BIRD61A_11C_V33_GPRS_MMI/Tools/MinGW/include/c++/3.3.1/bits/stl_alloc.h **** 	  {
 434:h:/6261A/11CW1352MP_BIRD61A_11C_V33_GPRS_MMI/Tools/MinGW/include/c++/3.3.1/bits/stl_alloc.h **** 	    _Obj* volatile*  __my_free_list = _S_free_list
 435:h:/6261A/11CW1352MP_BIRD61A_11C_V33_GPRS_MMI/Tools/MinGW/include/c++/3.3.1/bits/stl_alloc.h **** 	      + _S_freelist_index(__n);
 436:h:/6261A/11CW1352MP_BIRD61A_11C_V33_GPRS_MMI/Tools/MinGW/include/c++/3.3.1/bits/stl_alloc.h **** 	    _Obj* __q = (_Obj*)__p;
 437:h:/6261A/11CW1352MP_BIRD61A_11C_V33_GPRS_MMI/Tools/MinGW/include/c++/3.3.1/bits/stl_alloc.h **** 
 438:h:/6261A/11CW1352MP_BIRD61A_11C_V33_GPRS_MMI/Tools/MinGW/include/c++/3.3.1/bits/stl_alloc.h **** 	    // Acquire the lock here with a constructor call.  This
 439:h:/6261A/11CW1352MP_BIRD61A_11C_V33_GPRS_MMI/Tools/MinGW/include/c++/3.3.1/bits/stl_alloc.h **** 	    // ensures that it is released in exit or during stack
 440:h:/6261A/11CW1352MP_BIRD61A_11C_V33_GPRS_MMI/Tools/MinGW/include/c++/3.3.1/bits/stl_alloc.h **** 	    // unwinding.
 441:h:/6261A/11CW1352MP_BIRD61A_11C_V33_GPRS_MMI/Tools/MinGW/include/c++/3.3.1/bits/stl_alloc.h **** 	    _Lock __lock_instance;
 442:h:/6261A/11CW1352MP_BIRD61A_11C_V33_GPRS_MMI/Tools/MinGW/include/c++/3.3.1/bits/stl_alloc.h **** 	    __q -> _M_free_list_link = *__my_free_list;
 443:h:/6261A/11CW1352MP_BIRD61A_11C_V33_GPRS_MMI/Tools/MinGW/include/c++/3.3.1/bits/stl_alloc.h **** 	    *__my_free_list = __q;
 444:h:/6261A/11CW1352MP_BIRD61A_11C_V33_GPRS_MMI/Tools/MinGW/include/c++/3.3.1/bits/stl_alloc.h **** 	  }
 445:h:/6261A/11CW1352MP_BIRD61A_11C_V33_GPRS_MMI/Tools/MinGW/include/c++/3.3.1/bits/stl_alloc.h ****       }
 446:h:/6261A/11CW1352MP_BIRD61A_11C_V33_GPRS_MMI/Tools/MinGW/include/c++/3.3.1/bits/stl_alloc.h **** 
 447:h:/6261A/11CW1352MP_BIRD61A_11C_V33_GPRS_MMI/Tools/MinGW/include/c++/3.3.1/bits/stl_alloc.h ****       static void*
 448:h:/6261A/11CW1352MP_BIRD61A_11C_V33_GPRS_MMI/Tools/MinGW/include/c++/3.3.1/bits/stl_alloc.h ****       reallocate(void* __p, size_t __old_sz, size_t __new_sz);
 449:h:/6261A/11CW1352MP_BIRD61A_11C_V33_GPRS_MMI/Tools/MinGW/include/c++/3.3.1/bits/stl_alloc.h ****     };
 450:h:/6261A/11CW1352MP_BIRD61A_11C_V33_GPRS_MMI/Tools/MinGW/include/c++/3.3.1/bits/stl_alloc.h **** 
 451:h:/6261A/11CW1352MP_BIRD61A_11C_V33_GPRS_MMI/Tools/MinGW/include/c++/3.3.1/bits/stl_alloc.h ****   template<bool __threads, int __inst> _Atomic_word
 452:h:/6261A/11CW1352MP_BIRD61A_11C_V33_GPRS_MMI/Tools/MinGW/include/c++/3.3.1/bits/stl_alloc.h ****   __default_alloc_template<__threads, __inst>::_S_force_new = 0;
 453:h:/6261A/11CW1352MP_BIRD61A_11C_V33_GPRS_MMI/Tools/MinGW/include/c++/3.3.1/bits/stl_alloc.h **** 
 454:h:/6261A/11CW1352MP_BIRD61A_11C_V33_GPRS_MMI/Tools/MinGW/include/c++/3.3.1/bits/stl_alloc.h ****   template<bool __threads, int __inst>
 455:h:/6261A/11CW1352MP_BIRD61A_11C_V33_GPRS_MMI/Tools/MinGW/include/c++/3.3.1/bits/stl_alloc.h ****     inline bool
 456:h:/6261A/11CW1352MP_BIRD61A_11C_V33_GPRS_MMI/Tools/MinGW/include/c++/3.3.1/bits/stl_alloc.h ****     operator==(const __default_alloc_template<__threads,__inst>&,
 457:h:/6261A/11CW1352MP_BIRD61A_11C_V33_GPRS_MMI/Tools/MinGW/include/c++/3.3.1/bits/stl_alloc.h ****                const __default_alloc_template<__threads,__inst>&)
 458:h:/6261A/11CW1352MP_BIRD61A_11C_V33_GPRS_MMI/Tools/MinGW/include/c++/3.3.1/bits/stl_alloc.h ****     { return true; }
 459:h:/6261A/11CW1352MP_BIRD61A_11C_V33_GPRS_MMI/Tools/MinGW/include/c++/3.3.1/bits/stl_alloc.h **** 
 460:h:/6261A/11CW1352MP_BIRD61A_11C_V33_GPRS_MMI/Tools/MinGW/include/c++/3.3.1/bits/stl_alloc.h ****   template<bool __threads, int __inst>
 461:h:/6261A/11CW1352MP_BIRD61A_11C_V33_GPRS_MMI/Tools/MinGW/include/c++/3.3.1/bits/stl_alloc.h ****     inline bool
 462:h:/6261A/11CW1352MP_BIRD61A_11C_V33_GPRS_MMI/Tools/MinGW/include/c++/3.3.1/bits/stl_alloc.h ****     operator!=(const __default_alloc_template<__threads,__inst>&,
 463:h:/6261A/11CW1352MP_BIRD61A_11C_V33_GPRS_MMI/Tools/MinGW/include/c++/3.3.1/bits/stl_alloc.h ****                const __default_alloc_template<__threads,__inst>&)
 464:h:/6261A/11CW1352MP_BIRD61A_11C_V33_GPRS_MMI/Tools/MinGW/include/c++/3.3.1/bits/stl_alloc.h ****     { return false; }
 465:h:/6261A/11CW1352MP_BIRD61A_11C_V33_GPRS_MMI/Tools/MinGW/include/c++/3.3.1/bits/stl_alloc.h **** 
 466:h:/6261A/11CW1352MP_BIRD61A_11C_V33_GPRS_MMI/Tools/MinGW/include/c++/3.3.1/bits/stl_alloc.h **** 
 467:h:/6261A/11CW1352MP_BIRD61A_11C_V33_GPRS_MMI/Tools/MinGW/include/c++/3.3.1/bits/stl_alloc.h ****   // We allocate memory in large chunks in order to avoid fragmenting the
 468:h:/6261A/11CW1352MP_BIRD61A_11C_V33_GPRS_MMI/Tools/MinGW/include/c++/3.3.1/bits/stl_alloc.h ****   // heap too much.  We assume that __size is properly aligned.  We hold
 469:h:/6261A/11CW1352MP_BIRD61A_11C_V33_GPRS_MMI/Tools/MinGW/include/c++/3.3.1/bits/stl_alloc.h ****   // the allocation lock.
 470:h:/6261A/11CW1352MP_BIRD61A_11C_V33_GPRS_MMI/Tools/MinGW/include/c++/3.3.1/bits/stl_alloc.h ****   template<bool __threads, int __inst>
 471:h:/6261A/11CW1352MP_BIRD61A_11C_V33_GPRS_MMI/Tools/MinGW/include/c++/3.3.1/bits/stl_alloc.h ****     char*
 472:h:/6261A/11CW1352MP_BIRD61A_11C_V33_GPRS_MMI/Tools/MinGW/include/c++/3.3.1/bits/stl_alloc.h ****     __default_alloc_template<__threads, __inst>::
 473:h:/6261A/11CW1352MP_BIRD61A_11C_V33_GPRS_MMI/Tools/MinGW/include/c++/3.3.1/bits/stl_alloc.h ****     _S_chunk_alloc(size_t __size, int& __nobjs)
 474:h:/6261A/11CW1352MP_BIRD61A_11C_V33_GPRS_MMI/Tools/MinGW/include/c++/3.3.1/bits/stl_alloc.h ****     {
 475:h:/6261A/11CW1352MP_BIRD61A_11C_V33_GPRS_MMI/Tools/MinGW/include/c++/3.3.1/bits/stl_alloc.h ****       char* __result;
 476:h:/6261A/11CW1352MP_BIRD61A_11C_V33_GPRS_MMI/Tools/MinGW/include/c++/3.3.1/bits/stl_alloc.h ****       size_t __total_bytes = __size * __nobjs;
 477:h:/6261A/11CW1352MP_BIRD61A_11C_V33_GPRS_MMI/Tools/MinGW/include/c++/3.3.1/bits/stl_alloc.h ****       size_t __bytes_left = _S_end_free - _S_start_free;
 478:h:/6261A/11CW1352MP_BIRD61A_11C_V33_GPRS_MMI/Tools/MinGW/include/c++/3.3.1/bits/stl_alloc.h **** 
 479:h:/6261A/11CW1352MP_BIRD61A_11C_V33_GPRS_MMI/Tools/MinGW/include/c++/3.3.1/bits/stl_alloc.h ****       if (__bytes_left >= __total_bytes)
 480:h:/6261A/11CW1352MP_BIRD61A_11C_V33_GPRS_MMI/Tools/MinGW/include/c++/3.3.1/bits/stl_alloc.h ****         {
 481:h:/6261A/11CW1352MP_BIRD61A_11C_V33_GPRS_MMI/Tools/MinGW/include/c++/3.3.1/bits/stl_alloc.h ****           __result = _S_start_free;
 482:h:/6261A/11CW1352MP_BIRD61A_11C_V33_GPRS_MMI/Tools/MinGW/include/c++/3.3.1/bits/stl_alloc.h ****           _S_start_free += __total_bytes;
 483:h:/6261A/11CW1352MP_BIRD61A_11C_V33_GPRS_MMI/Tools/MinGW/include/c++/3.3.1/bits/stl_alloc.h ****           return __result ;
 484:h:/6261A/11CW1352MP_BIRD61A_11C_V33_GPRS_MMI/Tools/MinGW/include/c++/3.3.1/bits/stl_alloc.h ****         }
 485:h:/6261A/11CW1352MP_BIRD61A_11C_V33_GPRS_MMI/Tools/MinGW/include/c++/3.3.1/bits/stl_alloc.h ****       else if (__bytes_left >= __size)
 486:h:/6261A/11CW1352MP_BIRD61A_11C_V33_GPRS_MMI/Tools/MinGW/include/c++/3.3.1/bits/stl_alloc.h ****         {
 487:h:/6261A/11CW1352MP_BIRD61A_11C_V33_GPRS_MMI/Tools/MinGW/include/c++/3.3.1/bits/stl_alloc.h ****           __nobjs = (int)(__bytes_left/__size);
 488:h:/6261A/11CW1352MP_BIRD61A_11C_V33_GPRS_MMI/Tools/MinGW/include/c++/3.3.1/bits/stl_alloc.h ****           __total_bytes = __size * __nobjs;
GAS LISTING h:/6261A/11CW1352MP_BIRD61A_11C_V33_GPRS_MMI/plutommi/Customer/ResGenerator/gcctmp/ccEHcaaa.s 			page 59


 489:h:/6261A/11CW1352MP_BIRD61A_11C_V33_GPRS_MMI/Tools/MinGW/include/c++/3.3.1/bits/stl_alloc.h ****           __result = _S_start_free;
 490:h:/6261A/11CW1352MP_BIRD61A_11C_V33_GPRS_MMI/Tools/MinGW/include/c++/3.3.1/bits/stl_alloc.h ****           _S_start_free += __total_bytes;
 491:h:/6261A/11CW1352MP_BIRD61A_11C_V33_GPRS_MMI/Tools/MinGW/include/c++/3.3.1/bits/stl_alloc.h ****           return __result;
 492:h:/6261A/11CW1352MP_BIRD61A_11C_V33_GPRS_MMI/Tools/MinGW/include/c++/3.3.1/bits/stl_alloc.h ****         }
 493:h:/6261A/11CW1352MP_BIRD61A_11C_V33_GPRS_MMI/Tools/MinGW/include/c++/3.3.1/bits/stl_alloc.h ****       else
 494:h:/6261A/11CW1352MP_BIRD61A_11C_V33_GPRS_MMI/Tools/MinGW/include/c++/3.3.1/bits/stl_alloc.h ****         {
 495:h:/6261A/11CW1352MP_BIRD61A_11C_V33_GPRS_MMI/Tools/MinGW/include/c++/3.3.1/bits/stl_alloc.h ****           size_t __bytes_to_get =
 496:h:/6261A/11CW1352MP_BIRD61A_11C_V33_GPRS_MMI/Tools/MinGW/include/c++/3.3.1/bits/stl_alloc.h ****             2 * __total_bytes + _S_round_up(_S_heap_size >> 4);
 497:h:/6261A/11CW1352MP_BIRD61A_11C_V33_GPRS_MMI/Tools/MinGW/include/c++/3.3.1/bits/stl_alloc.h ****           // Try to make use of the left-over piece.
 498:h:/6261A/11CW1352MP_BIRD61A_11C_V33_GPRS_MMI/Tools/MinGW/include/c++/3.3.1/bits/stl_alloc.h ****           if (__bytes_left > 0)
 499:h:/6261A/11CW1352MP_BIRD61A_11C_V33_GPRS_MMI/Tools/MinGW/include/c++/3.3.1/bits/stl_alloc.h ****             {
 500:h:/6261A/11CW1352MP_BIRD61A_11C_V33_GPRS_MMI/Tools/MinGW/include/c++/3.3.1/bits/stl_alloc.h ****               _Obj* volatile* __my_free_list =
 501:h:/6261A/11CW1352MP_BIRD61A_11C_V33_GPRS_MMI/Tools/MinGW/include/c++/3.3.1/bits/stl_alloc.h ****                 _S_free_list + _S_freelist_index(__bytes_left);
 502:h:/6261A/11CW1352MP_BIRD61A_11C_V33_GPRS_MMI/Tools/MinGW/include/c++/3.3.1/bits/stl_alloc.h **** 
 503:h:/6261A/11CW1352MP_BIRD61A_11C_V33_GPRS_MMI/Tools/MinGW/include/c++/3.3.1/bits/stl_alloc.h ****               ((_Obj*)(void*)_S_start_free) -> _M_free_list_link = *__my_free_list;
 504:h:/6261A/11CW1352MP_BIRD61A_11C_V33_GPRS_MMI/Tools/MinGW/include/c++/3.3.1/bits/stl_alloc.h ****               *__my_free_list = (_Obj*)(void*)_S_start_free;
 505:h:/6261A/11CW1352MP_BIRD61A_11C_V33_GPRS_MMI/Tools/MinGW/include/c++/3.3.1/bits/stl_alloc.h ****             }
 506:h:/6261A/11CW1352MP_BIRD61A_11C_V33_GPRS_MMI/Tools/MinGW/include/c++/3.3.1/bits/stl_alloc.h ****           _S_start_free = (char*) __new_alloc::allocate(__bytes_to_get);
 507:h:/6261A/11CW1352MP_BIRD61A_11C_V33_GPRS_MMI/Tools/MinGW/include/c++/3.3.1/bits/stl_alloc.h ****           if (_S_start_free == 0)
 508:h:/6261A/11CW1352MP_BIRD61A_11C_V33_GPRS_MMI/Tools/MinGW/include/c++/3.3.1/bits/stl_alloc.h ****             {
 509:h:/6261A/11CW1352MP_BIRD61A_11C_V33_GPRS_MMI/Tools/MinGW/include/c++/3.3.1/bits/stl_alloc.h ****               size_t __i;
 510:h:/6261A/11CW1352MP_BIRD61A_11C_V33_GPRS_MMI/Tools/MinGW/include/c++/3.3.1/bits/stl_alloc.h ****               _Obj* volatile* __my_free_list;
 511:h:/6261A/11CW1352MP_BIRD61A_11C_V33_GPRS_MMI/Tools/MinGW/include/c++/3.3.1/bits/stl_alloc.h ****               _Obj* __p;
 512:h:/6261A/11CW1352MP_BIRD61A_11C_V33_GPRS_MMI/Tools/MinGW/include/c++/3.3.1/bits/stl_alloc.h ****               // Try to make do with what we have.  That can't hurt.  We
 513:h:/6261A/11CW1352MP_BIRD61A_11C_V33_GPRS_MMI/Tools/MinGW/include/c++/3.3.1/bits/stl_alloc.h ****               // do not try smaller requests, since that tends to result
 514:h:/6261A/11CW1352MP_BIRD61A_11C_V33_GPRS_MMI/Tools/MinGW/include/c++/3.3.1/bits/stl_alloc.h ****               // in disaster on multi-process machines.
 515:h:/6261A/11CW1352MP_BIRD61A_11C_V33_GPRS_MMI/Tools/MinGW/include/c++/3.3.1/bits/stl_alloc.h ****               __i = __size;
 516:h:/6261A/11CW1352MP_BIRD61A_11C_V33_GPRS_MMI/Tools/MinGW/include/c++/3.3.1/bits/stl_alloc.h ****               for (; __i <= (size_t) _MAX_BYTES; __i += (size_t) _ALIGN)
 517:h:/6261A/11CW1352MP_BIRD61A_11C_V33_GPRS_MMI/Tools/MinGW/include/c++/3.3.1/bits/stl_alloc.h ****                 {
 518:h:/6261A/11CW1352MP_BIRD61A_11C_V33_GPRS_MMI/Tools/MinGW/include/c++/3.3.1/bits/stl_alloc.h ****                   __my_free_list = _S_free_list + _S_freelist_index(__i);
 519:h:/6261A/11CW1352MP_BIRD61A_11C_V33_GPRS_MMI/Tools/MinGW/include/c++/3.3.1/bits/stl_alloc.h ****                   __p = *__my_free_list;
 520:h:/6261A/11CW1352MP_BIRD61A_11C_V33_GPRS_MMI/Tools/MinGW/include/c++/3.3.1/bits/stl_alloc.h ****                   if (__p != 0)
 521:h:/6261A/11CW1352MP_BIRD61A_11C_V33_GPRS_MMI/Tools/MinGW/include/c++/3.3.1/bits/stl_alloc.h ****                     {
 522:h:/6261A/11CW1352MP_BIRD61A_11C_V33_GPRS_MMI/Tools/MinGW/include/c++/3.3.1/bits/stl_alloc.h ****                       *__my_free_list = __p -> _M_free_list_link;
 523:h:/6261A/11CW1352MP_BIRD61A_11C_V33_GPRS_MMI/Tools/MinGW/include/c++/3.3.1/bits/stl_alloc.h ****                       _S_start_free = (char*)__p;
 524:h:/6261A/11CW1352MP_BIRD61A_11C_V33_GPRS_MMI/Tools/MinGW/include/c++/3.3.1/bits/stl_alloc.h ****                       _S_end_free = _S_start_free + __i;
 525:h:/6261A/11CW1352MP_BIRD61A_11C_V33_GPRS_MMI/Tools/MinGW/include/c++/3.3.1/bits/stl_alloc.h ****                       return _S_chunk_alloc(__size, __nobjs);
 526:h:/6261A/11CW1352MP_BIRD61A_11C_V33_GPRS_MMI/Tools/MinGW/include/c++/3.3.1/bits/stl_alloc.h ****                       // Any leftover piece will eventually make it to the
 527:h:/6261A/11CW1352MP_BIRD61A_11C_V33_GPRS_MMI/Tools/MinGW/include/c++/3.3.1/bits/stl_alloc.h ****                       // right free list.
 528:h:/6261A/11CW1352MP_BIRD61A_11C_V33_GPRS_MMI/Tools/MinGW/include/c++/3.3.1/bits/stl_alloc.h ****                     }
 529:h:/6261A/11CW1352MP_BIRD61A_11C_V33_GPRS_MMI/Tools/MinGW/include/c++/3.3.1/bits/stl_alloc.h ****                 }
 530:h:/6261A/11CW1352MP_BIRD61A_11C_V33_GPRS_MMI/Tools/MinGW/include/c++/3.3.1/bits/stl_alloc.h ****               _S_end_free = 0;        // In case of exception.
 531:h:/6261A/11CW1352MP_BIRD61A_11C_V33_GPRS_MMI/Tools/MinGW/include/c++/3.3.1/bits/stl_alloc.h ****               _S_start_free = (char*)__new_alloc::allocate(__bytes_to_get);
 532:h:/6261A/11CW1352MP_BIRD61A_11C_V33_GPRS_MMI/Tools/MinGW/include/c++/3.3.1/bits/stl_alloc.h ****               // This should either throw an exception or remedy the situation.
 533:h:/6261A/11CW1352MP_BIRD61A_11C_V33_GPRS_MMI/Tools/MinGW/include/c++/3.3.1/bits/stl_alloc.h ****               // Thus we assume it succeeded.
 534:h:/6261A/11CW1352MP_BIRD61A_11C_V33_GPRS_MMI/Tools/MinGW/include/c++/3.3.1/bits/stl_alloc.h ****             }
 535:h:/6261A/11CW1352MP_BIRD61A_11C_V33_GPRS_MMI/Tools/MinGW/include/c++/3.3.1/bits/stl_alloc.h ****           _S_heap_size += __bytes_to_get;
 536:h:/6261A/11CW1352MP_BIRD61A_11C_V33_GPRS_MMI/Tools/MinGW/include/c++/3.3.1/bits/stl_alloc.h ****           _S_end_free = _S_start_free + __bytes_to_get;
 537:h:/6261A/11CW1352MP_BIRD61A_11C_V33_GPRS_MMI/Tools/MinGW/include/c++/3.3.1/bits/stl_alloc.h ****           return _S_chunk_alloc(__size, __nobjs);
 538:h:/6261A/11CW1352MP_BIRD61A_11C_V33_GPRS_MMI/Tools/MinGW/include/c++/3.3.1/bits/stl_alloc.h ****         }
 539:h:/6261A/11CW1352MP_BIRD61A_11C_V33_GPRS_MMI/Tools/MinGW/include/c++/3.3.1/bits/stl_alloc.h ****     }
 540:h:/6261A/11CW1352MP_BIRD61A_11C_V33_GPRS_MMI/Tools/MinGW/include/c++/3.3.1/bits/stl_alloc.h **** 
 541:h:/6261A/11CW1352MP_BIRD61A_11C_V33_GPRS_MMI/Tools/MinGW/include/c++/3.3.1/bits/stl_alloc.h **** 
 542:h:/6261A/11CW1352MP_BIRD61A_11C_V33_GPRS_MMI/Tools/MinGW/include/c++/3.3.1/bits/stl_alloc.h ****   // Returns an object of size __n, and optionally adds to "size
 543:h:/6261A/11CW1352MP_BIRD61A_11C_V33_GPRS_MMI/Tools/MinGW/include/c++/3.3.1/bits/stl_alloc.h ****   // __n"'s free list.  We assume that __n is properly aligned.  We
 544:h:/6261A/11CW1352MP_BIRD61A_11C_V33_GPRS_MMI/Tools/MinGW/include/c++/3.3.1/bits/stl_alloc.h ****   // hold the allocation lock.
 545:h:/6261A/11CW1352MP_BIRD61A_11C_V33_GPRS_MMI/Tools/MinGW/include/c++/3.3.1/bits/stl_alloc.h ****   template<bool __threads, int __inst>
GAS LISTING h:/6261A/11CW1352MP_BIRD61A_11C_V33_GPRS_MMI/plutommi/Customer/ResGenerator/gcctmp/ccEHcaaa.s 			page 60


 546:h:/6261A/11CW1352MP_BIRD61A_11C_V33_GPRS_MMI/Tools/MinGW/include/c++/3.3.1/bits/stl_alloc.h ****     void*
 547:h:/6261A/11CW1352MP_BIRD61A_11C_V33_GPRS_MMI/Tools/MinGW/include/c++/3.3.1/bits/stl_alloc.h ****     __default_alloc_template<__threads, __inst>::_S_refill(size_t __n)
 548:h:/6261A/11CW1352MP_BIRD61A_11C_V33_GPRS_MMI/Tools/MinGW/include/c++/3.3.1/bits/stl_alloc.h ****     {
 549:h:/6261A/11CW1352MP_BIRD61A_11C_V33_GPRS_MMI/Tools/MinGW/include/c++/3.3.1/bits/stl_alloc.h ****       int __nobjs = 20;
 550:h:/6261A/11CW1352MP_BIRD61A_11C_V33_GPRS_MMI/Tools/MinGW/include/c++/3.3.1/bits/stl_alloc.h ****       char* __chunk = _S_chunk_alloc(__n, __nobjs);
 551:h:/6261A/11CW1352MP_BIRD61A_11C_V33_GPRS_MMI/Tools/MinGW/include/c++/3.3.1/bits/stl_alloc.h ****       _Obj* volatile* __my_free_list;
 552:h:/6261A/11CW1352MP_BIRD61A_11C_V33_GPRS_MMI/Tools/MinGW/include/c++/3.3.1/bits/stl_alloc.h ****       _Obj* __result;
 553:h:/6261A/11CW1352MP_BIRD61A_11C_V33_GPRS_MMI/Tools/MinGW/include/c++/3.3.1/bits/stl_alloc.h ****       _Obj* __current_obj;
 554:h:/6261A/11CW1352MP_BIRD61A_11C_V33_GPRS_MMI/Tools/MinGW/include/c++/3.3.1/bits/stl_alloc.h ****       _Obj* __next_obj;
 555:h:/6261A/11CW1352MP_BIRD61A_11C_V33_GPRS_MMI/Tools/MinGW/include/c++/3.3.1/bits/stl_alloc.h ****       int __i;
 556:h:/6261A/11CW1352MP_BIRD61A_11C_V33_GPRS_MMI/Tools/MinGW/include/c++/3.3.1/bits/stl_alloc.h **** 
 557:h:/6261A/11CW1352MP_BIRD61A_11C_V33_GPRS_MMI/Tools/MinGW/include/c++/3.3.1/bits/stl_alloc.h ****       if (1 == __nobjs)
 558:h:/6261A/11CW1352MP_BIRD61A_11C_V33_GPRS_MMI/Tools/MinGW/include/c++/3.3.1/bits/stl_alloc.h ****         return __chunk;
 559:h:/6261A/11CW1352MP_BIRD61A_11C_V33_GPRS_MMI/Tools/MinGW/include/c++/3.3.1/bits/stl_alloc.h ****       __my_free_list = _S_free_list + _S_freelist_index(__n);
 560:h:/6261A/11CW1352MP_BIRD61A_11C_V33_GPRS_MMI/Tools/MinGW/include/c++/3.3.1/bits/stl_alloc.h **** 
 561:h:/6261A/11CW1352MP_BIRD61A_11C_V33_GPRS_MMI/Tools/MinGW/include/c++/3.3.1/bits/stl_alloc.h ****       // Build free list in chunk.
 562:h:/6261A/11CW1352MP_BIRD61A_11C_V33_GPRS_MMI/Tools/MinGW/include/c++/3.3.1/bits/stl_alloc.h ****       __result = (_Obj*)(void*)__chunk;
 563:h:/6261A/11CW1352MP_BIRD61A_11C_V33_GPRS_MMI/Tools/MinGW/include/c++/3.3.1/bits/stl_alloc.h ****       *__my_free_list = __next_obj = (_Obj*)(void*)(__chunk + __n);
 564:h:/6261A/11CW1352MP_BIRD61A_11C_V33_GPRS_MMI/Tools/MinGW/include/c++/3.3.1/bits/stl_alloc.h ****       for (__i = 1; ; __i++)
 565:h:/6261A/11CW1352MP_BIRD61A_11C_V33_GPRS_MMI/Tools/MinGW/include/c++/3.3.1/bits/stl_alloc.h ****         {
 566:h:/6261A/11CW1352MP_BIRD61A_11C_V33_GPRS_MMI/Tools/MinGW/include/c++/3.3.1/bits/stl_alloc.h **** 	  __current_obj = __next_obj;
 567:h:/6261A/11CW1352MP_BIRD61A_11C_V33_GPRS_MMI/Tools/MinGW/include/c++/3.3.1/bits/stl_alloc.h ****           __next_obj = (_Obj*)(void*)((char*)__next_obj + __n);
 568:h:/6261A/11CW1352MP_BIRD61A_11C_V33_GPRS_MMI/Tools/MinGW/include/c++/3.3.1/bits/stl_alloc.h **** 	  if (__nobjs - 1 == __i)
 569:h:/6261A/11CW1352MP_BIRD61A_11C_V33_GPRS_MMI/Tools/MinGW/include/c++/3.3.1/bits/stl_alloc.h **** 	    {
 570:h:/6261A/11CW1352MP_BIRD61A_11C_V33_GPRS_MMI/Tools/MinGW/include/c++/3.3.1/bits/stl_alloc.h **** 	      __current_obj -> _M_free_list_link = 0;
 571:h:/6261A/11CW1352MP_BIRD61A_11C_V33_GPRS_MMI/Tools/MinGW/include/c++/3.3.1/bits/stl_alloc.h **** 	      break;
 572:h:/6261A/11CW1352MP_BIRD61A_11C_V33_GPRS_MMI/Tools/MinGW/include/c++/3.3.1/bits/stl_alloc.h **** 	    }
 573:h:/6261A/11CW1352MP_BIRD61A_11C_V33_GPRS_MMI/Tools/MinGW/include/c++/3.3.1/bits/stl_alloc.h **** 	  else
 574:h:/6261A/11CW1352MP_BIRD61A_11C_V33_GPRS_MMI/Tools/MinGW/include/c++/3.3.1/bits/stl_alloc.h **** 	    __current_obj -> _M_free_list_link = __next_obj;
 575:h:/6261A/11CW1352MP_BIRD61A_11C_V33_GPRS_MMI/Tools/MinGW/include/c++/3.3.1/bits/stl_alloc.h **** 	}
 576:h:/6261A/11CW1352MP_BIRD61A_11C_V33_GPRS_MMI/Tools/MinGW/include/c++/3.3.1/bits/stl_alloc.h ****       return __result;
 577:h:/6261A/11CW1352MP_BIRD61A_11C_V33_GPRS_MMI/Tools/MinGW/include/c++/3.3.1/bits/stl_alloc.h ****     }
 578:h:/6261A/11CW1352MP_BIRD61A_11C_V33_GPRS_MMI/Tools/MinGW/include/c++/3.3.1/bits/stl_alloc.h **** 
 579:h:/6261A/11CW1352MP_BIRD61A_11C_V33_GPRS_MMI/Tools/MinGW/include/c++/3.3.1/bits/stl_alloc.h **** 
 580:h:/6261A/11CW1352MP_BIRD61A_11C_V33_GPRS_MMI/Tools/MinGW/include/c++/3.3.1/bits/stl_alloc.h ****   template<bool threads, int inst>
 581:h:/6261A/11CW1352MP_BIRD61A_11C_V33_GPRS_MMI/Tools/MinGW/include/c++/3.3.1/bits/stl_alloc.h ****     void*
 582:h:/6261A/11CW1352MP_BIRD61A_11C_V33_GPRS_MMI/Tools/MinGW/include/c++/3.3.1/bits/stl_alloc.h ****     __default_alloc_template<threads, inst>::
 583:h:/6261A/11CW1352MP_BIRD61A_11C_V33_GPRS_MMI/Tools/MinGW/include/c++/3.3.1/bits/stl_alloc.h ****     reallocate(void* __p, size_t __old_sz, size_t __new_sz)
 584:h:/6261A/11CW1352MP_BIRD61A_11C_V33_GPRS_MMI/Tools/MinGW/include/c++/3.3.1/bits/stl_alloc.h ****     {
 585:h:/6261A/11CW1352MP_BIRD61A_11C_V33_GPRS_MMI/Tools/MinGW/include/c++/3.3.1/bits/stl_alloc.h ****       void* __result;
 586:h:/6261A/11CW1352MP_BIRD61A_11C_V33_GPRS_MMI/Tools/MinGW/include/c++/3.3.1/bits/stl_alloc.h ****       size_t __copy_sz;
 587:h:/6261A/11CW1352MP_BIRD61A_11C_V33_GPRS_MMI/Tools/MinGW/include/c++/3.3.1/bits/stl_alloc.h **** 
 588:h:/6261A/11CW1352MP_BIRD61A_11C_V33_GPRS_MMI/Tools/MinGW/include/c++/3.3.1/bits/stl_alloc.h ****       if (__old_sz > (size_t) _MAX_BYTES && __new_sz > (size_t) _MAX_BYTES)
 589:h:/6261A/11CW1352MP_BIRD61A_11C_V33_GPRS_MMI/Tools/MinGW/include/c++/3.3.1/bits/stl_alloc.h ****         return(realloc(__p, __new_sz));
 590:h:/6261A/11CW1352MP_BIRD61A_11C_V33_GPRS_MMI/Tools/MinGW/include/c++/3.3.1/bits/stl_alloc.h ****       if (_S_round_up(__old_sz) == _S_round_up(__new_sz))
 591:h:/6261A/11CW1352MP_BIRD61A_11C_V33_GPRS_MMI/Tools/MinGW/include/c++/3.3.1/bits/stl_alloc.h ****         return(__p);
 592:h:/6261A/11CW1352MP_BIRD61A_11C_V33_GPRS_MMI/Tools/MinGW/include/c++/3.3.1/bits/stl_alloc.h ****       __result = allocate(__new_sz);
 593:h:/6261A/11CW1352MP_BIRD61A_11C_V33_GPRS_MMI/Tools/MinGW/include/c++/3.3.1/bits/stl_alloc.h ****       __copy_sz = __new_sz > __old_sz? __old_sz : __new_sz;
 594:h:/6261A/11CW1352MP_BIRD61A_11C_V33_GPRS_MMI/Tools/MinGW/include/c++/3.3.1/bits/stl_alloc.h ****       memcpy(__result, __p, __copy_sz);
 595:h:/6261A/11CW1352MP_BIRD61A_11C_V33_GPRS_MMI/Tools/MinGW/include/c++/3.3.1/bits/stl_alloc.h ****       deallocate(__p, __old_sz);
 596:h:/6261A/11CW1352MP_BIRD61A_11C_V33_GPRS_MMI/Tools/MinGW/include/c++/3.3.1/bits/stl_alloc.h ****       return __result;
 597:h:/6261A/11CW1352MP_BIRD61A_11C_V33_GPRS_MMI/Tools/MinGW/include/c++/3.3.1/bits/stl_alloc.h ****     }
 598:h:/6261A/11CW1352MP_BIRD61A_11C_V33_GPRS_MMI/Tools/MinGW/include/c++/3.3.1/bits/stl_alloc.h **** 
 599:h:/6261A/11CW1352MP_BIRD61A_11C_V33_GPRS_MMI/Tools/MinGW/include/c++/3.3.1/bits/stl_alloc.h ****   template<bool __threads, int __inst>
 600:h:/6261A/11CW1352MP_BIRD61A_11C_V33_GPRS_MMI/Tools/MinGW/include/c++/3.3.1/bits/stl_alloc.h ****     _STL_mutex_lock
 601:h:/6261A/11CW1352MP_BIRD61A_11C_V33_GPRS_MMI/Tools/MinGW/include/c++/3.3.1/bits/stl_alloc.h ****     __default_alloc_template<__threads,__inst>::_S_node_allocator_lock
 602:h:/6261A/11CW1352MP_BIRD61A_11C_V33_GPRS_MMI/Tools/MinGW/include/c++/3.3.1/bits/stl_alloc.h ****     __STL_MUTEX_INITIALIZER;
GAS LISTING h:/6261A/11CW1352MP_BIRD61A_11C_V33_GPRS_MMI/plutommi/Customer/ResGenerator/gcctmp/ccEHcaaa.s 			page 61


 603:h:/6261A/11CW1352MP_BIRD61A_11C_V33_GPRS_MMI/Tools/MinGW/include/c++/3.3.1/bits/stl_alloc.h **** 
 604:h:/6261A/11CW1352MP_BIRD61A_11C_V33_GPRS_MMI/Tools/MinGW/include/c++/3.3.1/bits/stl_alloc.h ****   template<bool __threads, int __inst>
 605:h:/6261A/11CW1352MP_BIRD61A_11C_V33_GPRS_MMI/Tools/MinGW/include/c++/3.3.1/bits/stl_alloc.h ****     char* __default_alloc_template<__threads,__inst>::_S_start_free = 0;
 606:h:/6261A/11CW1352MP_BIRD61A_11C_V33_GPRS_MMI/Tools/MinGW/include/c++/3.3.1/bits/stl_alloc.h **** 
 607:h:/6261A/11CW1352MP_BIRD61A_11C_V33_GPRS_MMI/Tools/MinGW/include/c++/3.3.1/bits/stl_alloc.h ****   template<bool __threads, int __inst>
 608:h:/6261A/11CW1352MP_BIRD61A_11C_V33_GPRS_MMI/Tools/MinGW/include/c++/3.3.1/bits/stl_alloc.h ****     char* __default_alloc_template<__threads,__inst>::_S_end_free = 0;
 609:h:/6261A/11CW1352MP_BIRD61A_11C_V33_GPRS_MMI/Tools/MinGW/include/c++/3.3.1/bits/stl_alloc.h **** 
 610:h:/6261A/11CW1352MP_BIRD61A_11C_V33_GPRS_MMI/Tools/MinGW/include/c++/3.3.1/bits/stl_alloc.h ****   template<bool __threads, int __inst>
 611:h:/6261A/11CW1352MP_BIRD61A_11C_V33_GPRS_MMI/Tools/MinGW/include/c++/3.3.1/bits/stl_alloc.h ****     size_t __default_alloc_template<__threads,__inst>::_S_heap_size = 0;
 612:h:/6261A/11CW1352MP_BIRD61A_11C_V33_GPRS_MMI/Tools/MinGW/include/c++/3.3.1/bits/stl_alloc.h **** 
 613:h:/6261A/11CW1352MP_BIRD61A_11C_V33_GPRS_MMI/Tools/MinGW/include/c++/3.3.1/bits/stl_alloc.h ****   template<bool __threads, int __inst>
 614:h:/6261A/11CW1352MP_BIRD61A_11C_V33_GPRS_MMI/Tools/MinGW/include/c++/3.3.1/bits/stl_alloc.h ****     typename __default_alloc_template<__threads,__inst>::_Obj* volatile
 615:h:/6261A/11CW1352MP_BIRD61A_11C_V33_GPRS_MMI/Tools/MinGW/include/c++/3.3.1/bits/stl_alloc.h ****     __default_alloc_template<__threads,__inst>::_S_free_list[_NFREELISTS];
 616:h:/6261A/11CW1352MP_BIRD61A_11C_V33_GPRS_MMI/Tools/MinGW/include/c++/3.3.1/bits/stl_alloc.h **** 
 617:h:/6261A/11CW1352MP_BIRD61A_11C_V33_GPRS_MMI/Tools/MinGW/include/c++/3.3.1/bits/stl_alloc.h ****   typedef __default_alloc_template<true,0>    __alloc;
 618:h:/6261A/11CW1352MP_BIRD61A_11C_V33_GPRS_MMI/Tools/MinGW/include/c++/3.3.1/bits/stl_alloc.h ****   typedef __default_alloc_template<false,0>   __single_client_alloc;
 619:h:/6261A/11CW1352MP_BIRD61A_11C_V33_GPRS_MMI/Tools/MinGW/include/c++/3.3.1/bits/stl_alloc.h **** 
 620:h:/6261A/11CW1352MP_BIRD61A_11C_V33_GPRS_MMI/Tools/MinGW/include/c++/3.3.1/bits/stl_alloc.h **** 
 621:h:/6261A/11CW1352MP_BIRD61A_11C_V33_GPRS_MMI/Tools/MinGW/include/c++/3.3.1/bits/stl_alloc.h ****   /**
 622:h:/6261A/11CW1352MP_BIRD61A_11C_V33_GPRS_MMI/Tools/MinGW/include/c++/3.3.1/bits/stl_alloc.h ****    *  @brief  The "standard" allocator, as per [20.4].
 623:h:/6261A/11CW1352MP_BIRD61A_11C_V33_GPRS_MMI/Tools/MinGW/include/c++/3.3.1/bits/stl_alloc.h ****    *
 624:h:/6261A/11CW1352MP_BIRD61A_11C_V33_GPRS_MMI/Tools/MinGW/include/c++/3.3.1/bits/stl_alloc.h ****    *  The private _Alloc is "SGI" style.  (See comments at the top
 625:h:/6261A/11CW1352MP_BIRD61A_11C_V33_GPRS_MMI/Tools/MinGW/include/c++/3.3.1/bits/stl_alloc.h ****    *  of stl_alloc.h.)
 626:h:/6261A/11CW1352MP_BIRD61A_11C_V33_GPRS_MMI/Tools/MinGW/include/c++/3.3.1/bits/stl_alloc.h ****    *
 627:h:/6261A/11CW1352MP_BIRD61A_11C_V33_GPRS_MMI/Tools/MinGW/include/c++/3.3.1/bits/stl_alloc.h ****    *  The underlying allocator behaves as follows.
 628:h:/6261A/11CW1352MP_BIRD61A_11C_V33_GPRS_MMI/Tools/MinGW/include/c++/3.3.1/bits/stl_alloc.h ****    *    - __default_alloc_template is used via two typedefs
 629:h:/6261A/11CW1352MP_BIRD61A_11C_V33_GPRS_MMI/Tools/MinGW/include/c++/3.3.1/bits/stl_alloc.h ****    *    - "__single_client_alloc" typedef does no locking for threads
 630:h:/6261A/11CW1352MP_BIRD61A_11C_V33_GPRS_MMI/Tools/MinGW/include/c++/3.3.1/bits/stl_alloc.h ****    *    - "__alloc" typedef is threadsafe via the locks
 631:h:/6261A/11CW1352MP_BIRD61A_11C_V33_GPRS_MMI/Tools/MinGW/include/c++/3.3.1/bits/stl_alloc.h ****    *    - __new_alloc is used for memory requests
 632:h:/6261A/11CW1352MP_BIRD61A_11C_V33_GPRS_MMI/Tools/MinGW/include/c++/3.3.1/bits/stl_alloc.h ****    *
 633:h:/6261A/11CW1352MP_BIRD61A_11C_V33_GPRS_MMI/Tools/MinGW/include/c++/3.3.1/bits/stl_alloc.h ****    *  (See @link Allocators allocators info @endlink for more.)
 634:h:/6261A/11CW1352MP_BIRD61A_11C_V33_GPRS_MMI/Tools/MinGW/include/c++/3.3.1/bits/stl_alloc.h ****    */
 635:h:/6261A/11CW1352MP_BIRD61A_11C_V33_GPRS_MMI/Tools/MinGW/include/c++/3.3.1/bits/stl_alloc.h ****   template<typename _Tp>
 636:h:/6261A/11CW1352MP_BIRD61A_11C_V33_GPRS_MMI/Tools/MinGW/include/c++/3.3.1/bits/stl_alloc.h ****     class allocator
 637:h:/6261A/11CW1352MP_BIRD61A_11C_V33_GPRS_MMI/Tools/MinGW/include/c++/3.3.1/bits/stl_alloc.h ****     {
 638:h:/6261A/11CW1352MP_BIRD61A_11C_V33_GPRS_MMI/Tools/MinGW/include/c++/3.3.1/bits/stl_alloc.h ****       typedef __alloc _Alloc;          // The underlying allocator.
 639:h:/6261A/11CW1352MP_BIRD61A_11C_V33_GPRS_MMI/Tools/MinGW/include/c++/3.3.1/bits/stl_alloc.h ****     public:
 640:h:/6261A/11CW1352MP_BIRD61A_11C_V33_GPRS_MMI/Tools/MinGW/include/c++/3.3.1/bits/stl_alloc.h ****       typedef size_t     size_type;
 641:h:/6261A/11CW1352MP_BIRD61A_11C_V33_GPRS_MMI/Tools/MinGW/include/c++/3.3.1/bits/stl_alloc.h ****       typedef ptrdiff_t  difference_type;
 642:h:/6261A/11CW1352MP_BIRD61A_11C_V33_GPRS_MMI/Tools/MinGW/include/c++/3.3.1/bits/stl_alloc.h ****       typedef _Tp*       pointer;
 643:h:/6261A/11CW1352MP_BIRD61A_11C_V33_GPRS_MMI/Tools/MinGW/include/c++/3.3.1/bits/stl_alloc.h ****       typedef const _Tp* const_pointer;
 644:h:/6261A/11CW1352MP_BIRD61A_11C_V33_GPRS_MMI/Tools/MinGW/include/c++/3.3.1/bits/stl_alloc.h ****       typedef _Tp&       reference;
 645:h:/6261A/11CW1352MP_BIRD61A_11C_V33_GPRS_MMI/Tools/MinGW/include/c++/3.3.1/bits/stl_alloc.h ****       typedef const _Tp& const_reference;
 646:h:/6261A/11CW1352MP_BIRD61A_11C_V33_GPRS_MMI/Tools/MinGW/include/c++/3.3.1/bits/stl_alloc.h ****       typedef _Tp        value_type;
 647:h:/6261A/11CW1352MP_BIRD61A_11C_V33_GPRS_MMI/Tools/MinGW/include/c++/3.3.1/bits/stl_alloc.h **** 
 648:h:/6261A/11CW1352MP_BIRD61A_11C_V33_GPRS_MMI/Tools/MinGW/include/c++/3.3.1/bits/stl_alloc.h ****       template<typename _Tp1>
 649:h:/6261A/11CW1352MP_BIRD61A_11C_V33_GPRS_MMI/Tools/MinGW/include/c++/3.3.1/bits/stl_alloc.h ****         struct rebind
 650:h:/6261A/11CW1352MP_BIRD61A_11C_V33_GPRS_MMI/Tools/MinGW/include/c++/3.3.1/bits/stl_alloc.h ****         { typedef allocator<_Tp1> other; };
 651:h:/6261A/11CW1352MP_BIRD61A_11C_V33_GPRS_MMI/Tools/MinGW/include/c++/3.3.1/bits/stl_alloc.h **** 
 652:h:/6261A/11CW1352MP_BIRD61A_11C_V33_GPRS_MMI/Tools/MinGW/include/c++/3.3.1/bits/stl_alloc.h ****       allocator() throw() {}
 6130              	LM158:
 6131              	L163:
 6132              	L162:
 6133 0000 55       		pushl	%ebp
 6134 0001 89E5     		movl	%esp, %ebp
 6136              	LM159:
 6137 0003 5D       		popl	%ebp
GAS LISTING h:/6261A/11CW1352MP_BIRD61A_11C_V33_GPRS_MMI/plutommi/Customer/ResGenerator/gcctmp/ccEHcaaa.s 			page 62


 6138 0004 C3       		ret
 6139              	Lscope12:
 6141 0005 909090   		.section	.text$_ZNSaIN10ThreadPool7JobDataEED1Ev,"x"
 6142              		.linkonce discard
 6143              		.align 2
 6146              	.globl __ZNSaIN10ThreadPool7JobDataEED1Ev
 6148              	__ZNSaIN10ThreadPool7JobDataEED1Ev:
 653:h:/6261A/11CW1352MP_BIRD61A_11C_V33_GPRS_MMI/Tools/MinGW/include/c++/3.3.1/bits/stl_alloc.h ****       allocator(const allocator&) throw() {}
 654:h:/6261A/11CW1352MP_BIRD61A_11C_V33_GPRS_MMI/Tools/MinGW/include/c++/3.3.1/bits/stl_alloc.h ****       template<typename _Tp1>
 655:h:/6261A/11CW1352MP_BIRD61A_11C_V33_GPRS_MMI/Tools/MinGW/include/c++/3.3.1/bits/stl_alloc.h ****         allocator(const allocator<_Tp1>&) throw() {}
 656:h:/6261A/11CW1352MP_BIRD61A_11C_V33_GPRS_MMI/Tools/MinGW/include/c++/3.3.1/bits/stl_alloc.h ****       ~allocator() throw() {}
 6150              	LM160:
 6151 0000 55       		pushl	%ebp
 6152 0001 89E5     		movl	%esp, %ebp
 6154              	LM161:
 6155 0003 5D       		popl	%ebp
 6156 0004 C3       		ret
 6157              	L168:
 6158              	L165:
 6159              	Lscope13:
 6161 0005 909090   		.section	.text$_ZNSaIN10ThreadPool10ThreadDataEEC1Ev,"x"
 6162              		.linkonce discard
 6163              		.align 2
 6166              	.globl __ZNSaIN10ThreadPool10ThreadDataEEC1Ev
 6168              	__ZNSaIN10ThreadPool10ThreadDataEEC1Ev:
 6170              	LM162:
 6171              	L171:
 6172              	L170:
 6173 0000 55       		pushl	%ebp
 6174 0001 89E5     		movl	%esp, %ebp
 6176              	LM163:
 6177 0003 5D       		popl	%ebp
 6178 0004 C3       		ret
 6179              	Lscope14:
 6181 0005 909090   		.section	.text$_ZNSaIN10ThreadPool10ThreadDataEED1Ev,"x"
 6182              		.linkonce discard
 6183              		.align 2
 6186              	.globl __ZNSaIN10ThreadPool10ThreadDataEED1Ev
 6188              	__ZNSaIN10ThreadPool10ThreadDataEED1Ev:
 6190              	LM164:
 6191 0000 55       		pushl	%ebp
 6192 0001 89E5     		movl	%esp, %ebp
 6194              	LM165:
 6195 0003 5D       		popl	%ebp
 6196 0004 C3       		ret
 6197              	L176:
 6198              	L173:
 6199              	Lscope15:
 6202 0005 909090   		.section	.text$_ZNSt6vectorIN10ThreadPool10ThreadDataESaIS1_EEC1ERKS2_,"x"
 6203              		.linkonce discard
 6204              		.align 2
 6208              	.globl __ZNSt6vectorIN10ThreadPool10ThreadDataESaIS1_EEC1ERKS2_
 6210              	__ZNSt6vectorIN10ThreadPool10ThreadDataESaIS1_EEC1ERKS2_:
 6212              	Ltext4:
   1:h:/6261A/11CW1352MP_BIRD61A_11C_V33_GPRS_MMI/Tools/MinGW/include/c++/3.3.1/bits/stl_vector.h **** // Vector implementation -*- C++ -*-
   2:h:/6261A/11CW1352MP_BIRD61A_11C_V33_GPRS_MMI/Tools/MinGW/include/c++/3.3.1/bits/stl_vector.h **** 
   3:h:/6261A/11CW1352MP_BIRD61A_11C_V33_GPRS_MMI/Tools/MinGW/include/c++/3.3.1/bits/stl_vector.h **** // Copyright (C) 2001, 2002 Free Software Foundation, Inc.
GAS LISTING h:/6261A/11CW1352MP_BIRD61A_11C_V33_GPRS_MMI/plutommi/Customer/ResGenerator/gcctmp/ccEHcaaa.s 			page 63


   4:h:/6261A/11CW1352MP_BIRD61A_11C_V33_GPRS_MMI/Tools/MinGW/include/c++/3.3.1/bits/stl_vector.h **** //
   5:h:/6261A/11CW1352MP_BIRD61A_11C_V33_GPRS_MMI/Tools/MinGW/include/c++/3.3.1/bits/stl_vector.h **** // This file is part of the GNU ISO C++ Library.  This library is free
   6:h:/6261A/11CW1352MP_BIRD61A_11C_V33_GPRS_MMI/Tools/MinGW/include/c++/3.3.1/bits/stl_vector.h **** // software; you can redistribute it and/or modify it under the
   7:h:/6261A/11CW1352MP_BIRD61A_11C_V33_GPRS_MMI/Tools/MinGW/include/c++/3.3.1/bits/stl_vector.h **** // terms of the GNU General Public License as published by the
   8:h:/6261A/11CW1352MP_BIRD61A_11C_V33_GPRS_MMI/Tools/MinGW/include/c++/3.3.1/bits/stl_vector.h **** // Free Software Foundation; either version 2, or (at your option)
   9:h:/6261A/11CW1352MP_BIRD61A_11C_V33_GPRS_MMI/Tools/MinGW/include/c++/3.3.1/bits/stl_vector.h **** // any later version.
  10:h:/6261A/11CW1352MP_BIRD61A_11C_V33_GPRS_MMI/Tools/MinGW/include/c++/3.3.1/bits/stl_vector.h **** 
  11:h:/6261A/11CW1352MP_BIRD61A_11C_V33_GPRS_MMI/Tools/MinGW/include/c++/3.3.1/bits/stl_vector.h **** // This library is distributed in the hope that it will be useful,
  12:h:/6261A/11CW1352MP_BIRD61A_11C_V33_GPRS_MMI/Tools/MinGW/include/c++/3.3.1/bits/stl_vector.h **** // but WITHOUT ANY WARRANTY; without even the implied warranty of
  13:h:/6261A/11CW1352MP_BIRD61A_11C_V33_GPRS_MMI/Tools/MinGW/include/c++/3.3.1/bits/stl_vector.h **** // MERCHANTABILITY or FITNESS FOR A PARTICULAR PURPOSE.  See the
  14:h:/6261A/11CW1352MP_BIRD61A_11C_V33_GPRS_MMI/Tools/MinGW/include/c++/3.3.1/bits/stl_vector.h **** // GNU General Public License for more details.
  15:h:/6261A/11CW1352MP_BIRD61A_11C_V33_GPRS_MMI/Tools/MinGW/include/c++/3.3.1/bits/stl_vector.h **** 
  16:h:/6261A/11CW1352MP_BIRD61A_11C_V33_GPRS_MMI/Tools/MinGW/include/c++/3.3.1/bits/stl_vector.h **** // You should have received a copy of the GNU General Public License along
  17:h:/6261A/11CW1352MP_BIRD61A_11C_V33_GPRS_MMI/Tools/MinGW/include/c++/3.3.1/bits/stl_vector.h **** // with this library; see the file COPYING.  If not, write to the Free
  18:h:/6261A/11CW1352MP_BIRD61A_11C_V33_GPRS_MMI/Tools/MinGW/include/c++/3.3.1/bits/stl_vector.h **** // Software Foundation, 59 Temple Place - Suite 330, Boston, MA 02111-1307,
  19:h:/6261A/11CW1352MP_BIRD61A_11C_V33_GPRS_MMI/Tools/MinGW/include/c++/3.3.1/bits/stl_vector.h **** // USA.
  20:h:/6261A/11CW1352MP_BIRD61A_11C_V33_GPRS_MMI/Tools/MinGW/include/c++/3.3.1/bits/stl_vector.h **** 
  21:h:/6261A/11CW1352MP_BIRD61A_11C_V33_GPRS_MMI/Tools/MinGW/include/c++/3.3.1/bits/stl_vector.h **** // As a special exception, you may use this file as part of a free software
  22:h:/6261A/11CW1352MP_BIRD61A_11C_V33_GPRS_MMI/Tools/MinGW/include/c++/3.3.1/bits/stl_vector.h **** // library without restriction.  Specifically, if other files instantiate
  23:h:/6261A/11CW1352MP_BIRD61A_11C_V33_GPRS_MMI/Tools/MinGW/include/c++/3.3.1/bits/stl_vector.h **** // templates or use macros or inline functions from this file, or you compile
  24:h:/6261A/11CW1352MP_BIRD61A_11C_V33_GPRS_MMI/Tools/MinGW/include/c++/3.3.1/bits/stl_vector.h **** // this file and link it with other files to produce an executable, this
  25:h:/6261A/11CW1352MP_BIRD61A_11C_V33_GPRS_MMI/Tools/MinGW/include/c++/3.3.1/bits/stl_vector.h **** // file does not by itself cause the resulting executable to be covered by
  26:h:/6261A/11CW1352MP_BIRD61A_11C_V33_GPRS_MMI/Tools/MinGW/include/c++/3.3.1/bits/stl_vector.h **** // the GNU General Public License.  This exception does not however
  27:h:/6261A/11CW1352MP_BIRD61A_11C_V33_GPRS_MMI/Tools/MinGW/include/c++/3.3.1/bits/stl_vector.h **** // invalidate any other reasons why the executable file might be covered by
  28:h:/6261A/11CW1352MP_BIRD61A_11C_V33_GPRS_MMI/Tools/MinGW/include/c++/3.3.1/bits/stl_vector.h **** // the GNU General Public License.
  29:h:/6261A/11CW1352MP_BIRD61A_11C_V33_GPRS_MMI/Tools/MinGW/include/c++/3.3.1/bits/stl_vector.h **** 
  30:h:/6261A/11CW1352MP_BIRD61A_11C_V33_GPRS_MMI/Tools/MinGW/include/c++/3.3.1/bits/stl_vector.h **** /*
  31:h:/6261A/11CW1352MP_BIRD61A_11C_V33_GPRS_MMI/Tools/MinGW/include/c++/3.3.1/bits/stl_vector.h ****  *
  32:h:/6261A/11CW1352MP_BIRD61A_11C_V33_GPRS_MMI/Tools/MinGW/include/c++/3.3.1/bits/stl_vector.h ****  * Copyright (c) 1994
  33:h:/6261A/11CW1352MP_BIRD61A_11C_V33_GPRS_MMI/Tools/MinGW/include/c++/3.3.1/bits/stl_vector.h ****  * Hewlett-Packard Company
  34:h:/6261A/11CW1352MP_BIRD61A_11C_V33_GPRS_MMI/Tools/MinGW/include/c++/3.3.1/bits/stl_vector.h ****  *
  35:h:/6261A/11CW1352MP_BIRD61A_11C_V33_GPRS_MMI/Tools/MinGW/include/c++/3.3.1/bits/stl_vector.h ****  * Permission to use, copy, modify, distribute and sell this software
  36:h:/6261A/11CW1352MP_BIRD61A_11C_V33_GPRS_MMI/Tools/MinGW/include/c++/3.3.1/bits/stl_vector.h ****  * and its documentation for any purpose is hereby granted without fee,
  37:h:/6261A/11CW1352MP_BIRD61A_11C_V33_GPRS_MMI/Tools/MinGW/include/c++/3.3.1/bits/stl_vector.h ****  * provided that the above copyright notice appear in all copies and
  38:h:/6261A/11CW1352MP_BIRD61A_11C_V33_GPRS_MMI/Tools/MinGW/include/c++/3.3.1/bits/stl_vector.h ****  * that both that copyright notice and this permission notice appear
  39:h:/6261A/11CW1352MP_BIRD61A_11C_V33_GPRS_MMI/Tools/MinGW/include/c++/3.3.1/bits/stl_vector.h ****  * in supporting documentation.  Hewlett-Packard Company makes no
  40:h:/6261A/11CW1352MP_BIRD61A_11C_V33_GPRS_MMI/Tools/MinGW/include/c++/3.3.1/bits/stl_vector.h ****  * representations about the suitability of this software for any
  41:h:/6261A/11CW1352MP_BIRD61A_11C_V33_GPRS_MMI/Tools/MinGW/include/c++/3.3.1/bits/stl_vector.h ****  * purpose.  It is provided "as is" without express or implied warranty.
  42:h:/6261A/11CW1352MP_BIRD61A_11C_V33_GPRS_MMI/Tools/MinGW/include/c++/3.3.1/bits/stl_vector.h ****  *
  43:h:/6261A/11CW1352MP_BIRD61A_11C_V33_GPRS_MMI/Tools/MinGW/include/c++/3.3.1/bits/stl_vector.h ****  *
  44:h:/6261A/11CW1352MP_BIRD61A_11C_V33_GPRS_MMI/Tools/MinGW/include/c++/3.3.1/bits/stl_vector.h ****  * Copyright (c) 1996
  45:h:/6261A/11CW1352MP_BIRD61A_11C_V33_GPRS_MMI/Tools/MinGW/include/c++/3.3.1/bits/stl_vector.h ****  * Silicon Graphics Computer Systems, Inc.
  46:h:/6261A/11CW1352MP_BIRD61A_11C_V33_GPRS_MMI/Tools/MinGW/include/c++/3.3.1/bits/stl_vector.h ****  *
  47:h:/6261A/11CW1352MP_BIRD61A_11C_V33_GPRS_MMI/Tools/MinGW/include/c++/3.3.1/bits/stl_vector.h ****  * Permission to use, copy, modify, distribute and sell this software
  48:h:/6261A/11CW1352MP_BIRD61A_11C_V33_GPRS_MMI/Tools/MinGW/include/c++/3.3.1/bits/stl_vector.h ****  * and its documentation for any purpose is hereby granted without fee,
  49:h:/6261A/11CW1352MP_BIRD61A_11C_V33_GPRS_MMI/Tools/MinGW/include/c++/3.3.1/bits/stl_vector.h ****  * provided that the above copyright notice appear in all copies and
  50:h:/6261A/11CW1352MP_BIRD61A_11C_V33_GPRS_MMI/Tools/MinGW/include/c++/3.3.1/bits/stl_vector.h ****  * that both that copyright notice and this permission notice appear
  51:h:/6261A/11CW1352MP_BIRD61A_11C_V33_GPRS_MMI/Tools/MinGW/include/c++/3.3.1/bits/stl_vector.h ****  * in supporting documentation.  Silicon Graphics makes no
  52:h:/6261A/11CW1352MP_BIRD61A_11C_V33_GPRS_MMI/Tools/MinGW/include/c++/3.3.1/bits/stl_vector.h ****  * representations about the suitability of this  software for any
  53:h:/6261A/11CW1352MP_BIRD61A_11C_V33_GPRS_MMI/Tools/MinGW/include/c++/3.3.1/bits/stl_vector.h ****  * purpose.  It is provided "as is" without express or implied warranty.
  54:h:/6261A/11CW1352MP_BIRD61A_11C_V33_GPRS_MMI/Tools/MinGW/include/c++/3.3.1/bits/stl_vector.h ****  */
  55:h:/6261A/11CW1352MP_BIRD61A_11C_V33_GPRS_MMI/Tools/MinGW/include/c++/3.3.1/bits/stl_vector.h **** 
  56:h:/6261A/11CW1352MP_BIRD61A_11C_V33_GPRS_MMI/Tools/MinGW/include/c++/3.3.1/bits/stl_vector.h **** /** @file stl_vector.h
  57:h:/6261A/11CW1352MP_BIRD61A_11C_V33_GPRS_MMI/Tools/MinGW/include/c++/3.3.1/bits/stl_vector.h ****  *  This is an internal header file, included by other library headers.
  58:h:/6261A/11CW1352MP_BIRD61A_11C_V33_GPRS_MMI/Tools/MinGW/include/c++/3.3.1/bits/stl_vector.h ****  *  You should not attempt to use it directly.
  59:h:/6261A/11CW1352MP_BIRD61A_11C_V33_GPRS_MMI/Tools/MinGW/include/c++/3.3.1/bits/stl_vector.h ****  */
  60:h:/6261A/11CW1352MP_BIRD61A_11C_V33_GPRS_MMI/Tools/MinGW/include/c++/3.3.1/bits/stl_vector.h **** 
GAS LISTING h:/6261A/11CW1352MP_BIRD61A_11C_V33_GPRS_MMI/plutommi/Customer/ResGenerator/gcctmp/ccEHcaaa.s 			page 64


  61:h:/6261A/11CW1352MP_BIRD61A_11C_V33_GPRS_MMI/Tools/MinGW/include/c++/3.3.1/bits/stl_vector.h **** #ifndef __GLIBCPP_INTERNAL_VECTOR_H
  62:h:/6261A/11CW1352MP_BIRD61A_11C_V33_GPRS_MMI/Tools/MinGW/include/c++/3.3.1/bits/stl_vector.h **** #define __GLIBCPP_INTERNAL_VECTOR_H
  63:h:/6261A/11CW1352MP_BIRD61A_11C_V33_GPRS_MMI/Tools/MinGW/include/c++/3.3.1/bits/stl_vector.h **** 
  64:h:/6261A/11CW1352MP_BIRD61A_11C_V33_GPRS_MMI/Tools/MinGW/include/c++/3.3.1/bits/stl_vector.h **** #include <bits/stl_iterator_base_funcs.h>
  65:h:/6261A/11CW1352MP_BIRD61A_11C_V33_GPRS_MMI/Tools/MinGW/include/c++/3.3.1/bits/stl_vector.h **** #include <bits/functexcept.h>
  66:h:/6261A/11CW1352MP_BIRD61A_11C_V33_GPRS_MMI/Tools/MinGW/include/c++/3.3.1/bits/stl_vector.h **** #include <bits/concept_check.h>
  67:h:/6261A/11CW1352MP_BIRD61A_11C_V33_GPRS_MMI/Tools/MinGW/include/c++/3.3.1/bits/stl_vector.h **** 
  68:h:/6261A/11CW1352MP_BIRD61A_11C_V33_GPRS_MMI/Tools/MinGW/include/c++/3.3.1/bits/stl_vector.h **** namespace std
  69:h:/6261A/11CW1352MP_BIRD61A_11C_V33_GPRS_MMI/Tools/MinGW/include/c++/3.3.1/bits/stl_vector.h **** {
  70:h:/6261A/11CW1352MP_BIRD61A_11C_V33_GPRS_MMI/Tools/MinGW/include/c++/3.3.1/bits/stl_vector.h ****   /// @if maint Primary default version.  @endif
  71:h:/6261A/11CW1352MP_BIRD61A_11C_V33_GPRS_MMI/Tools/MinGW/include/c++/3.3.1/bits/stl_vector.h ****   /**
  72:h:/6261A/11CW1352MP_BIRD61A_11C_V33_GPRS_MMI/Tools/MinGW/include/c++/3.3.1/bits/stl_vector.h ****    *  @if maint
  73:h:/6261A/11CW1352MP_BIRD61A_11C_V33_GPRS_MMI/Tools/MinGW/include/c++/3.3.1/bits/stl_vector.h ****    *  See bits/stl_deque.h's _Deque_alloc_base for an explanation.
  74:h:/6261A/11CW1352MP_BIRD61A_11C_V33_GPRS_MMI/Tools/MinGW/include/c++/3.3.1/bits/stl_vector.h ****    *  @endif
  75:h:/6261A/11CW1352MP_BIRD61A_11C_V33_GPRS_MMI/Tools/MinGW/include/c++/3.3.1/bits/stl_vector.h ****   */
  76:h:/6261A/11CW1352MP_BIRD61A_11C_V33_GPRS_MMI/Tools/MinGW/include/c++/3.3.1/bits/stl_vector.h ****   template<typename _Tp, typename _Allocator, bool _IsStatic>
  77:h:/6261A/11CW1352MP_BIRD61A_11C_V33_GPRS_MMI/Tools/MinGW/include/c++/3.3.1/bits/stl_vector.h ****     class _Vector_alloc_base
  78:h:/6261A/11CW1352MP_BIRD61A_11C_V33_GPRS_MMI/Tools/MinGW/include/c++/3.3.1/bits/stl_vector.h ****     {
  79:h:/6261A/11CW1352MP_BIRD61A_11C_V33_GPRS_MMI/Tools/MinGW/include/c++/3.3.1/bits/stl_vector.h ****     public:
  80:h:/6261A/11CW1352MP_BIRD61A_11C_V33_GPRS_MMI/Tools/MinGW/include/c++/3.3.1/bits/stl_vector.h ****       typedef typename _Alloc_traits<_Tp, _Allocator>::allocator_type
  81:h:/6261A/11CW1352MP_BIRD61A_11C_V33_GPRS_MMI/Tools/MinGW/include/c++/3.3.1/bits/stl_vector.h ****       allocator_type;
  82:h:/6261A/11CW1352MP_BIRD61A_11C_V33_GPRS_MMI/Tools/MinGW/include/c++/3.3.1/bits/stl_vector.h **** 
  83:h:/6261A/11CW1352MP_BIRD61A_11C_V33_GPRS_MMI/Tools/MinGW/include/c++/3.3.1/bits/stl_vector.h ****       allocator_type
  84:h:/6261A/11CW1352MP_BIRD61A_11C_V33_GPRS_MMI/Tools/MinGW/include/c++/3.3.1/bits/stl_vector.h ****       get_allocator() const { return _M_data_allocator; }
  85:h:/6261A/11CW1352MP_BIRD61A_11C_V33_GPRS_MMI/Tools/MinGW/include/c++/3.3.1/bits/stl_vector.h ****   
  86:h:/6261A/11CW1352MP_BIRD61A_11C_V33_GPRS_MMI/Tools/MinGW/include/c++/3.3.1/bits/stl_vector.h ****       _Vector_alloc_base(const allocator_type& __a)
  87:h:/6261A/11CW1352MP_BIRD61A_11C_V33_GPRS_MMI/Tools/MinGW/include/c++/3.3.1/bits/stl_vector.h ****       : _M_data_allocator(__a), _M_start(0), _M_finish(0), _M_end_of_storage(0)
  88:h:/6261A/11CW1352MP_BIRD61A_11C_V33_GPRS_MMI/Tools/MinGW/include/c++/3.3.1/bits/stl_vector.h ****       { }
  89:h:/6261A/11CW1352MP_BIRD61A_11C_V33_GPRS_MMI/Tools/MinGW/include/c++/3.3.1/bits/stl_vector.h ****   
  90:h:/6261A/11CW1352MP_BIRD61A_11C_V33_GPRS_MMI/Tools/MinGW/include/c++/3.3.1/bits/stl_vector.h ****     protected:
  91:h:/6261A/11CW1352MP_BIRD61A_11C_V33_GPRS_MMI/Tools/MinGW/include/c++/3.3.1/bits/stl_vector.h ****       allocator_type _M_data_allocator;
  92:h:/6261A/11CW1352MP_BIRD61A_11C_V33_GPRS_MMI/Tools/MinGW/include/c++/3.3.1/bits/stl_vector.h ****       _Tp*           _M_start;
  93:h:/6261A/11CW1352MP_BIRD61A_11C_V33_GPRS_MMI/Tools/MinGW/include/c++/3.3.1/bits/stl_vector.h ****       _Tp*           _M_finish;
  94:h:/6261A/11CW1352MP_BIRD61A_11C_V33_GPRS_MMI/Tools/MinGW/include/c++/3.3.1/bits/stl_vector.h ****       _Tp*           _M_end_of_storage;
  95:h:/6261A/11CW1352MP_BIRD61A_11C_V33_GPRS_MMI/Tools/MinGW/include/c++/3.3.1/bits/stl_vector.h ****   
  96:h:/6261A/11CW1352MP_BIRD61A_11C_V33_GPRS_MMI/Tools/MinGW/include/c++/3.3.1/bits/stl_vector.h ****       _Tp*
  97:h:/6261A/11CW1352MP_BIRD61A_11C_V33_GPRS_MMI/Tools/MinGW/include/c++/3.3.1/bits/stl_vector.h ****       _M_allocate(size_t __n) { return _M_data_allocator.allocate(__n); }
  98:h:/6261A/11CW1352MP_BIRD61A_11C_V33_GPRS_MMI/Tools/MinGW/include/c++/3.3.1/bits/stl_vector.h ****   
  99:h:/6261A/11CW1352MP_BIRD61A_11C_V33_GPRS_MMI/Tools/MinGW/include/c++/3.3.1/bits/stl_vector.h ****       void
 100:h:/6261A/11CW1352MP_BIRD61A_11C_V33_GPRS_MMI/Tools/MinGW/include/c++/3.3.1/bits/stl_vector.h ****       _M_deallocate(_Tp* __p, size_t __n)
 101:h:/6261A/11CW1352MP_BIRD61A_11C_V33_GPRS_MMI/Tools/MinGW/include/c++/3.3.1/bits/stl_vector.h ****       { if (__p) _M_data_allocator.deallocate(__p, __n); }
 102:h:/6261A/11CW1352MP_BIRD61A_11C_V33_GPRS_MMI/Tools/MinGW/include/c++/3.3.1/bits/stl_vector.h ****     };
 103:h:/6261A/11CW1352MP_BIRD61A_11C_V33_GPRS_MMI/Tools/MinGW/include/c++/3.3.1/bits/stl_vector.h ****   
 104:h:/6261A/11CW1352MP_BIRD61A_11C_V33_GPRS_MMI/Tools/MinGW/include/c++/3.3.1/bits/stl_vector.h ****   /// @if maint Specialization for instanceless allocators.  @endif
 105:h:/6261A/11CW1352MP_BIRD61A_11C_V33_GPRS_MMI/Tools/MinGW/include/c++/3.3.1/bits/stl_vector.h ****   template<typename _Tp, typename _Allocator>
 106:h:/6261A/11CW1352MP_BIRD61A_11C_V33_GPRS_MMI/Tools/MinGW/include/c++/3.3.1/bits/stl_vector.h ****     class _Vector_alloc_base<_Tp, _Allocator, true>
 107:h:/6261A/11CW1352MP_BIRD61A_11C_V33_GPRS_MMI/Tools/MinGW/include/c++/3.3.1/bits/stl_vector.h ****     {
 108:h:/6261A/11CW1352MP_BIRD61A_11C_V33_GPRS_MMI/Tools/MinGW/include/c++/3.3.1/bits/stl_vector.h ****     public:
 109:h:/6261A/11CW1352MP_BIRD61A_11C_V33_GPRS_MMI/Tools/MinGW/include/c++/3.3.1/bits/stl_vector.h ****       typedef typename _Alloc_traits<_Tp, _Allocator>::allocator_type
 110:h:/6261A/11CW1352MP_BIRD61A_11C_V33_GPRS_MMI/Tools/MinGW/include/c++/3.3.1/bits/stl_vector.h ****              allocator_type;
 111:h:/6261A/11CW1352MP_BIRD61A_11C_V33_GPRS_MMI/Tools/MinGW/include/c++/3.3.1/bits/stl_vector.h ****   
 112:h:/6261A/11CW1352MP_BIRD61A_11C_V33_GPRS_MMI/Tools/MinGW/include/c++/3.3.1/bits/stl_vector.h ****       allocator_type
 113:h:/6261A/11CW1352MP_BIRD61A_11C_V33_GPRS_MMI/Tools/MinGW/include/c++/3.3.1/bits/stl_vector.h ****       get_allocator() const { return allocator_type(); }
 114:h:/6261A/11CW1352MP_BIRD61A_11C_V33_GPRS_MMI/Tools/MinGW/include/c++/3.3.1/bits/stl_vector.h ****       
 115:h:/6261A/11CW1352MP_BIRD61A_11C_V33_GPRS_MMI/Tools/MinGW/include/c++/3.3.1/bits/stl_vector.h ****       _Vector_alloc_base(const allocator_type&)
 116:h:/6261A/11CW1352MP_BIRD61A_11C_V33_GPRS_MMI/Tools/MinGW/include/c++/3.3.1/bits/stl_vector.h ****       : _M_start(0), _M_finish(0), _M_end_of_storage(0)
 117:h:/6261A/11CW1352MP_BIRD61A_11C_V33_GPRS_MMI/Tools/MinGW/include/c++/3.3.1/bits/stl_vector.h ****       { }
GAS LISTING h:/6261A/11CW1352MP_BIRD61A_11C_V33_GPRS_MMI/plutommi/Customer/ResGenerator/gcctmp/ccEHcaaa.s 			page 65


 118:h:/6261A/11CW1352MP_BIRD61A_11C_V33_GPRS_MMI/Tools/MinGW/include/c++/3.3.1/bits/stl_vector.h ****   
 119:h:/6261A/11CW1352MP_BIRD61A_11C_V33_GPRS_MMI/Tools/MinGW/include/c++/3.3.1/bits/stl_vector.h ****     protected:
 120:h:/6261A/11CW1352MP_BIRD61A_11C_V33_GPRS_MMI/Tools/MinGW/include/c++/3.3.1/bits/stl_vector.h ****       _Tp* _M_start;
 121:h:/6261A/11CW1352MP_BIRD61A_11C_V33_GPRS_MMI/Tools/MinGW/include/c++/3.3.1/bits/stl_vector.h ****       _Tp* _M_finish;
 122:h:/6261A/11CW1352MP_BIRD61A_11C_V33_GPRS_MMI/Tools/MinGW/include/c++/3.3.1/bits/stl_vector.h ****       _Tp* _M_end_of_storage;
 123:h:/6261A/11CW1352MP_BIRD61A_11C_V33_GPRS_MMI/Tools/MinGW/include/c++/3.3.1/bits/stl_vector.h ****   
 124:h:/6261A/11CW1352MP_BIRD61A_11C_V33_GPRS_MMI/Tools/MinGW/include/c++/3.3.1/bits/stl_vector.h ****       typedef typename _Alloc_traits<_Tp, _Allocator>::_Alloc_type _Alloc_type;
 125:h:/6261A/11CW1352MP_BIRD61A_11C_V33_GPRS_MMI/Tools/MinGW/include/c++/3.3.1/bits/stl_vector.h ****       
 126:h:/6261A/11CW1352MP_BIRD61A_11C_V33_GPRS_MMI/Tools/MinGW/include/c++/3.3.1/bits/stl_vector.h ****       _Tp*
 127:h:/6261A/11CW1352MP_BIRD61A_11C_V33_GPRS_MMI/Tools/MinGW/include/c++/3.3.1/bits/stl_vector.h ****       _M_allocate(size_t __n) { return _Alloc_type::allocate(__n); }
 128:h:/6261A/11CW1352MP_BIRD61A_11C_V33_GPRS_MMI/Tools/MinGW/include/c++/3.3.1/bits/stl_vector.h ****   
 129:h:/6261A/11CW1352MP_BIRD61A_11C_V33_GPRS_MMI/Tools/MinGW/include/c++/3.3.1/bits/stl_vector.h ****       void
 130:h:/6261A/11CW1352MP_BIRD61A_11C_V33_GPRS_MMI/Tools/MinGW/include/c++/3.3.1/bits/stl_vector.h ****       _M_deallocate(_Tp* __p, size_t __n) { _Alloc_type::deallocate(__p, __n);}
 131:h:/6261A/11CW1352MP_BIRD61A_11C_V33_GPRS_MMI/Tools/MinGW/include/c++/3.3.1/bits/stl_vector.h ****     };
 132:h:/6261A/11CW1352MP_BIRD61A_11C_V33_GPRS_MMI/Tools/MinGW/include/c++/3.3.1/bits/stl_vector.h ****   
 133:h:/6261A/11CW1352MP_BIRD61A_11C_V33_GPRS_MMI/Tools/MinGW/include/c++/3.3.1/bits/stl_vector.h ****   
 134:h:/6261A/11CW1352MP_BIRD61A_11C_V33_GPRS_MMI/Tools/MinGW/include/c++/3.3.1/bits/stl_vector.h ****   /**
 135:h:/6261A/11CW1352MP_BIRD61A_11C_V33_GPRS_MMI/Tools/MinGW/include/c++/3.3.1/bits/stl_vector.h ****    *  @if maint
 136:h:/6261A/11CW1352MP_BIRD61A_11C_V33_GPRS_MMI/Tools/MinGW/include/c++/3.3.1/bits/stl_vector.h ****    *  See bits/stl_deque.h's _Deque_base for an explanation.
 137:h:/6261A/11CW1352MP_BIRD61A_11C_V33_GPRS_MMI/Tools/MinGW/include/c++/3.3.1/bits/stl_vector.h ****    *  @endif
 138:h:/6261A/11CW1352MP_BIRD61A_11C_V33_GPRS_MMI/Tools/MinGW/include/c++/3.3.1/bits/stl_vector.h ****   */
 139:h:/6261A/11CW1352MP_BIRD61A_11C_V33_GPRS_MMI/Tools/MinGW/include/c++/3.3.1/bits/stl_vector.h ****   template<typename _Tp, typename _Alloc>
 140:h:/6261A/11CW1352MP_BIRD61A_11C_V33_GPRS_MMI/Tools/MinGW/include/c++/3.3.1/bits/stl_vector.h ****     struct _Vector_base
 141:h:/6261A/11CW1352MP_BIRD61A_11C_V33_GPRS_MMI/Tools/MinGW/include/c++/3.3.1/bits/stl_vector.h ****     : public _Vector_alloc_base<_Tp, _Alloc,
 142:h:/6261A/11CW1352MP_BIRD61A_11C_V33_GPRS_MMI/Tools/MinGW/include/c++/3.3.1/bits/stl_vector.h ****                                 _Alloc_traits<_Tp, _Alloc>::_S_instanceless>
 143:h:/6261A/11CW1352MP_BIRD61A_11C_V33_GPRS_MMI/Tools/MinGW/include/c++/3.3.1/bits/stl_vector.h ****     {
 144:h:/6261A/11CW1352MP_BIRD61A_11C_V33_GPRS_MMI/Tools/MinGW/include/c++/3.3.1/bits/stl_vector.h ****     public:
 145:h:/6261A/11CW1352MP_BIRD61A_11C_V33_GPRS_MMI/Tools/MinGW/include/c++/3.3.1/bits/stl_vector.h ****       typedef _Vector_alloc_base<_Tp, _Alloc,
 146:h:/6261A/11CW1352MP_BIRD61A_11C_V33_GPRS_MMI/Tools/MinGW/include/c++/3.3.1/bits/stl_vector.h **** 				 _Alloc_traits<_Tp, _Alloc>::_S_instanceless>
 147:h:/6261A/11CW1352MP_BIRD61A_11C_V33_GPRS_MMI/Tools/MinGW/include/c++/3.3.1/bits/stl_vector.h ****          _Base;
 148:h:/6261A/11CW1352MP_BIRD61A_11C_V33_GPRS_MMI/Tools/MinGW/include/c++/3.3.1/bits/stl_vector.h ****       typedef typename _Base::allocator_type allocator_type;
 149:h:/6261A/11CW1352MP_BIRD61A_11C_V33_GPRS_MMI/Tools/MinGW/include/c++/3.3.1/bits/stl_vector.h **** 
 150:h:/6261A/11CW1352MP_BIRD61A_11C_V33_GPRS_MMI/Tools/MinGW/include/c++/3.3.1/bits/stl_vector.h ****       _Vector_base(const allocator_type& __a)
 151:h:/6261A/11CW1352MP_BIRD61A_11C_V33_GPRS_MMI/Tools/MinGW/include/c++/3.3.1/bits/stl_vector.h ****       : _Base(__a) { }
 152:h:/6261A/11CW1352MP_BIRD61A_11C_V33_GPRS_MMI/Tools/MinGW/include/c++/3.3.1/bits/stl_vector.h ****       
 153:h:/6261A/11CW1352MP_BIRD61A_11C_V33_GPRS_MMI/Tools/MinGW/include/c++/3.3.1/bits/stl_vector.h ****       _Vector_base(size_t __n, const allocator_type& __a)
 154:h:/6261A/11CW1352MP_BIRD61A_11C_V33_GPRS_MMI/Tools/MinGW/include/c++/3.3.1/bits/stl_vector.h ****       : _Base(__a)
 155:h:/6261A/11CW1352MP_BIRD61A_11C_V33_GPRS_MMI/Tools/MinGW/include/c++/3.3.1/bits/stl_vector.h ****       {
 156:h:/6261A/11CW1352MP_BIRD61A_11C_V33_GPRS_MMI/Tools/MinGW/include/c++/3.3.1/bits/stl_vector.h **** 	_M_start = _M_allocate(__n);
 157:h:/6261A/11CW1352MP_BIRD61A_11C_V33_GPRS_MMI/Tools/MinGW/include/c++/3.3.1/bits/stl_vector.h **** 	_M_finish = _M_start;
 158:h:/6261A/11CW1352MP_BIRD61A_11C_V33_GPRS_MMI/Tools/MinGW/include/c++/3.3.1/bits/stl_vector.h **** 	_M_end_of_storage = _M_start + __n;
 159:h:/6261A/11CW1352MP_BIRD61A_11C_V33_GPRS_MMI/Tools/MinGW/include/c++/3.3.1/bits/stl_vector.h ****       }
 160:h:/6261A/11CW1352MP_BIRD61A_11C_V33_GPRS_MMI/Tools/MinGW/include/c++/3.3.1/bits/stl_vector.h ****       
 161:h:/6261A/11CW1352MP_BIRD61A_11C_V33_GPRS_MMI/Tools/MinGW/include/c++/3.3.1/bits/stl_vector.h ****       ~_Vector_base() 
 162:h:/6261A/11CW1352MP_BIRD61A_11C_V33_GPRS_MMI/Tools/MinGW/include/c++/3.3.1/bits/stl_vector.h ****       { _M_deallocate(_M_start, _M_end_of_storage - _M_start); }
 163:h:/6261A/11CW1352MP_BIRD61A_11C_V33_GPRS_MMI/Tools/MinGW/include/c++/3.3.1/bits/stl_vector.h ****     };
 164:h:/6261A/11CW1352MP_BIRD61A_11C_V33_GPRS_MMI/Tools/MinGW/include/c++/3.3.1/bits/stl_vector.h ****   
 165:h:/6261A/11CW1352MP_BIRD61A_11C_V33_GPRS_MMI/Tools/MinGW/include/c++/3.3.1/bits/stl_vector.h ****   
 166:h:/6261A/11CW1352MP_BIRD61A_11C_V33_GPRS_MMI/Tools/MinGW/include/c++/3.3.1/bits/stl_vector.h ****   /**
 167:h:/6261A/11CW1352MP_BIRD61A_11C_V33_GPRS_MMI/Tools/MinGW/include/c++/3.3.1/bits/stl_vector.h ****    *  @brief  A standard container which offers fixed time access to individual
 168:h:/6261A/11CW1352MP_BIRD61A_11C_V33_GPRS_MMI/Tools/MinGW/include/c++/3.3.1/bits/stl_vector.h ****    *  elements in any order.
 169:h:/6261A/11CW1352MP_BIRD61A_11C_V33_GPRS_MMI/Tools/MinGW/include/c++/3.3.1/bits/stl_vector.h ****    *
 170:h:/6261A/11CW1352MP_BIRD61A_11C_V33_GPRS_MMI/Tools/MinGW/include/c++/3.3.1/bits/stl_vector.h ****    *  @ingroup Containers
 171:h:/6261A/11CW1352MP_BIRD61A_11C_V33_GPRS_MMI/Tools/MinGW/include/c++/3.3.1/bits/stl_vector.h ****    *  @ingroup Sequences
 172:h:/6261A/11CW1352MP_BIRD61A_11C_V33_GPRS_MMI/Tools/MinGW/include/c++/3.3.1/bits/stl_vector.h ****    *
 173:h:/6261A/11CW1352MP_BIRD61A_11C_V33_GPRS_MMI/Tools/MinGW/include/c++/3.3.1/bits/stl_vector.h ****    *  Meets the requirements of a <a href="tables.html#65">container</a>, a
 174:h:/6261A/11CW1352MP_BIRD61A_11C_V33_GPRS_MMI/Tools/MinGW/include/c++/3.3.1/bits/stl_vector.h ****    *  <a href="tables.html#66">reversible container</a>, and a
GAS LISTING h:/6261A/11CW1352MP_BIRD61A_11C_V33_GPRS_MMI/plutommi/Customer/ResGenerator/gcctmp/ccEHcaaa.s 			page 66


 175:h:/6261A/11CW1352MP_BIRD61A_11C_V33_GPRS_MMI/Tools/MinGW/include/c++/3.3.1/bits/stl_vector.h ****    *  <a href="tables.html#67">sequence</a>, including the
 176:h:/6261A/11CW1352MP_BIRD61A_11C_V33_GPRS_MMI/Tools/MinGW/include/c++/3.3.1/bits/stl_vector.h ****    *  <a href="tables.html#68">optional sequence requirements</a> with the
 177:h:/6261A/11CW1352MP_BIRD61A_11C_V33_GPRS_MMI/Tools/MinGW/include/c++/3.3.1/bits/stl_vector.h ****    *  %exception of @c push_front and @c pop_front.
 178:h:/6261A/11CW1352MP_BIRD61A_11C_V33_GPRS_MMI/Tools/MinGW/include/c++/3.3.1/bits/stl_vector.h ****    *
 179:h:/6261A/11CW1352MP_BIRD61A_11C_V33_GPRS_MMI/Tools/MinGW/include/c++/3.3.1/bits/stl_vector.h ****    *  In some terminology a %vector can be described as a dynamic C-style array,
 180:h:/6261A/11CW1352MP_BIRD61A_11C_V33_GPRS_MMI/Tools/MinGW/include/c++/3.3.1/bits/stl_vector.h ****    *  it offers fast and efficient access to individual elements in any order
 181:h:/6261A/11CW1352MP_BIRD61A_11C_V33_GPRS_MMI/Tools/MinGW/include/c++/3.3.1/bits/stl_vector.h ****    *  and saves the user from worrying about memory and size allocation.
 182:h:/6261A/11CW1352MP_BIRD61A_11C_V33_GPRS_MMI/Tools/MinGW/include/c++/3.3.1/bits/stl_vector.h ****    *  Subscripting ( @c [] ) access is also provided as with C-style arrays.
 183:h:/6261A/11CW1352MP_BIRD61A_11C_V33_GPRS_MMI/Tools/MinGW/include/c++/3.3.1/bits/stl_vector.h ****   */
 184:h:/6261A/11CW1352MP_BIRD61A_11C_V33_GPRS_MMI/Tools/MinGW/include/c++/3.3.1/bits/stl_vector.h ****   template<typename _Tp, typename _Alloc = allocator<_Tp> >
 185:h:/6261A/11CW1352MP_BIRD61A_11C_V33_GPRS_MMI/Tools/MinGW/include/c++/3.3.1/bits/stl_vector.h ****     class vector : protected _Vector_base<_Tp, _Alloc>
 186:h:/6261A/11CW1352MP_BIRD61A_11C_V33_GPRS_MMI/Tools/MinGW/include/c++/3.3.1/bits/stl_vector.h ****     {
 187:h:/6261A/11CW1352MP_BIRD61A_11C_V33_GPRS_MMI/Tools/MinGW/include/c++/3.3.1/bits/stl_vector.h ****       // Concept requirements.
 188:h:/6261A/11CW1352MP_BIRD61A_11C_V33_GPRS_MMI/Tools/MinGW/include/c++/3.3.1/bits/stl_vector.h ****       __glibcpp_class_requires(_Tp, _SGIAssignableConcept)
 189:h:/6261A/11CW1352MP_BIRD61A_11C_V33_GPRS_MMI/Tools/MinGW/include/c++/3.3.1/bits/stl_vector.h ****   
 190:h:/6261A/11CW1352MP_BIRD61A_11C_V33_GPRS_MMI/Tools/MinGW/include/c++/3.3.1/bits/stl_vector.h ****       typedef _Vector_base<_Tp, _Alloc>                     _Base;
 191:h:/6261A/11CW1352MP_BIRD61A_11C_V33_GPRS_MMI/Tools/MinGW/include/c++/3.3.1/bits/stl_vector.h ****       typedef vector<_Tp, _Alloc>                           vector_type;
 192:h:/6261A/11CW1352MP_BIRD61A_11C_V33_GPRS_MMI/Tools/MinGW/include/c++/3.3.1/bits/stl_vector.h ****   
 193:h:/6261A/11CW1352MP_BIRD61A_11C_V33_GPRS_MMI/Tools/MinGW/include/c++/3.3.1/bits/stl_vector.h ****     public:
 194:h:/6261A/11CW1352MP_BIRD61A_11C_V33_GPRS_MMI/Tools/MinGW/include/c++/3.3.1/bits/stl_vector.h ****       typedef _Tp 						value_type;
 195:h:/6261A/11CW1352MP_BIRD61A_11C_V33_GPRS_MMI/Tools/MinGW/include/c++/3.3.1/bits/stl_vector.h ****       typedef value_type* 					pointer;
 196:h:/6261A/11CW1352MP_BIRD61A_11C_V33_GPRS_MMI/Tools/MinGW/include/c++/3.3.1/bits/stl_vector.h ****       typedef const value_type* 				const_pointer;
 197:h:/6261A/11CW1352MP_BIRD61A_11C_V33_GPRS_MMI/Tools/MinGW/include/c++/3.3.1/bits/stl_vector.h ****       typedef __gnu_cxx::__normal_iterator<pointer, vector_type> iterator;
 198:h:/6261A/11CW1352MP_BIRD61A_11C_V33_GPRS_MMI/Tools/MinGW/include/c++/3.3.1/bits/stl_vector.h ****       typedef __gnu_cxx::__normal_iterator<const_pointer, vector_type>
 199:h:/6261A/11CW1352MP_BIRD61A_11C_V33_GPRS_MMI/Tools/MinGW/include/c++/3.3.1/bits/stl_vector.h ****       const_iterator;
 200:h:/6261A/11CW1352MP_BIRD61A_11C_V33_GPRS_MMI/Tools/MinGW/include/c++/3.3.1/bits/stl_vector.h ****       typedef std::reverse_iterator<const_iterator>    	const_reverse_iterator;
 201:h:/6261A/11CW1352MP_BIRD61A_11C_V33_GPRS_MMI/Tools/MinGW/include/c++/3.3.1/bits/stl_vector.h ****       typedef std::reverse_iterator<iterator>                reverse_iterator;
 202:h:/6261A/11CW1352MP_BIRD61A_11C_V33_GPRS_MMI/Tools/MinGW/include/c++/3.3.1/bits/stl_vector.h ****       typedef value_type& 					reference;
 203:h:/6261A/11CW1352MP_BIRD61A_11C_V33_GPRS_MMI/Tools/MinGW/include/c++/3.3.1/bits/stl_vector.h ****       typedef const value_type& 				const_reference;
 204:h:/6261A/11CW1352MP_BIRD61A_11C_V33_GPRS_MMI/Tools/MinGW/include/c++/3.3.1/bits/stl_vector.h ****       typedef size_t 					size_type;
 205:h:/6261A/11CW1352MP_BIRD61A_11C_V33_GPRS_MMI/Tools/MinGW/include/c++/3.3.1/bits/stl_vector.h ****       typedef ptrdiff_t 					difference_type;
 206:h:/6261A/11CW1352MP_BIRD61A_11C_V33_GPRS_MMI/Tools/MinGW/include/c++/3.3.1/bits/stl_vector.h ****       typedef typename _Base::allocator_type                allocator_type;
 207:h:/6261A/11CW1352MP_BIRD61A_11C_V33_GPRS_MMI/Tools/MinGW/include/c++/3.3.1/bits/stl_vector.h ****       
 208:h:/6261A/11CW1352MP_BIRD61A_11C_V33_GPRS_MMI/Tools/MinGW/include/c++/3.3.1/bits/stl_vector.h ****     protected:
 209:h:/6261A/11CW1352MP_BIRD61A_11C_V33_GPRS_MMI/Tools/MinGW/include/c++/3.3.1/bits/stl_vector.h ****       /** @if maint
 210:h:/6261A/11CW1352MP_BIRD61A_11C_V33_GPRS_MMI/Tools/MinGW/include/c++/3.3.1/bits/stl_vector.h ****        *  These two functions and three data members are all from the
 211:h:/6261A/11CW1352MP_BIRD61A_11C_V33_GPRS_MMI/Tools/MinGW/include/c++/3.3.1/bits/stl_vector.h ****        *  top-most base class, which varies depending on the type of
 212:h:/6261A/11CW1352MP_BIRD61A_11C_V33_GPRS_MMI/Tools/MinGW/include/c++/3.3.1/bits/stl_vector.h ****        *  %allocator.  They should be pretty self-explanatory, as
 213:h:/6261A/11CW1352MP_BIRD61A_11C_V33_GPRS_MMI/Tools/MinGW/include/c++/3.3.1/bits/stl_vector.h ****        *  %vector uses a simple contiguous allocation scheme.  @endif
 214:h:/6261A/11CW1352MP_BIRD61A_11C_V33_GPRS_MMI/Tools/MinGW/include/c++/3.3.1/bits/stl_vector.h ****        */
 215:h:/6261A/11CW1352MP_BIRD61A_11C_V33_GPRS_MMI/Tools/MinGW/include/c++/3.3.1/bits/stl_vector.h ****       using _Base::_M_allocate;
 216:h:/6261A/11CW1352MP_BIRD61A_11C_V33_GPRS_MMI/Tools/MinGW/include/c++/3.3.1/bits/stl_vector.h ****       using _Base::_M_deallocate;
 217:h:/6261A/11CW1352MP_BIRD61A_11C_V33_GPRS_MMI/Tools/MinGW/include/c++/3.3.1/bits/stl_vector.h ****       using _Base::_M_start;
 218:h:/6261A/11CW1352MP_BIRD61A_11C_V33_GPRS_MMI/Tools/MinGW/include/c++/3.3.1/bits/stl_vector.h ****       using _Base::_M_finish;
 219:h:/6261A/11CW1352MP_BIRD61A_11C_V33_GPRS_MMI/Tools/MinGW/include/c++/3.3.1/bits/stl_vector.h ****       using _Base::_M_end_of_storage;
 220:h:/6261A/11CW1352MP_BIRD61A_11C_V33_GPRS_MMI/Tools/MinGW/include/c++/3.3.1/bits/stl_vector.h ****       
 221:h:/6261A/11CW1352MP_BIRD61A_11C_V33_GPRS_MMI/Tools/MinGW/include/c++/3.3.1/bits/stl_vector.h ****     public:
 222:h:/6261A/11CW1352MP_BIRD61A_11C_V33_GPRS_MMI/Tools/MinGW/include/c++/3.3.1/bits/stl_vector.h ****       // [23.2.4.1] construct/copy/destroy
 223:h:/6261A/11CW1352MP_BIRD61A_11C_V33_GPRS_MMI/Tools/MinGW/include/c++/3.3.1/bits/stl_vector.h ****       // (assign() and get_allocator() are also listed in this section)
 224:h:/6261A/11CW1352MP_BIRD61A_11C_V33_GPRS_MMI/Tools/MinGW/include/c++/3.3.1/bits/stl_vector.h ****       /**
 225:h:/6261A/11CW1352MP_BIRD61A_11C_V33_GPRS_MMI/Tools/MinGW/include/c++/3.3.1/bits/stl_vector.h ****        *  @brief  Default constructor creates no elements.
 226:h:/6261A/11CW1352MP_BIRD61A_11C_V33_GPRS_MMI/Tools/MinGW/include/c++/3.3.1/bits/stl_vector.h ****        */
 227:h:/6261A/11CW1352MP_BIRD61A_11C_V33_GPRS_MMI/Tools/MinGW/include/c++/3.3.1/bits/stl_vector.h ****       explicit
 228:h:/6261A/11CW1352MP_BIRD61A_11C_V33_GPRS_MMI/Tools/MinGW/include/c++/3.3.1/bits/stl_vector.h ****       vector(const allocator_type& __a = allocator_type())
 229:h:/6261A/11CW1352MP_BIRD61A_11C_V33_GPRS_MMI/Tools/MinGW/include/c++/3.3.1/bits/stl_vector.h ****       : _Base(__a) { }
 6214              	LM166:
 6215 0000 55       		pushl	%ebp
GAS LISTING h:/6261A/11CW1352MP_BIRD61A_11C_V33_GPRS_MMI/plutommi/Customer/ResGenerator/gcctmp/ccEHcaaa.s 			page 67


 6216 0001 89E5     		movl	%esp, %ebp
 6217 0003 83EC08   		subl	$8, %esp
 6219              	LM167:
 6220              	LBB33:
 6221 0006 8B450C   		movl	12(%ebp), %eax
 6222 0009 89442404 		movl	%eax, 4(%esp)
 6223 000d 8B4508   		movl	8(%ebp), %eax
 6224 0010 890424   		movl	%eax, (%esp)
 6225 0013 E8000000 		call	__ZNSt12_Vector_baseIN10ThreadPool10ThreadDataESaIS1_EEC2ERKS2_
 6225      00
 6226 0018 C9       		leave
 6227 0019 C3       		ret
 6228              	L179:
 6229              	L178:
 6230              	LBE33:
 6231              	Lscope16:
 6233 001a 9090     		.section	.text$_ZNSt6vectorIN10ThreadPool10ThreadDataESaIS1_EED1Ev,"x"
 6234              		.linkonce discard
 6235              		.align 2
 6238              	.globl __ZNSt6vectorIN10ThreadPool10ThreadDataESaIS1_EED1Ev
 6240              	__ZNSt6vectorIN10ThreadPool10ThreadDataESaIS1_EED1Ev:
 230:h:/6261A/11CW1352MP_BIRD61A_11C_V33_GPRS_MMI/Tools/MinGW/include/c++/3.3.1/bits/stl_vector.h ****   
 231:h:/6261A/11CW1352MP_BIRD61A_11C_V33_GPRS_MMI/Tools/MinGW/include/c++/3.3.1/bits/stl_vector.h ****       /**
 232:h:/6261A/11CW1352MP_BIRD61A_11C_V33_GPRS_MMI/Tools/MinGW/include/c++/3.3.1/bits/stl_vector.h ****        *  @brief  Create a %vector with copies of an exemplar element.
 233:h:/6261A/11CW1352MP_BIRD61A_11C_V33_GPRS_MMI/Tools/MinGW/include/c++/3.3.1/bits/stl_vector.h ****        *  @param  n  The number of elements to initially create.
 234:h:/6261A/11CW1352MP_BIRD61A_11C_V33_GPRS_MMI/Tools/MinGW/include/c++/3.3.1/bits/stl_vector.h ****        *  @param  value  An element to copy.
 235:h:/6261A/11CW1352MP_BIRD61A_11C_V33_GPRS_MMI/Tools/MinGW/include/c++/3.3.1/bits/stl_vector.h ****        * 
 236:h:/6261A/11CW1352MP_BIRD61A_11C_V33_GPRS_MMI/Tools/MinGW/include/c++/3.3.1/bits/stl_vector.h ****        *  This constructor fills the %vector with @a n copies of @a value.
 237:h:/6261A/11CW1352MP_BIRD61A_11C_V33_GPRS_MMI/Tools/MinGW/include/c++/3.3.1/bits/stl_vector.h ****        */
 238:h:/6261A/11CW1352MP_BIRD61A_11C_V33_GPRS_MMI/Tools/MinGW/include/c++/3.3.1/bits/stl_vector.h ****       vector(size_type __n, const value_type& __value,
 239:h:/6261A/11CW1352MP_BIRD61A_11C_V33_GPRS_MMI/Tools/MinGW/include/c++/3.3.1/bits/stl_vector.h **** 	     const allocator_type& __a = allocator_type())
 240:h:/6261A/11CW1352MP_BIRD61A_11C_V33_GPRS_MMI/Tools/MinGW/include/c++/3.3.1/bits/stl_vector.h ****       : _Base(__n, __a)
 241:h:/6261A/11CW1352MP_BIRD61A_11C_V33_GPRS_MMI/Tools/MinGW/include/c++/3.3.1/bits/stl_vector.h ****       { _M_finish = uninitialized_fill_n(_M_start, __n, __value); }
 242:h:/6261A/11CW1352MP_BIRD61A_11C_V33_GPRS_MMI/Tools/MinGW/include/c++/3.3.1/bits/stl_vector.h ****   
 243:h:/6261A/11CW1352MP_BIRD61A_11C_V33_GPRS_MMI/Tools/MinGW/include/c++/3.3.1/bits/stl_vector.h ****       /**
 244:h:/6261A/11CW1352MP_BIRD61A_11C_V33_GPRS_MMI/Tools/MinGW/include/c++/3.3.1/bits/stl_vector.h ****        *  @brief  Create a %vector with default elements.
 245:h:/6261A/11CW1352MP_BIRD61A_11C_V33_GPRS_MMI/Tools/MinGW/include/c++/3.3.1/bits/stl_vector.h ****        *  @param  n  The number of elements to initially create.
 246:h:/6261A/11CW1352MP_BIRD61A_11C_V33_GPRS_MMI/Tools/MinGW/include/c++/3.3.1/bits/stl_vector.h ****        * 
 247:h:/6261A/11CW1352MP_BIRD61A_11C_V33_GPRS_MMI/Tools/MinGW/include/c++/3.3.1/bits/stl_vector.h ****        *  This constructor fills the %vector with @a n copies of a
 248:h:/6261A/11CW1352MP_BIRD61A_11C_V33_GPRS_MMI/Tools/MinGW/include/c++/3.3.1/bits/stl_vector.h ****        *  default-constructed element.
 249:h:/6261A/11CW1352MP_BIRD61A_11C_V33_GPRS_MMI/Tools/MinGW/include/c++/3.3.1/bits/stl_vector.h ****        */
 250:h:/6261A/11CW1352MP_BIRD61A_11C_V33_GPRS_MMI/Tools/MinGW/include/c++/3.3.1/bits/stl_vector.h ****       explicit
 251:h:/6261A/11CW1352MP_BIRD61A_11C_V33_GPRS_MMI/Tools/MinGW/include/c++/3.3.1/bits/stl_vector.h ****       vector(size_type __n)
 252:h:/6261A/11CW1352MP_BIRD61A_11C_V33_GPRS_MMI/Tools/MinGW/include/c++/3.3.1/bits/stl_vector.h ****       : _Base(__n, allocator_type())
 253:h:/6261A/11CW1352MP_BIRD61A_11C_V33_GPRS_MMI/Tools/MinGW/include/c++/3.3.1/bits/stl_vector.h ****       { _M_finish = uninitialized_fill_n(_M_start, __n, value_type()); }
 254:h:/6261A/11CW1352MP_BIRD61A_11C_V33_GPRS_MMI/Tools/MinGW/include/c++/3.3.1/bits/stl_vector.h ****       
 255:h:/6261A/11CW1352MP_BIRD61A_11C_V33_GPRS_MMI/Tools/MinGW/include/c++/3.3.1/bits/stl_vector.h ****       /**
 256:h:/6261A/11CW1352MP_BIRD61A_11C_V33_GPRS_MMI/Tools/MinGW/include/c++/3.3.1/bits/stl_vector.h ****        *  @brief  %Vector copy constructor.
 257:h:/6261A/11CW1352MP_BIRD61A_11C_V33_GPRS_MMI/Tools/MinGW/include/c++/3.3.1/bits/stl_vector.h ****        *  @param  x  A %vector of identical element and allocator types.
 258:h:/6261A/11CW1352MP_BIRD61A_11C_V33_GPRS_MMI/Tools/MinGW/include/c++/3.3.1/bits/stl_vector.h ****        * 
 259:h:/6261A/11CW1352MP_BIRD61A_11C_V33_GPRS_MMI/Tools/MinGW/include/c++/3.3.1/bits/stl_vector.h ****        *  The newly-created %vector uses a copy of the allocation
 260:h:/6261A/11CW1352MP_BIRD61A_11C_V33_GPRS_MMI/Tools/MinGW/include/c++/3.3.1/bits/stl_vector.h ****        *  object used by @a x.  All the elements of @a x are copied,
 261:h:/6261A/11CW1352MP_BIRD61A_11C_V33_GPRS_MMI/Tools/MinGW/include/c++/3.3.1/bits/stl_vector.h ****        *  but any extra memory in
 262:h:/6261A/11CW1352MP_BIRD61A_11C_V33_GPRS_MMI/Tools/MinGW/include/c++/3.3.1/bits/stl_vector.h ****        *  @a x (for fast expansion) will not be copied.
 263:h:/6261A/11CW1352MP_BIRD61A_11C_V33_GPRS_MMI/Tools/MinGW/include/c++/3.3.1/bits/stl_vector.h ****        */
 264:h:/6261A/11CW1352MP_BIRD61A_11C_V33_GPRS_MMI/Tools/MinGW/include/c++/3.3.1/bits/stl_vector.h ****       vector(const vector& __x)
 265:h:/6261A/11CW1352MP_BIRD61A_11C_V33_GPRS_MMI/Tools/MinGW/include/c++/3.3.1/bits/stl_vector.h ****       : _Base(__x.size(), __x.get_allocator())
GAS LISTING h:/6261A/11CW1352MP_BIRD61A_11C_V33_GPRS_MMI/plutommi/Customer/ResGenerator/gcctmp/ccEHcaaa.s 			page 68


 266:h:/6261A/11CW1352MP_BIRD61A_11C_V33_GPRS_MMI/Tools/MinGW/include/c++/3.3.1/bits/stl_vector.h ****       { _M_finish = uninitialized_copy(__x.begin(), __x.end(), _M_start); }
 267:h:/6261A/11CW1352MP_BIRD61A_11C_V33_GPRS_MMI/Tools/MinGW/include/c++/3.3.1/bits/stl_vector.h ****   
 268:h:/6261A/11CW1352MP_BIRD61A_11C_V33_GPRS_MMI/Tools/MinGW/include/c++/3.3.1/bits/stl_vector.h ****       /**
 269:h:/6261A/11CW1352MP_BIRD61A_11C_V33_GPRS_MMI/Tools/MinGW/include/c++/3.3.1/bits/stl_vector.h ****        *  @brief  Builds a %vector from a range.
 270:h:/6261A/11CW1352MP_BIRD61A_11C_V33_GPRS_MMI/Tools/MinGW/include/c++/3.3.1/bits/stl_vector.h ****        *  @param  first  An input iterator.
 271:h:/6261A/11CW1352MP_BIRD61A_11C_V33_GPRS_MMI/Tools/MinGW/include/c++/3.3.1/bits/stl_vector.h ****        *  @param  last  An input iterator.
 272:h:/6261A/11CW1352MP_BIRD61A_11C_V33_GPRS_MMI/Tools/MinGW/include/c++/3.3.1/bits/stl_vector.h ****        * 
 273:h:/6261A/11CW1352MP_BIRD61A_11C_V33_GPRS_MMI/Tools/MinGW/include/c++/3.3.1/bits/stl_vector.h ****        *  Create a %vector consisting of copies of the elements from
 274:h:/6261A/11CW1352MP_BIRD61A_11C_V33_GPRS_MMI/Tools/MinGW/include/c++/3.3.1/bits/stl_vector.h ****        *  [first,last).
 275:h:/6261A/11CW1352MP_BIRD61A_11C_V33_GPRS_MMI/Tools/MinGW/include/c++/3.3.1/bits/stl_vector.h ****        *
 276:h:/6261A/11CW1352MP_BIRD61A_11C_V33_GPRS_MMI/Tools/MinGW/include/c++/3.3.1/bits/stl_vector.h ****        *  If the iterators are forward, bidirectional, or random-access, then
 277:h:/6261A/11CW1352MP_BIRD61A_11C_V33_GPRS_MMI/Tools/MinGW/include/c++/3.3.1/bits/stl_vector.h ****        *  this will call the elements' copy constructor N times (where N is
 278:h:/6261A/11CW1352MP_BIRD61A_11C_V33_GPRS_MMI/Tools/MinGW/include/c++/3.3.1/bits/stl_vector.h ****        *  distance(first,last)) and do no memory reallocation.  But if only
 279:h:/6261A/11CW1352MP_BIRD61A_11C_V33_GPRS_MMI/Tools/MinGW/include/c++/3.3.1/bits/stl_vector.h ****        *  input iterators are used, then this will do at most 2N calls to the
 280:h:/6261A/11CW1352MP_BIRD61A_11C_V33_GPRS_MMI/Tools/MinGW/include/c++/3.3.1/bits/stl_vector.h ****        *  copy constructor, and logN memory reallocations.
 281:h:/6261A/11CW1352MP_BIRD61A_11C_V33_GPRS_MMI/Tools/MinGW/include/c++/3.3.1/bits/stl_vector.h ****        */
 282:h:/6261A/11CW1352MP_BIRD61A_11C_V33_GPRS_MMI/Tools/MinGW/include/c++/3.3.1/bits/stl_vector.h ****       template<typename _InputIterator>
 283:h:/6261A/11CW1352MP_BIRD61A_11C_V33_GPRS_MMI/Tools/MinGW/include/c++/3.3.1/bits/stl_vector.h ****         vector(_InputIterator __first, _InputIterator __last,
 284:h:/6261A/11CW1352MP_BIRD61A_11C_V33_GPRS_MMI/Tools/MinGW/include/c++/3.3.1/bits/stl_vector.h **** 	       const allocator_type& __a = allocator_type())
 285:h:/6261A/11CW1352MP_BIRD61A_11C_V33_GPRS_MMI/Tools/MinGW/include/c++/3.3.1/bits/stl_vector.h **** 	: _Base(__a)
 286:h:/6261A/11CW1352MP_BIRD61A_11C_V33_GPRS_MMI/Tools/MinGW/include/c++/3.3.1/bits/stl_vector.h ****         {
 287:h:/6261A/11CW1352MP_BIRD61A_11C_V33_GPRS_MMI/Tools/MinGW/include/c++/3.3.1/bits/stl_vector.h **** 	  // Check whether it's an integral type.  If so, it's not an iterator.
 288:h:/6261A/11CW1352MP_BIRD61A_11C_V33_GPRS_MMI/Tools/MinGW/include/c++/3.3.1/bits/stl_vector.h **** 	  typedef typename _Is_integer<_InputIterator>::_Integral _Integral;
 289:h:/6261A/11CW1352MP_BIRD61A_11C_V33_GPRS_MMI/Tools/MinGW/include/c++/3.3.1/bits/stl_vector.h **** 	  _M_initialize_dispatch(__first, __last, _Integral());
 290:h:/6261A/11CW1352MP_BIRD61A_11C_V33_GPRS_MMI/Tools/MinGW/include/c++/3.3.1/bits/stl_vector.h **** 	}
 291:h:/6261A/11CW1352MP_BIRD61A_11C_V33_GPRS_MMI/Tools/MinGW/include/c++/3.3.1/bits/stl_vector.h ****       
 292:h:/6261A/11CW1352MP_BIRD61A_11C_V33_GPRS_MMI/Tools/MinGW/include/c++/3.3.1/bits/stl_vector.h ****       /**
 293:h:/6261A/11CW1352MP_BIRD61A_11C_V33_GPRS_MMI/Tools/MinGW/include/c++/3.3.1/bits/stl_vector.h ****        *  The dtor only erases the elements, and note that if the elements
 294:h:/6261A/11CW1352MP_BIRD61A_11C_V33_GPRS_MMI/Tools/MinGW/include/c++/3.3.1/bits/stl_vector.h ****        *  themselves are pointers, the pointed-to memory is not touched in any
 295:h:/6261A/11CW1352MP_BIRD61A_11C_V33_GPRS_MMI/Tools/MinGW/include/c++/3.3.1/bits/stl_vector.h ****        *  way.  Managing the pointer is the user's responsibilty.
 296:h:/6261A/11CW1352MP_BIRD61A_11C_V33_GPRS_MMI/Tools/MinGW/include/c++/3.3.1/bits/stl_vector.h ****        */
 297:h:/6261A/11CW1352MP_BIRD61A_11C_V33_GPRS_MMI/Tools/MinGW/include/c++/3.3.1/bits/stl_vector.h ****       ~vector() { _Destroy(_M_start, _M_finish); }
 6242              	LM168:
 6243 0000 55       		pushl	%ebp
 6244 0001 89E5     		movl	%esp, %ebp
 6245 0003 57       		pushl	%edi
 6246 0004 56       		pushl	%esi
 6247 0005 53       		pushl	%ebx
 6248 0006 83EC4C   		subl	$76, %esp
 6249 0009 C745E000 		movl	$___gxx_personality_sj0, -32(%ebp)
 6249      000000
 6250 0010 C745E42C 		movl	$LLSDA720, -28(%ebp)
 6250      000000
 6251 0017 8D45E8   		leal	-24(%ebp), %eax
 6252 001a 8D55F4   		leal	-12(%ebp), %edx
 6253 001d 8910     		movl	%edx, (%eax)
 6254 001f BA550000 		movl	$L188, %edx
 6254      00
 6255 0024 895004   		movl	%edx, 4(%eax)
 6256 0027 896008   		movl	%esp, 8(%eax)
 6257 002a 8D45C8   		leal	-56(%ebp), %eax
 6258 002d 890424   		movl	%eax, (%esp)
 6259 0030 E8000000 		call	__Unwind_SjLj_Register
 6259      00
 6261              	LM169:
 6262              	LBB34:
 6263 0035 8B4508   		movl	8(%ebp), %eax
GAS LISTING h:/6261A/11CW1352MP_BIRD61A_11C_V33_GPRS_MMI/plutommi/Customer/ResGenerator/gcctmp/ccEHcaaa.s 			page 69


 6264 0038 8B4004   		movl	4(%eax), %eax
 6265 003b 89442404 		movl	%eax, 4(%esp)
 6266 003f 8B4508   		movl	8(%ebp), %eax
 6267 0042 8B00     		movl	(%eax), %eax
 6268 0044 890424   		movl	%eax, (%esp)
 6269 0047 C745CC01 		movl	$1, -52(%ebp)
 6269      000000
 6270 004e E8000000 		call	__ZSt8_DestroyIPN10ThreadPool10ThreadDataEEvT_S3_
 6270      00
 6271 0053 EB39     		jmp	L184
 6272              	L188:
 6273 0055 8D6D0C   		leal	12(%ebp), %ebp
 6274 0058 8B45D0   		movl	-48(%ebp), %eax
 6275 005b 8945C0   		movl	%eax, -64(%ebp)
 6276              	L183:
 6277 005e 8B55C0   		movl	-64(%ebp), %edx
 6278 0061 8955C4   		movl	%edx, -60(%ebp)
 6279 0064 8B4508   		movl	8(%ebp), %eax
 6280 0067 890424   		movl	%eax, (%esp)
 6281 006a C745CC00 		movl	$0, -52(%ebp)
 6281      000000
 6282 0071 E8000000 		call	__ZNSt12_Vector_baseIN10ThreadPool10ThreadDataESaIS1_EED2Ev
 6282      00
 6283 0076 8B45C4   		movl	-60(%ebp), %eax
 6284 0079 8945C0   		movl	%eax, -64(%ebp)
 6285              	L185:
 6286 007c 8B55C0   		movl	-64(%ebp), %edx
 6287 007f 891424   		movl	%edx, (%esp)
 6288 0082 C745CCFF 		movl	$-1, -52(%ebp)
 6288      FFFFFF
 6289 0089 E8000000 		call	__Unwind_SjLj_Resume
 6289      00
 6290              	L184:
 6291 008e 8B4508   		movl	8(%ebp), %eax
 6292 0091 890424   		movl	%eax, (%esp)
 6293 0094 C745CCFF 		movl	$-1, -52(%ebp)
 6293      FFFFFF
 6294 009b E8000000 		call	__ZNSt12_Vector_baseIN10ThreadPool10ThreadDataESaIS1_EED2Ev
 6294      00
 6295              	L181:
 6296 00a0 8D45C8   		leal	-56(%ebp), %eax
 6297 00a3 890424   		movl	%eax, (%esp)
 6298 00a6 E8000000 		call	__Unwind_SjLj_Unregister
 6298      00
 6299 00ab 83C44C   		addl	$76, %esp
 6300 00ae 5B       		popl	%ebx
 6301 00af 5E       		popl	%esi
 6302 00b0 5F       		popl	%edi
 6303 00b1 5D       		popl	%ebp
 6304 00b2 C3       		ret
 6305              	LBE34:
 6306              		.section	.gcc_except_table,""
 6307              	LLSDA720:
 6308 002c FF       		.byte	0xff
 6309 002d FF       		.byte	0xff
 6310 002e 01       		.byte	0x1
 6311 002f 02       		.uleb128 LLSDACSE720-LLSDACSB720
GAS LISTING h:/6261A/11CW1352MP_BIRD61A_11C_V33_GPRS_MMI/plutommi/Customer/ResGenerator/gcctmp/ccEHcaaa.s 			page 70


 6312              	LLSDACSB720:
 6313 0030 00       		.uleb128 0x0
 6314 0031 00       		.uleb128 0x0
 6315              	LLSDACSE720:
 6316              		.section	.text$_ZNSt6vectorIN10ThreadPool10ThreadDataESaIS1_EED1Ev,"x"
 6317              		.linkonce discard
 6318              	Lscope17:
 6320 00b3 90       		.section	.text$_ZNSt6vectorIN10ThreadPool10ThreadDataESaIS1_EE3endEv,"x"
 6321              		.linkonce discard
 6322              		.align 2
 6325              	.globl __ZNSt6vectorIN10ThreadPool10ThreadDataESaIS1_EE3endEv
 6327              	__ZNSt6vectorIN10ThreadPool10ThreadDataESaIS1_EE3endEv:
 298:h:/6261A/11CW1352MP_BIRD61A_11C_V33_GPRS_MMI/Tools/MinGW/include/c++/3.3.1/bits/stl_vector.h ****   
 299:h:/6261A/11CW1352MP_BIRD61A_11C_V33_GPRS_MMI/Tools/MinGW/include/c++/3.3.1/bits/stl_vector.h ****       /**
 300:h:/6261A/11CW1352MP_BIRD61A_11C_V33_GPRS_MMI/Tools/MinGW/include/c++/3.3.1/bits/stl_vector.h ****        *  @brief  %Vector assignment operator.
 301:h:/6261A/11CW1352MP_BIRD61A_11C_V33_GPRS_MMI/Tools/MinGW/include/c++/3.3.1/bits/stl_vector.h ****        *  @param  x  A %vector of identical element and allocator types.
 302:h:/6261A/11CW1352MP_BIRD61A_11C_V33_GPRS_MMI/Tools/MinGW/include/c++/3.3.1/bits/stl_vector.h ****        * 
 303:h:/6261A/11CW1352MP_BIRD61A_11C_V33_GPRS_MMI/Tools/MinGW/include/c++/3.3.1/bits/stl_vector.h ****        *  All the elements of @a x are copied, but any extra memory in
 304:h:/6261A/11CW1352MP_BIRD61A_11C_V33_GPRS_MMI/Tools/MinGW/include/c++/3.3.1/bits/stl_vector.h ****        *  @a x (for fast expansion) will not be copied.  Unlike the
 305:h:/6261A/11CW1352MP_BIRD61A_11C_V33_GPRS_MMI/Tools/MinGW/include/c++/3.3.1/bits/stl_vector.h ****        *  copy constructor, the allocator object is not copied.
 306:h:/6261A/11CW1352MP_BIRD61A_11C_V33_GPRS_MMI/Tools/MinGW/include/c++/3.3.1/bits/stl_vector.h ****        */
 307:h:/6261A/11CW1352MP_BIRD61A_11C_V33_GPRS_MMI/Tools/MinGW/include/c++/3.3.1/bits/stl_vector.h ****       vector&
 308:h:/6261A/11CW1352MP_BIRD61A_11C_V33_GPRS_MMI/Tools/MinGW/include/c++/3.3.1/bits/stl_vector.h ****       operator=(const vector& __x);
 309:h:/6261A/11CW1352MP_BIRD61A_11C_V33_GPRS_MMI/Tools/MinGW/include/c++/3.3.1/bits/stl_vector.h ****   
 310:h:/6261A/11CW1352MP_BIRD61A_11C_V33_GPRS_MMI/Tools/MinGW/include/c++/3.3.1/bits/stl_vector.h ****       /**
 311:h:/6261A/11CW1352MP_BIRD61A_11C_V33_GPRS_MMI/Tools/MinGW/include/c++/3.3.1/bits/stl_vector.h ****        *  @brief  Assigns a given value to a %vector.
 312:h:/6261A/11CW1352MP_BIRD61A_11C_V33_GPRS_MMI/Tools/MinGW/include/c++/3.3.1/bits/stl_vector.h ****        *  @param  n  Number of elements to be assigned.
 313:h:/6261A/11CW1352MP_BIRD61A_11C_V33_GPRS_MMI/Tools/MinGW/include/c++/3.3.1/bits/stl_vector.h ****        *  @param  val  Value to be assigned.
 314:h:/6261A/11CW1352MP_BIRD61A_11C_V33_GPRS_MMI/Tools/MinGW/include/c++/3.3.1/bits/stl_vector.h ****        *
 315:h:/6261A/11CW1352MP_BIRD61A_11C_V33_GPRS_MMI/Tools/MinGW/include/c++/3.3.1/bits/stl_vector.h ****        *  This function fills a %vector with @a n copies of the given
 316:h:/6261A/11CW1352MP_BIRD61A_11C_V33_GPRS_MMI/Tools/MinGW/include/c++/3.3.1/bits/stl_vector.h ****        *  value.  Note that the assignment completely changes the
 317:h:/6261A/11CW1352MP_BIRD61A_11C_V33_GPRS_MMI/Tools/MinGW/include/c++/3.3.1/bits/stl_vector.h ****        *  %vector and that the resulting %vector's size is the same as
 318:h:/6261A/11CW1352MP_BIRD61A_11C_V33_GPRS_MMI/Tools/MinGW/include/c++/3.3.1/bits/stl_vector.h ****        *  the number of elements assigned.  Old data may be lost.
 319:h:/6261A/11CW1352MP_BIRD61A_11C_V33_GPRS_MMI/Tools/MinGW/include/c++/3.3.1/bits/stl_vector.h ****        */
 320:h:/6261A/11CW1352MP_BIRD61A_11C_V33_GPRS_MMI/Tools/MinGW/include/c++/3.3.1/bits/stl_vector.h ****       void
 321:h:/6261A/11CW1352MP_BIRD61A_11C_V33_GPRS_MMI/Tools/MinGW/include/c++/3.3.1/bits/stl_vector.h ****       assign(size_type __n, const value_type& __val) 
 322:h:/6261A/11CW1352MP_BIRD61A_11C_V33_GPRS_MMI/Tools/MinGW/include/c++/3.3.1/bits/stl_vector.h ****       { _M_fill_assign(__n, __val); }
 323:h:/6261A/11CW1352MP_BIRD61A_11C_V33_GPRS_MMI/Tools/MinGW/include/c++/3.3.1/bits/stl_vector.h ****   
 324:h:/6261A/11CW1352MP_BIRD61A_11C_V33_GPRS_MMI/Tools/MinGW/include/c++/3.3.1/bits/stl_vector.h ****       /**
 325:h:/6261A/11CW1352MP_BIRD61A_11C_V33_GPRS_MMI/Tools/MinGW/include/c++/3.3.1/bits/stl_vector.h ****        *  @brief  Assigns a range to a %vector.
 326:h:/6261A/11CW1352MP_BIRD61A_11C_V33_GPRS_MMI/Tools/MinGW/include/c++/3.3.1/bits/stl_vector.h ****        *  @param  first  An input iterator.
 327:h:/6261A/11CW1352MP_BIRD61A_11C_V33_GPRS_MMI/Tools/MinGW/include/c++/3.3.1/bits/stl_vector.h ****        *  @param  last   An input iterator.
 328:h:/6261A/11CW1352MP_BIRD61A_11C_V33_GPRS_MMI/Tools/MinGW/include/c++/3.3.1/bits/stl_vector.h ****        *
 329:h:/6261A/11CW1352MP_BIRD61A_11C_V33_GPRS_MMI/Tools/MinGW/include/c++/3.3.1/bits/stl_vector.h ****        *  This function fills a %vector with copies of the elements in the
 330:h:/6261A/11CW1352MP_BIRD61A_11C_V33_GPRS_MMI/Tools/MinGW/include/c++/3.3.1/bits/stl_vector.h ****        *  range [first,last).
 331:h:/6261A/11CW1352MP_BIRD61A_11C_V33_GPRS_MMI/Tools/MinGW/include/c++/3.3.1/bits/stl_vector.h ****        *
 332:h:/6261A/11CW1352MP_BIRD61A_11C_V33_GPRS_MMI/Tools/MinGW/include/c++/3.3.1/bits/stl_vector.h ****        *  Note that the assignment completely changes the %vector and
 333:h:/6261A/11CW1352MP_BIRD61A_11C_V33_GPRS_MMI/Tools/MinGW/include/c++/3.3.1/bits/stl_vector.h ****        *  that the resulting %vector's size is the same as the number
 334:h:/6261A/11CW1352MP_BIRD61A_11C_V33_GPRS_MMI/Tools/MinGW/include/c++/3.3.1/bits/stl_vector.h ****        *  of elements assigned.  Old data may be lost.
 335:h:/6261A/11CW1352MP_BIRD61A_11C_V33_GPRS_MMI/Tools/MinGW/include/c++/3.3.1/bits/stl_vector.h ****        */
 336:h:/6261A/11CW1352MP_BIRD61A_11C_V33_GPRS_MMI/Tools/MinGW/include/c++/3.3.1/bits/stl_vector.h ****       template<typename _InputIterator>
 337:h:/6261A/11CW1352MP_BIRD61A_11C_V33_GPRS_MMI/Tools/MinGW/include/c++/3.3.1/bits/stl_vector.h ****         void
 338:h:/6261A/11CW1352MP_BIRD61A_11C_V33_GPRS_MMI/Tools/MinGW/include/c++/3.3.1/bits/stl_vector.h ****         assign(_InputIterator __first, _InputIterator __last)
 339:h:/6261A/11CW1352MP_BIRD61A_11C_V33_GPRS_MMI/Tools/MinGW/include/c++/3.3.1/bits/stl_vector.h ****         {
 340:h:/6261A/11CW1352MP_BIRD61A_11C_V33_GPRS_MMI/Tools/MinGW/include/c++/3.3.1/bits/stl_vector.h **** 	  // Check whether it's an integral type.  If so, it's not an iterator.
 341:h:/6261A/11CW1352MP_BIRD61A_11C_V33_GPRS_MMI/Tools/MinGW/include/c++/3.3.1/bits/stl_vector.h **** 	  typedef typename _Is_integer<_InputIterator>::_Integral _Integral;
 342:h:/6261A/11CW1352MP_BIRD61A_11C_V33_GPRS_MMI/Tools/MinGW/include/c++/3.3.1/bits/stl_vector.h **** 	  _M_assign_dispatch(__first, __last, _Integral());
GAS LISTING h:/6261A/11CW1352MP_BIRD61A_11C_V33_GPRS_MMI/plutommi/Customer/ResGenerator/gcctmp/ccEHcaaa.s 			page 71


 343:h:/6261A/11CW1352MP_BIRD61A_11C_V33_GPRS_MMI/Tools/MinGW/include/c++/3.3.1/bits/stl_vector.h **** 	}
 344:h:/6261A/11CW1352MP_BIRD61A_11C_V33_GPRS_MMI/Tools/MinGW/include/c++/3.3.1/bits/stl_vector.h ****   
 345:h:/6261A/11CW1352MP_BIRD61A_11C_V33_GPRS_MMI/Tools/MinGW/include/c++/3.3.1/bits/stl_vector.h ****       /// Get a copy of the memory allocation object.
 346:h:/6261A/11CW1352MP_BIRD61A_11C_V33_GPRS_MMI/Tools/MinGW/include/c++/3.3.1/bits/stl_vector.h ****       allocator_type
 347:h:/6261A/11CW1352MP_BIRD61A_11C_V33_GPRS_MMI/Tools/MinGW/include/c++/3.3.1/bits/stl_vector.h ****       get_allocator() const { return _Base::get_allocator(); }
 348:h:/6261A/11CW1352MP_BIRD61A_11C_V33_GPRS_MMI/Tools/MinGW/include/c++/3.3.1/bits/stl_vector.h ****       
 349:h:/6261A/11CW1352MP_BIRD61A_11C_V33_GPRS_MMI/Tools/MinGW/include/c++/3.3.1/bits/stl_vector.h ****       // iterators
 350:h:/6261A/11CW1352MP_BIRD61A_11C_V33_GPRS_MMI/Tools/MinGW/include/c++/3.3.1/bits/stl_vector.h ****       /**
 351:h:/6261A/11CW1352MP_BIRD61A_11C_V33_GPRS_MMI/Tools/MinGW/include/c++/3.3.1/bits/stl_vector.h ****        *  Returns a read/write iterator that points to the first element in the
 352:h:/6261A/11CW1352MP_BIRD61A_11C_V33_GPRS_MMI/Tools/MinGW/include/c++/3.3.1/bits/stl_vector.h ****        *  %vector.  Iteration is done in ordinary element order.
 353:h:/6261A/11CW1352MP_BIRD61A_11C_V33_GPRS_MMI/Tools/MinGW/include/c++/3.3.1/bits/stl_vector.h ****        */
 354:h:/6261A/11CW1352MP_BIRD61A_11C_V33_GPRS_MMI/Tools/MinGW/include/c++/3.3.1/bits/stl_vector.h ****       iterator
 355:h:/6261A/11CW1352MP_BIRD61A_11C_V33_GPRS_MMI/Tools/MinGW/include/c++/3.3.1/bits/stl_vector.h ****       begin() { return iterator (_M_start); }
 356:h:/6261A/11CW1352MP_BIRD61A_11C_V33_GPRS_MMI/Tools/MinGW/include/c++/3.3.1/bits/stl_vector.h ****       
 357:h:/6261A/11CW1352MP_BIRD61A_11C_V33_GPRS_MMI/Tools/MinGW/include/c++/3.3.1/bits/stl_vector.h ****       /**
 358:h:/6261A/11CW1352MP_BIRD61A_11C_V33_GPRS_MMI/Tools/MinGW/include/c++/3.3.1/bits/stl_vector.h ****        *  Returns a read-only (constant) iterator that points to the
 359:h:/6261A/11CW1352MP_BIRD61A_11C_V33_GPRS_MMI/Tools/MinGW/include/c++/3.3.1/bits/stl_vector.h ****        *  first element in the %vector.  Iteration is done in ordinary
 360:h:/6261A/11CW1352MP_BIRD61A_11C_V33_GPRS_MMI/Tools/MinGW/include/c++/3.3.1/bits/stl_vector.h ****        *  element order.
 361:h:/6261A/11CW1352MP_BIRD61A_11C_V33_GPRS_MMI/Tools/MinGW/include/c++/3.3.1/bits/stl_vector.h ****        */
 362:h:/6261A/11CW1352MP_BIRD61A_11C_V33_GPRS_MMI/Tools/MinGW/include/c++/3.3.1/bits/stl_vector.h ****       const_iterator
 363:h:/6261A/11CW1352MP_BIRD61A_11C_V33_GPRS_MMI/Tools/MinGW/include/c++/3.3.1/bits/stl_vector.h ****       begin() const { return const_iterator (_M_start); }
 364:h:/6261A/11CW1352MP_BIRD61A_11C_V33_GPRS_MMI/Tools/MinGW/include/c++/3.3.1/bits/stl_vector.h ****       
 365:h:/6261A/11CW1352MP_BIRD61A_11C_V33_GPRS_MMI/Tools/MinGW/include/c++/3.3.1/bits/stl_vector.h ****       /**
 366:h:/6261A/11CW1352MP_BIRD61A_11C_V33_GPRS_MMI/Tools/MinGW/include/c++/3.3.1/bits/stl_vector.h ****        *  Returns a read/write iterator that points one past the last
 367:h:/6261A/11CW1352MP_BIRD61A_11C_V33_GPRS_MMI/Tools/MinGW/include/c++/3.3.1/bits/stl_vector.h ****        *  element in the %vector.  Iteration is done in ordinary
 368:h:/6261A/11CW1352MP_BIRD61A_11C_V33_GPRS_MMI/Tools/MinGW/include/c++/3.3.1/bits/stl_vector.h ****        *  element order.
 369:h:/6261A/11CW1352MP_BIRD61A_11C_V33_GPRS_MMI/Tools/MinGW/include/c++/3.3.1/bits/stl_vector.h ****        */
 370:h:/6261A/11CW1352MP_BIRD61A_11C_V33_GPRS_MMI/Tools/MinGW/include/c++/3.3.1/bits/stl_vector.h ****       iterator
 371:h:/6261A/11CW1352MP_BIRD61A_11C_V33_GPRS_MMI/Tools/MinGW/include/c++/3.3.1/bits/stl_vector.h ****       end() { return iterator (_M_finish); }
 6329              	LM170:
 6330 0000 55       		pushl	%ebp
 6331 0001 89E5     		movl	%esp, %ebp
 6332 0003 83EC18   		subl	$24, %esp
 6334              	LM171:
 6335 0006 8B4508   		movl	8(%ebp), %eax
 6336              	LBB35:
 6337 0009 83C004   		addl	$4, %eax
 6338 000c 89442404 		movl	%eax, 4(%esp)
 6339 0010 8D45FC   		leal	-4(%ebp), %eax
 6340 0013 890424   		movl	%eax, (%esp)
 6341 0016 E8000000 		call	__ZN9__gnu_cxx17__normal_iteratorIPN10ThreadPool10ThreadDataESt6vectorIS2_SaIS2_EEEC1ERKS3_
 6341      00
 6342 001b 8B45FC   		movl	-4(%ebp), %eax
 6343 001e C9       		leave
 6344 001f C3       		ret
 6345              	LBE35:
 6346              	Lscope18:
 6354              		.section	.text$_ZNSt6vectorIN10ThreadPool10ThreadDataESaIS1_EE9push_backERKS1_,"x"
 6355              		.linkonce discard
 6356              		.align 2
 6360              	.globl __ZNSt6vectorIN10ThreadPool10ThreadDataESaIS1_EE9push_backERKS1_
 6362              	__ZNSt6vectorIN10ThreadPool10ThreadDataESaIS1_EE9push_backERKS1_:
 372:h:/6261A/11CW1352MP_BIRD61A_11C_V33_GPRS_MMI/Tools/MinGW/include/c++/3.3.1/bits/stl_vector.h ****       
 373:h:/6261A/11CW1352MP_BIRD61A_11C_V33_GPRS_MMI/Tools/MinGW/include/c++/3.3.1/bits/stl_vector.h ****       /**
 374:h:/6261A/11CW1352MP_BIRD61A_11C_V33_GPRS_MMI/Tools/MinGW/include/c++/3.3.1/bits/stl_vector.h ****        *  Returns a read-only (constant) iterator that points one past the last
 375:h:/6261A/11CW1352MP_BIRD61A_11C_V33_GPRS_MMI/Tools/MinGW/include/c++/3.3.1/bits/stl_vector.h ****        *  element in the %vector.  Iteration is done in ordinary element order.
 376:h:/6261A/11CW1352MP_BIRD61A_11C_V33_GPRS_MMI/Tools/MinGW/include/c++/3.3.1/bits/stl_vector.h ****        */
GAS LISTING h:/6261A/11CW1352MP_BIRD61A_11C_V33_GPRS_MMI/plutommi/Customer/ResGenerator/gcctmp/ccEHcaaa.s 			page 72


 377:h:/6261A/11CW1352MP_BIRD61A_11C_V33_GPRS_MMI/Tools/MinGW/include/c++/3.3.1/bits/stl_vector.h ****       const_iterator
 378:h:/6261A/11CW1352MP_BIRD61A_11C_V33_GPRS_MMI/Tools/MinGW/include/c++/3.3.1/bits/stl_vector.h ****       end() const { return const_iterator (_M_finish); }
 379:h:/6261A/11CW1352MP_BIRD61A_11C_V33_GPRS_MMI/Tools/MinGW/include/c++/3.3.1/bits/stl_vector.h ****       
 380:h:/6261A/11CW1352MP_BIRD61A_11C_V33_GPRS_MMI/Tools/MinGW/include/c++/3.3.1/bits/stl_vector.h ****       /**
 381:h:/6261A/11CW1352MP_BIRD61A_11C_V33_GPRS_MMI/Tools/MinGW/include/c++/3.3.1/bits/stl_vector.h ****        *  Returns a read/write reverse iterator that points to the
 382:h:/6261A/11CW1352MP_BIRD61A_11C_V33_GPRS_MMI/Tools/MinGW/include/c++/3.3.1/bits/stl_vector.h ****        *  last element in the %vector.  Iteration is done in reverse
 383:h:/6261A/11CW1352MP_BIRD61A_11C_V33_GPRS_MMI/Tools/MinGW/include/c++/3.3.1/bits/stl_vector.h ****        *  element order.
 384:h:/6261A/11CW1352MP_BIRD61A_11C_V33_GPRS_MMI/Tools/MinGW/include/c++/3.3.1/bits/stl_vector.h ****        */
 385:h:/6261A/11CW1352MP_BIRD61A_11C_V33_GPRS_MMI/Tools/MinGW/include/c++/3.3.1/bits/stl_vector.h ****       reverse_iterator
 386:h:/6261A/11CW1352MP_BIRD61A_11C_V33_GPRS_MMI/Tools/MinGW/include/c++/3.3.1/bits/stl_vector.h ****       rbegin() { return reverse_iterator(end()); }
 387:h:/6261A/11CW1352MP_BIRD61A_11C_V33_GPRS_MMI/Tools/MinGW/include/c++/3.3.1/bits/stl_vector.h ****       
 388:h:/6261A/11CW1352MP_BIRD61A_11C_V33_GPRS_MMI/Tools/MinGW/include/c++/3.3.1/bits/stl_vector.h ****       /**
 389:h:/6261A/11CW1352MP_BIRD61A_11C_V33_GPRS_MMI/Tools/MinGW/include/c++/3.3.1/bits/stl_vector.h ****        *  Returns a read-only (constant) reverse iterator that points
 390:h:/6261A/11CW1352MP_BIRD61A_11C_V33_GPRS_MMI/Tools/MinGW/include/c++/3.3.1/bits/stl_vector.h ****        *  to the last element in the %vector.  Iteration is done in
 391:h:/6261A/11CW1352MP_BIRD61A_11C_V33_GPRS_MMI/Tools/MinGW/include/c++/3.3.1/bits/stl_vector.h ****        *  reverse element order.
 392:h:/6261A/11CW1352MP_BIRD61A_11C_V33_GPRS_MMI/Tools/MinGW/include/c++/3.3.1/bits/stl_vector.h ****        */
 393:h:/6261A/11CW1352MP_BIRD61A_11C_V33_GPRS_MMI/Tools/MinGW/include/c++/3.3.1/bits/stl_vector.h ****       const_reverse_iterator
 394:h:/6261A/11CW1352MP_BIRD61A_11C_V33_GPRS_MMI/Tools/MinGW/include/c++/3.3.1/bits/stl_vector.h ****       rbegin() const { return const_reverse_iterator(end()); }
 395:h:/6261A/11CW1352MP_BIRD61A_11C_V33_GPRS_MMI/Tools/MinGW/include/c++/3.3.1/bits/stl_vector.h ****       
 396:h:/6261A/11CW1352MP_BIRD61A_11C_V33_GPRS_MMI/Tools/MinGW/include/c++/3.3.1/bits/stl_vector.h ****       /**
 397:h:/6261A/11CW1352MP_BIRD61A_11C_V33_GPRS_MMI/Tools/MinGW/include/c++/3.3.1/bits/stl_vector.h ****        *  Returns a read/write reverse iterator that points to one before the
 398:h:/6261A/11CW1352MP_BIRD61A_11C_V33_GPRS_MMI/Tools/MinGW/include/c++/3.3.1/bits/stl_vector.h ****        *  first element in the %vector.  Iteration is done in reverse element
 399:h:/6261A/11CW1352MP_BIRD61A_11C_V33_GPRS_MMI/Tools/MinGW/include/c++/3.3.1/bits/stl_vector.h ****        *  order.
 400:h:/6261A/11CW1352MP_BIRD61A_11C_V33_GPRS_MMI/Tools/MinGW/include/c++/3.3.1/bits/stl_vector.h ****        */
 401:h:/6261A/11CW1352MP_BIRD61A_11C_V33_GPRS_MMI/Tools/MinGW/include/c++/3.3.1/bits/stl_vector.h ****       reverse_iterator
 402:h:/6261A/11CW1352MP_BIRD61A_11C_V33_GPRS_MMI/Tools/MinGW/include/c++/3.3.1/bits/stl_vector.h ****       rend() { return reverse_iterator(begin()); }
 403:h:/6261A/11CW1352MP_BIRD61A_11C_V33_GPRS_MMI/Tools/MinGW/include/c++/3.3.1/bits/stl_vector.h ****       
 404:h:/6261A/11CW1352MP_BIRD61A_11C_V33_GPRS_MMI/Tools/MinGW/include/c++/3.3.1/bits/stl_vector.h ****       /**
 405:h:/6261A/11CW1352MP_BIRD61A_11C_V33_GPRS_MMI/Tools/MinGW/include/c++/3.3.1/bits/stl_vector.h ****        *  Returns a read-only (constant) reverse iterator that points
 406:h:/6261A/11CW1352MP_BIRD61A_11C_V33_GPRS_MMI/Tools/MinGW/include/c++/3.3.1/bits/stl_vector.h ****        *  to one before the first element in the %vector.  Iteration
 407:h:/6261A/11CW1352MP_BIRD61A_11C_V33_GPRS_MMI/Tools/MinGW/include/c++/3.3.1/bits/stl_vector.h ****        *  is done in reverse element order.
 408:h:/6261A/11CW1352MP_BIRD61A_11C_V33_GPRS_MMI/Tools/MinGW/include/c++/3.3.1/bits/stl_vector.h ****        */
 409:h:/6261A/11CW1352MP_BIRD61A_11C_V33_GPRS_MMI/Tools/MinGW/include/c++/3.3.1/bits/stl_vector.h ****       const_reverse_iterator
 410:h:/6261A/11CW1352MP_BIRD61A_11C_V33_GPRS_MMI/Tools/MinGW/include/c++/3.3.1/bits/stl_vector.h ****       rend() const { return const_reverse_iterator(begin()); }
 411:h:/6261A/11CW1352MP_BIRD61A_11C_V33_GPRS_MMI/Tools/MinGW/include/c++/3.3.1/bits/stl_vector.h ****   
 412:h:/6261A/11CW1352MP_BIRD61A_11C_V33_GPRS_MMI/Tools/MinGW/include/c++/3.3.1/bits/stl_vector.h ****       // [23.2.4.2] capacity
 413:h:/6261A/11CW1352MP_BIRD61A_11C_V33_GPRS_MMI/Tools/MinGW/include/c++/3.3.1/bits/stl_vector.h ****       /**  Returns the number of elements in the %vector.  */
 414:h:/6261A/11CW1352MP_BIRD61A_11C_V33_GPRS_MMI/Tools/MinGW/include/c++/3.3.1/bits/stl_vector.h ****       size_type
 415:h:/6261A/11CW1352MP_BIRD61A_11C_V33_GPRS_MMI/Tools/MinGW/include/c++/3.3.1/bits/stl_vector.h ****       size() const { return size_type(end() - begin()); }
 416:h:/6261A/11CW1352MP_BIRD61A_11C_V33_GPRS_MMI/Tools/MinGW/include/c++/3.3.1/bits/stl_vector.h ****       
 417:h:/6261A/11CW1352MP_BIRD61A_11C_V33_GPRS_MMI/Tools/MinGW/include/c++/3.3.1/bits/stl_vector.h ****       /**  Returns the size() of the largest possible %vector.  */
 418:h:/6261A/11CW1352MP_BIRD61A_11C_V33_GPRS_MMI/Tools/MinGW/include/c++/3.3.1/bits/stl_vector.h ****       size_type
 419:h:/6261A/11CW1352MP_BIRD61A_11C_V33_GPRS_MMI/Tools/MinGW/include/c++/3.3.1/bits/stl_vector.h ****       max_size() const { return size_type(-1) / sizeof(value_type); }
 420:h:/6261A/11CW1352MP_BIRD61A_11C_V33_GPRS_MMI/Tools/MinGW/include/c++/3.3.1/bits/stl_vector.h ****       
 421:h:/6261A/11CW1352MP_BIRD61A_11C_V33_GPRS_MMI/Tools/MinGW/include/c++/3.3.1/bits/stl_vector.h ****       /**
 422:h:/6261A/11CW1352MP_BIRD61A_11C_V33_GPRS_MMI/Tools/MinGW/include/c++/3.3.1/bits/stl_vector.h ****        *  @brief  Resizes the %vector to the specified number of elements.
 423:h:/6261A/11CW1352MP_BIRD61A_11C_V33_GPRS_MMI/Tools/MinGW/include/c++/3.3.1/bits/stl_vector.h ****        *  @param  new_size  Number of elements the %vector should contain.
 424:h:/6261A/11CW1352MP_BIRD61A_11C_V33_GPRS_MMI/Tools/MinGW/include/c++/3.3.1/bits/stl_vector.h ****        *  @param  x  Data with which new elements should be populated.
 425:h:/6261A/11CW1352MP_BIRD61A_11C_V33_GPRS_MMI/Tools/MinGW/include/c++/3.3.1/bits/stl_vector.h ****        *
 426:h:/6261A/11CW1352MP_BIRD61A_11C_V33_GPRS_MMI/Tools/MinGW/include/c++/3.3.1/bits/stl_vector.h ****        *  This function will %resize the %vector to the specified
 427:h:/6261A/11CW1352MP_BIRD61A_11C_V33_GPRS_MMI/Tools/MinGW/include/c++/3.3.1/bits/stl_vector.h ****        *  number of elements.  If the number is smaller than the
 428:h:/6261A/11CW1352MP_BIRD61A_11C_V33_GPRS_MMI/Tools/MinGW/include/c++/3.3.1/bits/stl_vector.h ****        *  %vector's current size the %vector is truncated, otherwise
 429:h:/6261A/11CW1352MP_BIRD61A_11C_V33_GPRS_MMI/Tools/MinGW/include/c++/3.3.1/bits/stl_vector.h ****        *  the %vector is extended and new elements are populated with
 430:h:/6261A/11CW1352MP_BIRD61A_11C_V33_GPRS_MMI/Tools/MinGW/include/c++/3.3.1/bits/stl_vector.h ****        *  given data.
 431:h:/6261A/11CW1352MP_BIRD61A_11C_V33_GPRS_MMI/Tools/MinGW/include/c++/3.3.1/bits/stl_vector.h ****        */
 432:h:/6261A/11CW1352MP_BIRD61A_11C_V33_GPRS_MMI/Tools/MinGW/include/c++/3.3.1/bits/stl_vector.h ****       void
 433:h:/6261A/11CW1352MP_BIRD61A_11C_V33_GPRS_MMI/Tools/MinGW/include/c++/3.3.1/bits/stl_vector.h ****       resize(size_type __new_size, const value_type& __x)
GAS LISTING h:/6261A/11CW1352MP_BIRD61A_11C_V33_GPRS_MMI/plutommi/Customer/ResGenerator/gcctmp/ccEHcaaa.s 			page 73


 434:h:/6261A/11CW1352MP_BIRD61A_11C_V33_GPRS_MMI/Tools/MinGW/include/c++/3.3.1/bits/stl_vector.h ****       {
 435:h:/6261A/11CW1352MP_BIRD61A_11C_V33_GPRS_MMI/Tools/MinGW/include/c++/3.3.1/bits/stl_vector.h **** 	if (__new_size < size())
 436:h:/6261A/11CW1352MP_BIRD61A_11C_V33_GPRS_MMI/Tools/MinGW/include/c++/3.3.1/bits/stl_vector.h **** 	  erase(begin() + __new_size, end());
 437:h:/6261A/11CW1352MP_BIRD61A_11C_V33_GPRS_MMI/Tools/MinGW/include/c++/3.3.1/bits/stl_vector.h **** 	else
 438:h:/6261A/11CW1352MP_BIRD61A_11C_V33_GPRS_MMI/Tools/MinGW/include/c++/3.3.1/bits/stl_vector.h **** 	  insert(end(), __new_size - size(), __x);
 439:h:/6261A/11CW1352MP_BIRD61A_11C_V33_GPRS_MMI/Tools/MinGW/include/c++/3.3.1/bits/stl_vector.h ****       }
 440:h:/6261A/11CW1352MP_BIRD61A_11C_V33_GPRS_MMI/Tools/MinGW/include/c++/3.3.1/bits/stl_vector.h ****       
 441:h:/6261A/11CW1352MP_BIRD61A_11C_V33_GPRS_MMI/Tools/MinGW/include/c++/3.3.1/bits/stl_vector.h ****       /**
 442:h:/6261A/11CW1352MP_BIRD61A_11C_V33_GPRS_MMI/Tools/MinGW/include/c++/3.3.1/bits/stl_vector.h ****        *  @brief  Resizes the %vector to the specified number of elements.
 443:h:/6261A/11CW1352MP_BIRD61A_11C_V33_GPRS_MMI/Tools/MinGW/include/c++/3.3.1/bits/stl_vector.h ****        *  @param  new_size  Number of elements the %vector should contain.
 444:h:/6261A/11CW1352MP_BIRD61A_11C_V33_GPRS_MMI/Tools/MinGW/include/c++/3.3.1/bits/stl_vector.h ****        *
 445:h:/6261A/11CW1352MP_BIRD61A_11C_V33_GPRS_MMI/Tools/MinGW/include/c++/3.3.1/bits/stl_vector.h ****        *  This function will resize the %vector to the specified
 446:h:/6261A/11CW1352MP_BIRD61A_11C_V33_GPRS_MMI/Tools/MinGW/include/c++/3.3.1/bits/stl_vector.h ****        *  number of elements.  If the number is smaller than the
 447:h:/6261A/11CW1352MP_BIRD61A_11C_V33_GPRS_MMI/Tools/MinGW/include/c++/3.3.1/bits/stl_vector.h ****        *  %vector's current size the %vector is truncated, otherwise
 448:h:/6261A/11CW1352MP_BIRD61A_11C_V33_GPRS_MMI/Tools/MinGW/include/c++/3.3.1/bits/stl_vector.h ****        *  the %vector is extended and new elements are
 449:h:/6261A/11CW1352MP_BIRD61A_11C_V33_GPRS_MMI/Tools/MinGW/include/c++/3.3.1/bits/stl_vector.h ****        *  default-constructed.
 450:h:/6261A/11CW1352MP_BIRD61A_11C_V33_GPRS_MMI/Tools/MinGW/include/c++/3.3.1/bits/stl_vector.h ****        */
 451:h:/6261A/11CW1352MP_BIRD61A_11C_V33_GPRS_MMI/Tools/MinGW/include/c++/3.3.1/bits/stl_vector.h ****       void
 452:h:/6261A/11CW1352MP_BIRD61A_11C_V33_GPRS_MMI/Tools/MinGW/include/c++/3.3.1/bits/stl_vector.h ****       resize(size_type __new_size) { resize(__new_size, value_type()); }
 453:h:/6261A/11CW1352MP_BIRD61A_11C_V33_GPRS_MMI/Tools/MinGW/include/c++/3.3.1/bits/stl_vector.h ****       
 454:h:/6261A/11CW1352MP_BIRD61A_11C_V33_GPRS_MMI/Tools/MinGW/include/c++/3.3.1/bits/stl_vector.h ****       /**
 455:h:/6261A/11CW1352MP_BIRD61A_11C_V33_GPRS_MMI/Tools/MinGW/include/c++/3.3.1/bits/stl_vector.h ****        *  Returns the total number of elements that the %vector can hold before
 456:h:/6261A/11CW1352MP_BIRD61A_11C_V33_GPRS_MMI/Tools/MinGW/include/c++/3.3.1/bits/stl_vector.h ****        *  needing to allocate more memory.
 457:h:/6261A/11CW1352MP_BIRD61A_11C_V33_GPRS_MMI/Tools/MinGW/include/c++/3.3.1/bits/stl_vector.h ****        */
 458:h:/6261A/11CW1352MP_BIRD61A_11C_V33_GPRS_MMI/Tools/MinGW/include/c++/3.3.1/bits/stl_vector.h ****       size_type
 459:h:/6261A/11CW1352MP_BIRD61A_11C_V33_GPRS_MMI/Tools/MinGW/include/c++/3.3.1/bits/stl_vector.h ****       capacity() const
 460:h:/6261A/11CW1352MP_BIRD61A_11C_V33_GPRS_MMI/Tools/MinGW/include/c++/3.3.1/bits/stl_vector.h ****       { return size_type(const_iterator(_M_end_of_storage) - begin()); }
 461:h:/6261A/11CW1352MP_BIRD61A_11C_V33_GPRS_MMI/Tools/MinGW/include/c++/3.3.1/bits/stl_vector.h ****       
 462:h:/6261A/11CW1352MP_BIRD61A_11C_V33_GPRS_MMI/Tools/MinGW/include/c++/3.3.1/bits/stl_vector.h ****       /**
 463:h:/6261A/11CW1352MP_BIRD61A_11C_V33_GPRS_MMI/Tools/MinGW/include/c++/3.3.1/bits/stl_vector.h ****        *  Returns true if the %vector is empty.  (Thus begin() would
 464:h:/6261A/11CW1352MP_BIRD61A_11C_V33_GPRS_MMI/Tools/MinGW/include/c++/3.3.1/bits/stl_vector.h ****        *  equal end().)
 465:h:/6261A/11CW1352MP_BIRD61A_11C_V33_GPRS_MMI/Tools/MinGW/include/c++/3.3.1/bits/stl_vector.h ****        */
 466:h:/6261A/11CW1352MP_BIRD61A_11C_V33_GPRS_MMI/Tools/MinGW/include/c++/3.3.1/bits/stl_vector.h ****       bool
 467:h:/6261A/11CW1352MP_BIRD61A_11C_V33_GPRS_MMI/Tools/MinGW/include/c++/3.3.1/bits/stl_vector.h ****       empty() const { return begin() == end(); }
 468:h:/6261A/11CW1352MP_BIRD61A_11C_V33_GPRS_MMI/Tools/MinGW/include/c++/3.3.1/bits/stl_vector.h ****       
 469:h:/6261A/11CW1352MP_BIRD61A_11C_V33_GPRS_MMI/Tools/MinGW/include/c++/3.3.1/bits/stl_vector.h ****       /**
 470:h:/6261A/11CW1352MP_BIRD61A_11C_V33_GPRS_MMI/Tools/MinGW/include/c++/3.3.1/bits/stl_vector.h ****        *  @brief  Attempt to preallocate enough memory for specified number of
 471:h:/6261A/11CW1352MP_BIRD61A_11C_V33_GPRS_MMI/Tools/MinGW/include/c++/3.3.1/bits/stl_vector.h ****        *          elements.
 472:h:/6261A/11CW1352MP_BIRD61A_11C_V33_GPRS_MMI/Tools/MinGW/include/c++/3.3.1/bits/stl_vector.h ****        *  @param  n  Number of elements required.
 473:h:/6261A/11CW1352MP_BIRD61A_11C_V33_GPRS_MMI/Tools/MinGW/include/c++/3.3.1/bits/stl_vector.h ****        *  @throw  std::length_error  If @a n exceeds @c max_size().
 474:h:/6261A/11CW1352MP_BIRD61A_11C_V33_GPRS_MMI/Tools/MinGW/include/c++/3.3.1/bits/stl_vector.h ****        *
 475:h:/6261A/11CW1352MP_BIRD61A_11C_V33_GPRS_MMI/Tools/MinGW/include/c++/3.3.1/bits/stl_vector.h ****        *  This function attempts to reserve enough memory for the
 476:h:/6261A/11CW1352MP_BIRD61A_11C_V33_GPRS_MMI/Tools/MinGW/include/c++/3.3.1/bits/stl_vector.h ****        *  %vector to hold the specified number of elements.  If the
 477:h:/6261A/11CW1352MP_BIRD61A_11C_V33_GPRS_MMI/Tools/MinGW/include/c++/3.3.1/bits/stl_vector.h ****        *  number requested is more than max_size(), length_error is
 478:h:/6261A/11CW1352MP_BIRD61A_11C_V33_GPRS_MMI/Tools/MinGW/include/c++/3.3.1/bits/stl_vector.h ****        *  thrown.
 479:h:/6261A/11CW1352MP_BIRD61A_11C_V33_GPRS_MMI/Tools/MinGW/include/c++/3.3.1/bits/stl_vector.h ****        *
 480:h:/6261A/11CW1352MP_BIRD61A_11C_V33_GPRS_MMI/Tools/MinGW/include/c++/3.3.1/bits/stl_vector.h ****        *  The advantage of this function is that if optimal code is a
 481:h:/6261A/11CW1352MP_BIRD61A_11C_V33_GPRS_MMI/Tools/MinGW/include/c++/3.3.1/bits/stl_vector.h ****        *  necessity and the user can determine the number of elements
 482:h:/6261A/11CW1352MP_BIRD61A_11C_V33_GPRS_MMI/Tools/MinGW/include/c++/3.3.1/bits/stl_vector.h ****        *  that will be required, the user can reserve the memory in
 483:h:/6261A/11CW1352MP_BIRD61A_11C_V33_GPRS_MMI/Tools/MinGW/include/c++/3.3.1/bits/stl_vector.h ****        *  %advance, and thus prevent a possible reallocation of memory
 484:h:/6261A/11CW1352MP_BIRD61A_11C_V33_GPRS_MMI/Tools/MinGW/include/c++/3.3.1/bits/stl_vector.h ****        *  and copying of %vector data.
 485:h:/6261A/11CW1352MP_BIRD61A_11C_V33_GPRS_MMI/Tools/MinGW/include/c++/3.3.1/bits/stl_vector.h ****        */
 486:h:/6261A/11CW1352MP_BIRD61A_11C_V33_GPRS_MMI/Tools/MinGW/include/c++/3.3.1/bits/stl_vector.h ****       void
 487:h:/6261A/11CW1352MP_BIRD61A_11C_V33_GPRS_MMI/Tools/MinGW/include/c++/3.3.1/bits/stl_vector.h ****       reserve(size_type __n);
 488:h:/6261A/11CW1352MP_BIRD61A_11C_V33_GPRS_MMI/Tools/MinGW/include/c++/3.3.1/bits/stl_vector.h ****       
 489:h:/6261A/11CW1352MP_BIRD61A_11C_V33_GPRS_MMI/Tools/MinGW/include/c++/3.3.1/bits/stl_vector.h ****       // element access
 490:h:/6261A/11CW1352MP_BIRD61A_11C_V33_GPRS_MMI/Tools/MinGW/include/c++/3.3.1/bits/stl_vector.h ****       /**
GAS LISTING h:/6261A/11CW1352MP_BIRD61A_11C_V33_GPRS_MMI/plutommi/Customer/ResGenerator/gcctmp/ccEHcaaa.s 			page 74


 491:h:/6261A/11CW1352MP_BIRD61A_11C_V33_GPRS_MMI/Tools/MinGW/include/c++/3.3.1/bits/stl_vector.h ****        *  @brief  Subscript access to the data contained in the %vector.
 492:h:/6261A/11CW1352MP_BIRD61A_11C_V33_GPRS_MMI/Tools/MinGW/include/c++/3.3.1/bits/stl_vector.h ****        *  @param  n  The index of the element for which data should be accessed.
 493:h:/6261A/11CW1352MP_BIRD61A_11C_V33_GPRS_MMI/Tools/MinGW/include/c++/3.3.1/bits/stl_vector.h ****        *  @return  Read/write reference to data.
 494:h:/6261A/11CW1352MP_BIRD61A_11C_V33_GPRS_MMI/Tools/MinGW/include/c++/3.3.1/bits/stl_vector.h ****        *
 495:h:/6261A/11CW1352MP_BIRD61A_11C_V33_GPRS_MMI/Tools/MinGW/include/c++/3.3.1/bits/stl_vector.h ****        *  This operator allows for easy, array-style, data access.
 496:h:/6261A/11CW1352MP_BIRD61A_11C_V33_GPRS_MMI/Tools/MinGW/include/c++/3.3.1/bits/stl_vector.h ****        *  Note that data access with this operator is unchecked and
 497:h:/6261A/11CW1352MP_BIRD61A_11C_V33_GPRS_MMI/Tools/MinGW/include/c++/3.3.1/bits/stl_vector.h ****        *  out_of_range lookups are not defined. (For checked lookups
 498:h:/6261A/11CW1352MP_BIRD61A_11C_V33_GPRS_MMI/Tools/MinGW/include/c++/3.3.1/bits/stl_vector.h ****        *  see at().)
 499:h:/6261A/11CW1352MP_BIRD61A_11C_V33_GPRS_MMI/Tools/MinGW/include/c++/3.3.1/bits/stl_vector.h ****        */
 500:h:/6261A/11CW1352MP_BIRD61A_11C_V33_GPRS_MMI/Tools/MinGW/include/c++/3.3.1/bits/stl_vector.h ****       reference
 501:h:/6261A/11CW1352MP_BIRD61A_11C_V33_GPRS_MMI/Tools/MinGW/include/c++/3.3.1/bits/stl_vector.h ****       operator[](size_type __n) { return *(begin() + __n); }
 502:h:/6261A/11CW1352MP_BIRD61A_11C_V33_GPRS_MMI/Tools/MinGW/include/c++/3.3.1/bits/stl_vector.h ****       
 503:h:/6261A/11CW1352MP_BIRD61A_11C_V33_GPRS_MMI/Tools/MinGW/include/c++/3.3.1/bits/stl_vector.h ****       /**
 504:h:/6261A/11CW1352MP_BIRD61A_11C_V33_GPRS_MMI/Tools/MinGW/include/c++/3.3.1/bits/stl_vector.h ****        *  @brief  Subscript access to the data contained in the %vector.
 505:h:/6261A/11CW1352MP_BIRD61A_11C_V33_GPRS_MMI/Tools/MinGW/include/c++/3.3.1/bits/stl_vector.h ****        *  @param n The index of the element for which data should be
 506:h:/6261A/11CW1352MP_BIRD61A_11C_V33_GPRS_MMI/Tools/MinGW/include/c++/3.3.1/bits/stl_vector.h ****        *  accessed.
 507:h:/6261A/11CW1352MP_BIRD61A_11C_V33_GPRS_MMI/Tools/MinGW/include/c++/3.3.1/bits/stl_vector.h ****        *  @return  Read-only (constant) reference to data.
 508:h:/6261A/11CW1352MP_BIRD61A_11C_V33_GPRS_MMI/Tools/MinGW/include/c++/3.3.1/bits/stl_vector.h ****        *
 509:h:/6261A/11CW1352MP_BIRD61A_11C_V33_GPRS_MMI/Tools/MinGW/include/c++/3.3.1/bits/stl_vector.h ****        *  This operator allows for easy, array-style, data access.
 510:h:/6261A/11CW1352MP_BIRD61A_11C_V33_GPRS_MMI/Tools/MinGW/include/c++/3.3.1/bits/stl_vector.h ****        *  Note that data access with this operator is unchecked and
 511:h:/6261A/11CW1352MP_BIRD61A_11C_V33_GPRS_MMI/Tools/MinGW/include/c++/3.3.1/bits/stl_vector.h ****        *  out_of_range lookups are not defined. (For checked lookups
 512:h:/6261A/11CW1352MP_BIRD61A_11C_V33_GPRS_MMI/Tools/MinGW/include/c++/3.3.1/bits/stl_vector.h ****        *  see at().)
 513:h:/6261A/11CW1352MP_BIRD61A_11C_V33_GPRS_MMI/Tools/MinGW/include/c++/3.3.1/bits/stl_vector.h ****        */
 514:h:/6261A/11CW1352MP_BIRD61A_11C_V33_GPRS_MMI/Tools/MinGW/include/c++/3.3.1/bits/stl_vector.h ****       const_reference
 515:h:/6261A/11CW1352MP_BIRD61A_11C_V33_GPRS_MMI/Tools/MinGW/include/c++/3.3.1/bits/stl_vector.h ****       operator[](size_type __n) const { return *(begin() + __n); }
 516:h:/6261A/11CW1352MP_BIRD61A_11C_V33_GPRS_MMI/Tools/MinGW/include/c++/3.3.1/bits/stl_vector.h ****   
 517:h:/6261A/11CW1352MP_BIRD61A_11C_V33_GPRS_MMI/Tools/MinGW/include/c++/3.3.1/bits/stl_vector.h ****     protected:
 518:h:/6261A/11CW1352MP_BIRD61A_11C_V33_GPRS_MMI/Tools/MinGW/include/c++/3.3.1/bits/stl_vector.h ****       /// @if maint Safety check used only from at().  @endif
 519:h:/6261A/11CW1352MP_BIRD61A_11C_V33_GPRS_MMI/Tools/MinGW/include/c++/3.3.1/bits/stl_vector.h ****       void
 520:h:/6261A/11CW1352MP_BIRD61A_11C_V33_GPRS_MMI/Tools/MinGW/include/c++/3.3.1/bits/stl_vector.h ****       _M_range_check(size_type __n) const
 521:h:/6261A/11CW1352MP_BIRD61A_11C_V33_GPRS_MMI/Tools/MinGW/include/c++/3.3.1/bits/stl_vector.h ****       {
 522:h:/6261A/11CW1352MP_BIRD61A_11C_V33_GPRS_MMI/Tools/MinGW/include/c++/3.3.1/bits/stl_vector.h **** 	if (__n >= this->size())
 523:h:/6261A/11CW1352MP_BIRD61A_11C_V33_GPRS_MMI/Tools/MinGW/include/c++/3.3.1/bits/stl_vector.h **** 	  __throw_out_of_range("vector [] access out of range");
 524:h:/6261A/11CW1352MP_BIRD61A_11C_V33_GPRS_MMI/Tools/MinGW/include/c++/3.3.1/bits/stl_vector.h ****       }
 525:h:/6261A/11CW1352MP_BIRD61A_11C_V33_GPRS_MMI/Tools/MinGW/include/c++/3.3.1/bits/stl_vector.h ****       
 526:h:/6261A/11CW1352MP_BIRD61A_11C_V33_GPRS_MMI/Tools/MinGW/include/c++/3.3.1/bits/stl_vector.h ****     public:
 527:h:/6261A/11CW1352MP_BIRD61A_11C_V33_GPRS_MMI/Tools/MinGW/include/c++/3.3.1/bits/stl_vector.h ****       /**
 528:h:/6261A/11CW1352MP_BIRD61A_11C_V33_GPRS_MMI/Tools/MinGW/include/c++/3.3.1/bits/stl_vector.h ****        *  @brief  Provides access to the data contained in the %vector.
 529:h:/6261A/11CW1352MP_BIRD61A_11C_V33_GPRS_MMI/Tools/MinGW/include/c++/3.3.1/bits/stl_vector.h ****        *  @param n The index of the element for which data should be
 530:h:/6261A/11CW1352MP_BIRD61A_11C_V33_GPRS_MMI/Tools/MinGW/include/c++/3.3.1/bits/stl_vector.h ****        *  accessed.
 531:h:/6261A/11CW1352MP_BIRD61A_11C_V33_GPRS_MMI/Tools/MinGW/include/c++/3.3.1/bits/stl_vector.h ****        *  @return  Read/write reference to data.
 532:h:/6261A/11CW1352MP_BIRD61A_11C_V33_GPRS_MMI/Tools/MinGW/include/c++/3.3.1/bits/stl_vector.h ****        *  @throw  std::out_of_range  If @a n is an invalid index.
 533:h:/6261A/11CW1352MP_BIRD61A_11C_V33_GPRS_MMI/Tools/MinGW/include/c++/3.3.1/bits/stl_vector.h ****        *
 534:h:/6261A/11CW1352MP_BIRD61A_11C_V33_GPRS_MMI/Tools/MinGW/include/c++/3.3.1/bits/stl_vector.h ****        *  This function provides for safer data access.  The parameter is first
 535:h:/6261A/11CW1352MP_BIRD61A_11C_V33_GPRS_MMI/Tools/MinGW/include/c++/3.3.1/bits/stl_vector.h ****        *  checked that it is in the range of the vector.  The function throws
 536:h:/6261A/11CW1352MP_BIRD61A_11C_V33_GPRS_MMI/Tools/MinGW/include/c++/3.3.1/bits/stl_vector.h ****        *  out_of_range if the check fails.
 537:h:/6261A/11CW1352MP_BIRD61A_11C_V33_GPRS_MMI/Tools/MinGW/include/c++/3.3.1/bits/stl_vector.h ****        */
 538:h:/6261A/11CW1352MP_BIRD61A_11C_V33_GPRS_MMI/Tools/MinGW/include/c++/3.3.1/bits/stl_vector.h ****       reference
 539:h:/6261A/11CW1352MP_BIRD61A_11C_V33_GPRS_MMI/Tools/MinGW/include/c++/3.3.1/bits/stl_vector.h ****       at(size_type __n) { _M_range_check(__n); return (*this)[__n]; }
 540:h:/6261A/11CW1352MP_BIRD61A_11C_V33_GPRS_MMI/Tools/MinGW/include/c++/3.3.1/bits/stl_vector.h ****       
 541:h:/6261A/11CW1352MP_BIRD61A_11C_V33_GPRS_MMI/Tools/MinGW/include/c++/3.3.1/bits/stl_vector.h ****       /**
 542:h:/6261A/11CW1352MP_BIRD61A_11C_V33_GPRS_MMI/Tools/MinGW/include/c++/3.3.1/bits/stl_vector.h ****        *  @brief  Provides access to the data contained in the %vector.
 543:h:/6261A/11CW1352MP_BIRD61A_11C_V33_GPRS_MMI/Tools/MinGW/include/c++/3.3.1/bits/stl_vector.h ****        *  @param n The index of the element for which data should be
 544:h:/6261A/11CW1352MP_BIRD61A_11C_V33_GPRS_MMI/Tools/MinGW/include/c++/3.3.1/bits/stl_vector.h ****        *  accessed.
 545:h:/6261A/11CW1352MP_BIRD61A_11C_V33_GPRS_MMI/Tools/MinGW/include/c++/3.3.1/bits/stl_vector.h ****        *  @return  Read-only (constant) reference to data.
 546:h:/6261A/11CW1352MP_BIRD61A_11C_V33_GPRS_MMI/Tools/MinGW/include/c++/3.3.1/bits/stl_vector.h ****        *  @throw  std::out_of_range  If @a n is an invalid index.
 547:h:/6261A/11CW1352MP_BIRD61A_11C_V33_GPRS_MMI/Tools/MinGW/include/c++/3.3.1/bits/stl_vector.h ****        *
GAS LISTING h:/6261A/11CW1352MP_BIRD61A_11C_V33_GPRS_MMI/plutommi/Customer/ResGenerator/gcctmp/ccEHcaaa.s 			page 75


 548:h:/6261A/11CW1352MP_BIRD61A_11C_V33_GPRS_MMI/Tools/MinGW/include/c++/3.3.1/bits/stl_vector.h ****        *  This function provides for safer data access.  The parameter
 549:h:/6261A/11CW1352MP_BIRD61A_11C_V33_GPRS_MMI/Tools/MinGW/include/c++/3.3.1/bits/stl_vector.h ****        *  is first checked that it is in the range of the vector.  The
 550:h:/6261A/11CW1352MP_BIRD61A_11C_V33_GPRS_MMI/Tools/MinGW/include/c++/3.3.1/bits/stl_vector.h ****        *  function throws out_of_range if the check fails.
 551:h:/6261A/11CW1352MP_BIRD61A_11C_V33_GPRS_MMI/Tools/MinGW/include/c++/3.3.1/bits/stl_vector.h ****        */
 552:h:/6261A/11CW1352MP_BIRD61A_11C_V33_GPRS_MMI/Tools/MinGW/include/c++/3.3.1/bits/stl_vector.h ****       const_reference
 553:h:/6261A/11CW1352MP_BIRD61A_11C_V33_GPRS_MMI/Tools/MinGW/include/c++/3.3.1/bits/stl_vector.h ****       at(size_type __n) const { _M_range_check(__n); return (*this)[__n]; }
 554:h:/6261A/11CW1352MP_BIRD61A_11C_V33_GPRS_MMI/Tools/MinGW/include/c++/3.3.1/bits/stl_vector.h ****       
 555:h:/6261A/11CW1352MP_BIRD61A_11C_V33_GPRS_MMI/Tools/MinGW/include/c++/3.3.1/bits/stl_vector.h ****       /**
 556:h:/6261A/11CW1352MP_BIRD61A_11C_V33_GPRS_MMI/Tools/MinGW/include/c++/3.3.1/bits/stl_vector.h ****        *  Returns a read/write reference to the data at the first
 557:h:/6261A/11CW1352MP_BIRD61A_11C_V33_GPRS_MMI/Tools/MinGW/include/c++/3.3.1/bits/stl_vector.h ****        *  element of the %vector.
 558:h:/6261A/11CW1352MP_BIRD61A_11C_V33_GPRS_MMI/Tools/MinGW/include/c++/3.3.1/bits/stl_vector.h ****        */
 559:h:/6261A/11CW1352MP_BIRD61A_11C_V33_GPRS_MMI/Tools/MinGW/include/c++/3.3.1/bits/stl_vector.h ****       reference
 560:h:/6261A/11CW1352MP_BIRD61A_11C_V33_GPRS_MMI/Tools/MinGW/include/c++/3.3.1/bits/stl_vector.h ****       front() { return *begin(); }
 561:h:/6261A/11CW1352MP_BIRD61A_11C_V33_GPRS_MMI/Tools/MinGW/include/c++/3.3.1/bits/stl_vector.h ****       
 562:h:/6261A/11CW1352MP_BIRD61A_11C_V33_GPRS_MMI/Tools/MinGW/include/c++/3.3.1/bits/stl_vector.h ****       /**
 563:h:/6261A/11CW1352MP_BIRD61A_11C_V33_GPRS_MMI/Tools/MinGW/include/c++/3.3.1/bits/stl_vector.h ****        *  Returns a read-only (constant) reference to the data at the first
 564:h:/6261A/11CW1352MP_BIRD61A_11C_V33_GPRS_MMI/Tools/MinGW/include/c++/3.3.1/bits/stl_vector.h ****        *  element of the %vector.
 565:h:/6261A/11CW1352MP_BIRD61A_11C_V33_GPRS_MMI/Tools/MinGW/include/c++/3.3.1/bits/stl_vector.h ****        */
 566:h:/6261A/11CW1352MP_BIRD61A_11C_V33_GPRS_MMI/Tools/MinGW/include/c++/3.3.1/bits/stl_vector.h ****       const_reference
 567:h:/6261A/11CW1352MP_BIRD61A_11C_V33_GPRS_MMI/Tools/MinGW/include/c++/3.3.1/bits/stl_vector.h ****       front() const { return *begin(); }
 568:h:/6261A/11CW1352MP_BIRD61A_11C_V33_GPRS_MMI/Tools/MinGW/include/c++/3.3.1/bits/stl_vector.h ****       
 569:h:/6261A/11CW1352MP_BIRD61A_11C_V33_GPRS_MMI/Tools/MinGW/include/c++/3.3.1/bits/stl_vector.h ****       /**
 570:h:/6261A/11CW1352MP_BIRD61A_11C_V33_GPRS_MMI/Tools/MinGW/include/c++/3.3.1/bits/stl_vector.h ****        *  Returns a read/write reference to the data at the last element of the
 571:h:/6261A/11CW1352MP_BIRD61A_11C_V33_GPRS_MMI/Tools/MinGW/include/c++/3.3.1/bits/stl_vector.h ****        *  %vector.
 572:h:/6261A/11CW1352MP_BIRD61A_11C_V33_GPRS_MMI/Tools/MinGW/include/c++/3.3.1/bits/stl_vector.h ****        */
 573:h:/6261A/11CW1352MP_BIRD61A_11C_V33_GPRS_MMI/Tools/MinGW/include/c++/3.3.1/bits/stl_vector.h ****       reference
 574:h:/6261A/11CW1352MP_BIRD61A_11C_V33_GPRS_MMI/Tools/MinGW/include/c++/3.3.1/bits/stl_vector.h ****       back() { return *(end() - 1); }
 575:h:/6261A/11CW1352MP_BIRD61A_11C_V33_GPRS_MMI/Tools/MinGW/include/c++/3.3.1/bits/stl_vector.h ****       
 576:h:/6261A/11CW1352MP_BIRD61A_11C_V33_GPRS_MMI/Tools/MinGW/include/c++/3.3.1/bits/stl_vector.h ****       /**
 577:h:/6261A/11CW1352MP_BIRD61A_11C_V33_GPRS_MMI/Tools/MinGW/include/c++/3.3.1/bits/stl_vector.h ****        *  Returns a read-only (constant) reference to the data at the last
 578:h:/6261A/11CW1352MP_BIRD61A_11C_V33_GPRS_MMI/Tools/MinGW/include/c++/3.3.1/bits/stl_vector.h ****        *  element of the %vector.
 579:h:/6261A/11CW1352MP_BIRD61A_11C_V33_GPRS_MMI/Tools/MinGW/include/c++/3.3.1/bits/stl_vector.h ****        */
 580:h:/6261A/11CW1352MP_BIRD61A_11C_V33_GPRS_MMI/Tools/MinGW/include/c++/3.3.1/bits/stl_vector.h ****       const_reference
 581:h:/6261A/11CW1352MP_BIRD61A_11C_V33_GPRS_MMI/Tools/MinGW/include/c++/3.3.1/bits/stl_vector.h ****       back() const { return *(end() - 1); }
 582:h:/6261A/11CW1352MP_BIRD61A_11C_V33_GPRS_MMI/Tools/MinGW/include/c++/3.3.1/bits/stl_vector.h ****   
 583:h:/6261A/11CW1352MP_BIRD61A_11C_V33_GPRS_MMI/Tools/MinGW/include/c++/3.3.1/bits/stl_vector.h ****       // [23.2.4.3] modifiers
 584:h:/6261A/11CW1352MP_BIRD61A_11C_V33_GPRS_MMI/Tools/MinGW/include/c++/3.3.1/bits/stl_vector.h ****       /**
 585:h:/6261A/11CW1352MP_BIRD61A_11C_V33_GPRS_MMI/Tools/MinGW/include/c++/3.3.1/bits/stl_vector.h ****        *  @brief  Add data to the end of the %vector.
 586:h:/6261A/11CW1352MP_BIRD61A_11C_V33_GPRS_MMI/Tools/MinGW/include/c++/3.3.1/bits/stl_vector.h ****        *  @param  x  Data to be added.
 587:h:/6261A/11CW1352MP_BIRD61A_11C_V33_GPRS_MMI/Tools/MinGW/include/c++/3.3.1/bits/stl_vector.h ****        *
 588:h:/6261A/11CW1352MP_BIRD61A_11C_V33_GPRS_MMI/Tools/MinGW/include/c++/3.3.1/bits/stl_vector.h ****        *  This is a typical stack operation.  The function creates an
 589:h:/6261A/11CW1352MP_BIRD61A_11C_V33_GPRS_MMI/Tools/MinGW/include/c++/3.3.1/bits/stl_vector.h ****        *  element at the end of the %vector and assigns the given data
 590:h:/6261A/11CW1352MP_BIRD61A_11C_V33_GPRS_MMI/Tools/MinGW/include/c++/3.3.1/bits/stl_vector.h ****        *  to it.  Due to the nature of a %vector this operation can be
 591:h:/6261A/11CW1352MP_BIRD61A_11C_V33_GPRS_MMI/Tools/MinGW/include/c++/3.3.1/bits/stl_vector.h ****        *  done in constant time if the %vector has preallocated space
 592:h:/6261A/11CW1352MP_BIRD61A_11C_V33_GPRS_MMI/Tools/MinGW/include/c++/3.3.1/bits/stl_vector.h ****        *  available.
 593:h:/6261A/11CW1352MP_BIRD61A_11C_V33_GPRS_MMI/Tools/MinGW/include/c++/3.3.1/bits/stl_vector.h ****        */
 594:h:/6261A/11CW1352MP_BIRD61A_11C_V33_GPRS_MMI/Tools/MinGW/include/c++/3.3.1/bits/stl_vector.h ****       void
 595:h:/6261A/11CW1352MP_BIRD61A_11C_V33_GPRS_MMI/Tools/MinGW/include/c++/3.3.1/bits/stl_vector.h ****       push_back(const value_type& __x)
 596:h:/6261A/11CW1352MP_BIRD61A_11C_V33_GPRS_MMI/Tools/MinGW/include/c++/3.3.1/bits/stl_vector.h ****       {
 6364              	LM172:
 6365 0000 55       		pushl	%ebp
 6366 0001 89E5     		movl	%esp, %ebp
 6367 0003 83EC18   		subl	$24, %esp
 597:h:/6261A/11CW1352MP_BIRD61A_11C_V33_GPRS_MMI/Tools/MinGW/include/c++/3.3.1/bits/stl_vector.h **** 	if (_M_finish != _M_end_of_storage)
 6369              	LM173:
 6370              	LBB36:
 6371 0006 8B4508   		movl	8(%ebp), %eax
GAS LISTING h:/6261A/11CW1352MP_BIRD61A_11C_V33_GPRS_MMI/plutommi/Customer/ResGenerator/gcctmp/ccEHcaaa.s 			page 76


 6372 0009 8B5508   		movl	8(%ebp), %edx
 6373 000c 8B4004   		movl	4(%eax), %eax
 6374 000f 3B4208   		cmpl	8(%edx), %eax
 6375 0012 741E     		je	L191
 598:h:/6261A/11CW1352MP_BIRD61A_11C_V33_GPRS_MMI/Tools/MinGW/include/c++/3.3.1/bits/stl_vector.h **** 	  {
 599:h:/6261A/11CW1352MP_BIRD61A_11C_V33_GPRS_MMI/Tools/MinGW/include/c++/3.3.1/bits/stl_vector.h **** 	    _Construct(_M_finish, __x);
 6377              	LM174:
 6378 0014 8B450C   		movl	12(%ebp), %eax
 6379 0017 89442404 		movl	%eax, 4(%esp)
 6380 001b 8B4508   		movl	8(%ebp), %eax
 6381 001e 8B4004   		movl	4(%eax), %eax
 6382 0021 890424   		movl	%eax, (%esp)
 6383 0024 E8000000 		call	__ZSt10_ConstructIN10ThreadPool10ThreadDataES1_EvPT_RKT0_
 6383      00
 600:h:/6261A/11CW1352MP_BIRD61A_11C_V33_GPRS_MMI/Tools/MinGW/include/c++/3.3.1/bits/stl_vector.h **** 	    ++_M_finish;
 6385              	LM175:
 6386 0029 8B4508   		movl	8(%ebp), %eax
 6387 002c 8340040C 		addl	$12, 4(%eax)
 6388 0030 EB27     		jmp	L190
 6389              	L191:
 601:h:/6261A/11CW1352MP_BIRD61A_11C_V33_GPRS_MMI/Tools/MinGW/include/c++/3.3.1/bits/stl_vector.h **** 	  }
 602:h:/6261A/11CW1352MP_BIRD61A_11C_V33_GPRS_MMI/Tools/MinGW/include/c++/3.3.1/bits/stl_vector.h **** 	else
 603:h:/6261A/11CW1352MP_BIRD61A_11C_V33_GPRS_MMI/Tools/MinGW/include/c++/3.3.1/bits/stl_vector.h **** 	  _M_insert_aux(end(), __x);
 6391              	LM176:
 6392 0032 8B4508   		movl	8(%ebp), %eax
 6393 0035 890424   		movl	%eax, (%esp)
 6394 0038 E8000000 		call	__ZNSt6vectorIN10ThreadPool10ThreadDataESaIS1_EE3endEv
 6394      00
 6395 003d 8945FC   		movl	%eax, -4(%ebp)
 6396 0040 8B450C   		movl	12(%ebp), %eax
 6397 0043 89442408 		movl	%eax, 8(%esp)
 6398 0047 8B45FC   		movl	-4(%ebp), %eax
 6399 004a 89442404 		movl	%eax, 4(%esp)
 6400 004e 8B4508   		movl	8(%ebp), %eax
 6401 0051 890424   		movl	%eax, (%esp)
 6402 0054 E8000000 		call	__ZNSt6vectorIN10ThreadPool10ThreadDataESaIS1_EE13_M_insert_auxEN9__gnu_cxx17__normal_iterato
 6402      00
 6403              	L190:
 6404 0059 C9       		leave
 6405 005a C3       		ret
 6406              	LBE36:
 6407              	Lscope19:
 6409 005b 90       		.section	.text$_ZNSt6vectorIN10ThreadPool10ThreadDataESaIS1_EE5beginEv,"x"
 6410              		.linkonce discard
 6411              		.align 2
 6414              	.globl __ZNSt6vectorIN10ThreadPool10ThreadDataESaIS1_EE5beginEv
 6416              	__ZNSt6vectorIN10ThreadPool10ThreadDataESaIS1_EE5beginEv:
 6418              	LM177:
 6419 0000 55       		pushl	%ebp
 6420 0001 89E5     		movl	%esp, %ebp
 6421 0003 83EC18   		subl	$24, %esp
 6423              	LM178:
 6424              	LBB37:
 6425 0006 8B4508   		movl	8(%ebp), %eax
 6426 0009 89442404 		movl	%eax, 4(%esp)
 6427 000d 8D45FC   		leal	-4(%ebp), %eax
 6428 0010 890424   		movl	%eax, (%esp)
GAS LISTING h:/6261A/11CW1352MP_BIRD61A_11C_V33_GPRS_MMI/plutommi/Customer/ResGenerator/gcctmp/ccEHcaaa.s 			page 77


 6429 0013 E8000000 		call	__ZN9__gnu_cxx17__normal_iteratorIPN10ThreadPool10ThreadDataESt6vectorIS2_SaIS2_EEEC1ERKS3_
 6429      00
 6430 0018 8B45FC   		movl	-4(%ebp), %eax
 6431 001b C9       		leave
 6432 001c C3       		ret
 6433              	LBE37:
 6434              	Lscope20:
 6436 001d 909090   		.section	.text$_ZN9__gnu_cxxneIPN10ThreadPool10ThreadDataESt6vectorIS2_SaIS2_EEEEbRKNS_17__normal_
 6437              		.linkonce discard
 6438              		.align 2
 6442              	.globl __ZN9__gnu_cxxneIPN10ThreadPool10ThreadDataESt6vectorIS2_SaIS2_EEEEbRKNS_17__normal_iterator
 6444              	__ZN9__gnu_cxxneIPN10ThreadPool10ThreadDataESt6vectorIS2_SaIS2_EEEEbRKNS_17__normal_iteratorIT_T0_E
 6446              	Ltext5:
   1:h:/6261A/11CW1352MP_BIRD61A_11C_V33_GPRS_MMI/Tools/MinGW/include/c++/3.3.1/bits/stl_iterator.h **** // Iterators -*- C++ -*-
   2:h:/6261A/11CW1352MP_BIRD61A_11C_V33_GPRS_MMI/Tools/MinGW/include/c++/3.3.1/bits/stl_iterator.h **** 
   3:h:/6261A/11CW1352MP_BIRD61A_11C_V33_GPRS_MMI/Tools/MinGW/include/c++/3.3.1/bits/stl_iterator.h **** // Copyright (C) 2001, 2002 Free Software Foundation, Inc.
   4:h:/6261A/11CW1352MP_BIRD61A_11C_V33_GPRS_MMI/Tools/MinGW/include/c++/3.3.1/bits/stl_iterator.h **** //
   5:h:/6261A/11CW1352MP_BIRD61A_11C_V33_GPRS_MMI/Tools/MinGW/include/c++/3.3.1/bits/stl_iterator.h **** // This file is part of the GNU ISO C++ Library.  This library is free
   6:h:/6261A/11CW1352MP_BIRD61A_11C_V33_GPRS_MMI/Tools/MinGW/include/c++/3.3.1/bits/stl_iterator.h **** // software; you can redistribute it and/or modify it under the
   7:h:/6261A/11CW1352MP_BIRD61A_11C_V33_GPRS_MMI/Tools/MinGW/include/c++/3.3.1/bits/stl_iterator.h **** // terms of the GNU General Public License as published by the
   8:h:/6261A/11CW1352MP_BIRD61A_11C_V33_GPRS_MMI/Tools/MinGW/include/c++/3.3.1/bits/stl_iterator.h **** // Free Software Foundation; either version 2, or (at your option)
   9:h:/6261A/11CW1352MP_BIRD61A_11C_V33_GPRS_MMI/Tools/MinGW/include/c++/3.3.1/bits/stl_iterator.h **** // any later version.
  10:h:/6261A/11CW1352MP_BIRD61A_11C_V33_GPRS_MMI/Tools/MinGW/include/c++/3.3.1/bits/stl_iterator.h **** 
  11:h:/6261A/11CW1352MP_BIRD61A_11C_V33_GPRS_MMI/Tools/MinGW/include/c++/3.3.1/bits/stl_iterator.h **** // This library is distributed in the hope that it will be useful,
  12:h:/6261A/11CW1352MP_BIRD61A_11C_V33_GPRS_MMI/Tools/MinGW/include/c++/3.3.1/bits/stl_iterator.h **** // but WITHOUT ANY WARRANTY; without even the implied warranty of
  13:h:/6261A/11CW1352MP_BIRD61A_11C_V33_GPRS_MMI/Tools/MinGW/include/c++/3.3.1/bits/stl_iterator.h **** // MERCHANTABILITY or FITNESS FOR A PARTICULAR PURPOSE.  See the
  14:h:/6261A/11CW1352MP_BIRD61A_11C_V33_GPRS_MMI/Tools/MinGW/include/c++/3.3.1/bits/stl_iterator.h **** // GNU General Public License for more details.
  15:h:/6261A/11CW1352MP_BIRD61A_11C_V33_GPRS_MMI/Tools/MinGW/include/c++/3.3.1/bits/stl_iterator.h **** 
  16:h:/6261A/11CW1352MP_BIRD61A_11C_V33_GPRS_MMI/Tools/MinGW/include/c++/3.3.1/bits/stl_iterator.h **** // You should have received a copy of the GNU General Public License along
  17:h:/6261A/11CW1352MP_BIRD61A_11C_V33_GPRS_MMI/Tools/MinGW/include/c++/3.3.1/bits/stl_iterator.h **** // with this library; see the file COPYING.  If not, write to the Free
  18:h:/6261A/11CW1352MP_BIRD61A_11C_V33_GPRS_MMI/Tools/MinGW/include/c++/3.3.1/bits/stl_iterator.h **** // Software Foundation, 59 Temple Place - Suite 330, Boston, MA 02111-1307,
  19:h:/6261A/11CW1352MP_BIRD61A_11C_V33_GPRS_MMI/Tools/MinGW/include/c++/3.3.1/bits/stl_iterator.h **** // USA.
  20:h:/6261A/11CW1352MP_BIRD61A_11C_V33_GPRS_MMI/Tools/MinGW/include/c++/3.3.1/bits/stl_iterator.h **** 
  21:h:/6261A/11CW1352MP_BIRD61A_11C_V33_GPRS_MMI/Tools/MinGW/include/c++/3.3.1/bits/stl_iterator.h **** // As a special exception, you may use this file as part of a free software
  22:h:/6261A/11CW1352MP_BIRD61A_11C_V33_GPRS_MMI/Tools/MinGW/include/c++/3.3.1/bits/stl_iterator.h **** // library without restriction.  Specifically, if other files instantiate
  23:h:/6261A/11CW1352MP_BIRD61A_11C_V33_GPRS_MMI/Tools/MinGW/include/c++/3.3.1/bits/stl_iterator.h **** // templates or use macros or inline functions from this file, or you compile
  24:h:/6261A/11CW1352MP_BIRD61A_11C_V33_GPRS_MMI/Tools/MinGW/include/c++/3.3.1/bits/stl_iterator.h **** // this file and link it with other files to produce an executable, this
  25:h:/6261A/11CW1352MP_BIRD61A_11C_V33_GPRS_MMI/Tools/MinGW/include/c++/3.3.1/bits/stl_iterator.h **** // file does not by itself cause the resulting executable to be covered by
  26:h:/6261A/11CW1352MP_BIRD61A_11C_V33_GPRS_MMI/Tools/MinGW/include/c++/3.3.1/bits/stl_iterator.h **** // the GNU General Public License.  This exception does not however
  27:h:/6261A/11CW1352MP_BIRD61A_11C_V33_GPRS_MMI/Tools/MinGW/include/c++/3.3.1/bits/stl_iterator.h **** // invalidate any other reasons why the executable file might be covered by
  28:h:/6261A/11CW1352MP_BIRD61A_11C_V33_GPRS_MMI/Tools/MinGW/include/c++/3.3.1/bits/stl_iterator.h **** // the GNU General Public License.
  29:h:/6261A/11CW1352MP_BIRD61A_11C_V33_GPRS_MMI/Tools/MinGW/include/c++/3.3.1/bits/stl_iterator.h **** 
  30:h:/6261A/11CW1352MP_BIRD61A_11C_V33_GPRS_MMI/Tools/MinGW/include/c++/3.3.1/bits/stl_iterator.h **** /*
  31:h:/6261A/11CW1352MP_BIRD61A_11C_V33_GPRS_MMI/Tools/MinGW/include/c++/3.3.1/bits/stl_iterator.h ****  *
  32:h:/6261A/11CW1352MP_BIRD61A_11C_V33_GPRS_MMI/Tools/MinGW/include/c++/3.3.1/bits/stl_iterator.h ****  * Copyright (c) 1994
  33:h:/6261A/11CW1352MP_BIRD61A_11C_V33_GPRS_MMI/Tools/MinGW/include/c++/3.3.1/bits/stl_iterator.h ****  * Hewlett-Packard Company
  34:h:/6261A/11CW1352MP_BIRD61A_11C_V33_GPRS_MMI/Tools/MinGW/include/c++/3.3.1/bits/stl_iterator.h ****  *
  35:h:/6261A/11CW1352MP_BIRD61A_11C_V33_GPRS_MMI/Tools/MinGW/include/c++/3.3.1/bits/stl_iterator.h ****  * Permission to use, copy, modify, distribute and sell this software
  36:h:/6261A/11CW1352MP_BIRD61A_11C_V33_GPRS_MMI/Tools/MinGW/include/c++/3.3.1/bits/stl_iterator.h ****  * and its documentation for any purpose is hereby granted without fee,
  37:h:/6261A/11CW1352MP_BIRD61A_11C_V33_GPRS_MMI/Tools/MinGW/include/c++/3.3.1/bits/stl_iterator.h ****  * provided that the above copyright notice appear in all copies and
  38:h:/6261A/11CW1352MP_BIRD61A_11C_V33_GPRS_MMI/Tools/MinGW/include/c++/3.3.1/bits/stl_iterator.h ****  * that both that copyright notice and this permission notice appear
  39:h:/6261A/11CW1352MP_BIRD61A_11C_V33_GPRS_MMI/Tools/MinGW/include/c++/3.3.1/bits/stl_iterator.h ****  * in supporting documentation.  Hewlett-Packard Company makes no
  40:h:/6261A/11CW1352MP_BIRD61A_11C_V33_GPRS_MMI/Tools/MinGW/include/c++/3.3.1/bits/stl_iterator.h ****  * representations about the suitability of this software for any
  41:h:/6261A/11CW1352MP_BIRD61A_11C_V33_GPRS_MMI/Tools/MinGW/include/c++/3.3.1/bits/stl_iterator.h ****  * purpose.  It is provided "as is" without express or implied warranty.
  42:h:/6261A/11CW1352MP_BIRD61A_11C_V33_GPRS_MMI/Tools/MinGW/include/c++/3.3.1/bits/stl_iterator.h ****  *
  43:h:/6261A/11CW1352MP_BIRD61A_11C_V33_GPRS_MMI/Tools/MinGW/include/c++/3.3.1/bits/stl_iterator.h ****  *
  44:h:/6261A/11CW1352MP_BIRD61A_11C_V33_GPRS_MMI/Tools/MinGW/include/c++/3.3.1/bits/stl_iterator.h ****  * Copyright (c) 1996-1998
GAS LISTING h:/6261A/11CW1352MP_BIRD61A_11C_V33_GPRS_MMI/plutommi/Customer/ResGenerator/gcctmp/ccEHcaaa.s 			page 78


  45:h:/6261A/11CW1352MP_BIRD61A_11C_V33_GPRS_MMI/Tools/MinGW/include/c++/3.3.1/bits/stl_iterator.h ****  * Silicon Graphics Computer Systems, Inc.
  46:h:/6261A/11CW1352MP_BIRD61A_11C_V33_GPRS_MMI/Tools/MinGW/include/c++/3.3.1/bits/stl_iterator.h ****  *
  47:h:/6261A/11CW1352MP_BIRD61A_11C_V33_GPRS_MMI/Tools/MinGW/include/c++/3.3.1/bits/stl_iterator.h ****  * Permission to use, copy, modify, distribute and sell this software
  48:h:/6261A/11CW1352MP_BIRD61A_11C_V33_GPRS_MMI/Tools/MinGW/include/c++/3.3.1/bits/stl_iterator.h ****  * and its documentation for any purpose is hereby granted without fee,
  49:h:/6261A/11CW1352MP_BIRD61A_11C_V33_GPRS_MMI/Tools/MinGW/include/c++/3.3.1/bits/stl_iterator.h ****  * provided that the above copyright notice appear in all copies and
  50:h:/6261A/11CW1352MP_BIRD61A_11C_V33_GPRS_MMI/Tools/MinGW/include/c++/3.3.1/bits/stl_iterator.h ****  * that both that copyright notice and this permission notice appear
  51:h:/6261A/11CW1352MP_BIRD61A_11C_V33_GPRS_MMI/Tools/MinGW/include/c++/3.3.1/bits/stl_iterator.h ****  * in supporting documentation.  Silicon Graphics makes no
  52:h:/6261A/11CW1352MP_BIRD61A_11C_V33_GPRS_MMI/Tools/MinGW/include/c++/3.3.1/bits/stl_iterator.h ****  * representations about the suitability of this software for any
  53:h:/6261A/11CW1352MP_BIRD61A_11C_V33_GPRS_MMI/Tools/MinGW/include/c++/3.3.1/bits/stl_iterator.h ****  * purpose.  It is provided "as is" without express or implied warranty.
  54:h:/6261A/11CW1352MP_BIRD61A_11C_V33_GPRS_MMI/Tools/MinGW/include/c++/3.3.1/bits/stl_iterator.h ****  */
  55:h:/6261A/11CW1352MP_BIRD61A_11C_V33_GPRS_MMI/Tools/MinGW/include/c++/3.3.1/bits/stl_iterator.h **** 
  56:h:/6261A/11CW1352MP_BIRD61A_11C_V33_GPRS_MMI/Tools/MinGW/include/c++/3.3.1/bits/stl_iterator.h **** /** @file stl_iterator.h
  57:h:/6261A/11CW1352MP_BIRD61A_11C_V33_GPRS_MMI/Tools/MinGW/include/c++/3.3.1/bits/stl_iterator.h ****  *  This is an internal header file, included by other library headers.
  58:h:/6261A/11CW1352MP_BIRD61A_11C_V33_GPRS_MMI/Tools/MinGW/include/c++/3.3.1/bits/stl_iterator.h ****  *  You should not attempt to use it directly.
  59:h:/6261A/11CW1352MP_BIRD61A_11C_V33_GPRS_MMI/Tools/MinGW/include/c++/3.3.1/bits/stl_iterator.h ****  *
  60:h:/6261A/11CW1352MP_BIRD61A_11C_V33_GPRS_MMI/Tools/MinGW/include/c++/3.3.1/bits/stl_iterator.h ****  *  This file implements reverse_iterator, back_insert_iterator,
  61:h:/6261A/11CW1352MP_BIRD61A_11C_V33_GPRS_MMI/Tools/MinGW/include/c++/3.3.1/bits/stl_iterator.h ****  *  front_insert_iterator, insert_iterator, __normal_iterator, and their
  62:h:/6261A/11CW1352MP_BIRD61A_11C_V33_GPRS_MMI/Tools/MinGW/include/c++/3.3.1/bits/stl_iterator.h ****  *  supporting functions and overloaded operators.
  63:h:/6261A/11CW1352MP_BIRD61A_11C_V33_GPRS_MMI/Tools/MinGW/include/c++/3.3.1/bits/stl_iterator.h ****  */
  64:h:/6261A/11CW1352MP_BIRD61A_11C_V33_GPRS_MMI/Tools/MinGW/include/c++/3.3.1/bits/stl_iterator.h **** 
  65:h:/6261A/11CW1352MP_BIRD61A_11C_V33_GPRS_MMI/Tools/MinGW/include/c++/3.3.1/bits/stl_iterator.h **** #ifndef __GLIBCPP_INTERNAL_ITERATOR_H
  66:h:/6261A/11CW1352MP_BIRD61A_11C_V33_GPRS_MMI/Tools/MinGW/include/c++/3.3.1/bits/stl_iterator.h **** #define __GLIBCPP_INTERNAL_ITERATOR_H
  67:h:/6261A/11CW1352MP_BIRD61A_11C_V33_GPRS_MMI/Tools/MinGW/include/c++/3.3.1/bits/stl_iterator.h **** 
  68:h:/6261A/11CW1352MP_BIRD61A_11C_V33_GPRS_MMI/Tools/MinGW/include/c++/3.3.1/bits/stl_iterator.h **** namespace std
  69:h:/6261A/11CW1352MP_BIRD61A_11C_V33_GPRS_MMI/Tools/MinGW/include/c++/3.3.1/bits/stl_iterator.h **** {
  70:h:/6261A/11CW1352MP_BIRD61A_11C_V33_GPRS_MMI/Tools/MinGW/include/c++/3.3.1/bits/stl_iterator.h ****   // 24.4.1 Reverse iterators
  71:h:/6261A/11CW1352MP_BIRD61A_11C_V33_GPRS_MMI/Tools/MinGW/include/c++/3.3.1/bits/stl_iterator.h ****   /**
  72:h:/6261A/11CW1352MP_BIRD61A_11C_V33_GPRS_MMI/Tools/MinGW/include/c++/3.3.1/bits/stl_iterator.h ****    *  "Bidirectional and random access iterators have corresponding reverse
  73:h:/6261A/11CW1352MP_BIRD61A_11C_V33_GPRS_MMI/Tools/MinGW/include/c++/3.3.1/bits/stl_iterator.h ****    *  %iterator adaptors that iterate through the data structure in the
  74:h:/6261A/11CW1352MP_BIRD61A_11C_V33_GPRS_MMI/Tools/MinGW/include/c++/3.3.1/bits/stl_iterator.h ****    *  opposite direction.  They have the same signatures as the corresponding
  75:h:/6261A/11CW1352MP_BIRD61A_11C_V33_GPRS_MMI/Tools/MinGW/include/c++/3.3.1/bits/stl_iterator.h ****    *  iterators.  The fundamental relation between a reverse %iterator and its
  76:h:/6261A/11CW1352MP_BIRD61A_11C_V33_GPRS_MMI/Tools/MinGW/include/c++/3.3.1/bits/stl_iterator.h ****    *  corresponding %iterator @c i is established by the identity:
  77:h:/6261A/11CW1352MP_BIRD61A_11C_V33_GPRS_MMI/Tools/MinGW/include/c++/3.3.1/bits/stl_iterator.h ****    *  @code
  78:h:/6261A/11CW1352MP_BIRD61A_11C_V33_GPRS_MMI/Tools/MinGW/include/c++/3.3.1/bits/stl_iterator.h ****    *      &*(reverse_iterator(i)) == &*(i - 1)
  79:h:/6261A/11CW1352MP_BIRD61A_11C_V33_GPRS_MMI/Tools/MinGW/include/c++/3.3.1/bits/stl_iterator.h ****    *  @endcode
  80:h:/6261A/11CW1352MP_BIRD61A_11C_V33_GPRS_MMI/Tools/MinGW/include/c++/3.3.1/bits/stl_iterator.h ****    *
  81:h:/6261A/11CW1352MP_BIRD61A_11C_V33_GPRS_MMI/Tools/MinGW/include/c++/3.3.1/bits/stl_iterator.h ****    *  This mapping is dictated by the fact that while there is always a
  82:h:/6261A/11CW1352MP_BIRD61A_11C_V33_GPRS_MMI/Tools/MinGW/include/c++/3.3.1/bits/stl_iterator.h ****    *  pointer past the end of an array, there might not be a valid pointer
  83:h:/6261A/11CW1352MP_BIRD61A_11C_V33_GPRS_MMI/Tools/MinGW/include/c++/3.3.1/bits/stl_iterator.h ****    *  before the beginning of an array." [24.4.1]/1,2
  84:h:/6261A/11CW1352MP_BIRD61A_11C_V33_GPRS_MMI/Tools/MinGW/include/c++/3.3.1/bits/stl_iterator.h ****    *
  85:h:/6261A/11CW1352MP_BIRD61A_11C_V33_GPRS_MMI/Tools/MinGW/include/c++/3.3.1/bits/stl_iterator.h ****    *  Reverse iterators can be tricky and surprising at first.  Their
  86:h:/6261A/11CW1352MP_BIRD61A_11C_V33_GPRS_MMI/Tools/MinGW/include/c++/3.3.1/bits/stl_iterator.h ****    *  semantics make sense, however, and the trickiness is a side effect of
  87:h:/6261A/11CW1352MP_BIRD61A_11C_V33_GPRS_MMI/Tools/MinGW/include/c++/3.3.1/bits/stl_iterator.h ****    *  the requirement that the iterators must be safe.
  88:h:/6261A/11CW1352MP_BIRD61A_11C_V33_GPRS_MMI/Tools/MinGW/include/c++/3.3.1/bits/stl_iterator.h ****   */
  89:h:/6261A/11CW1352MP_BIRD61A_11C_V33_GPRS_MMI/Tools/MinGW/include/c++/3.3.1/bits/stl_iterator.h ****   template<typename _Iterator>
  90:h:/6261A/11CW1352MP_BIRD61A_11C_V33_GPRS_MMI/Tools/MinGW/include/c++/3.3.1/bits/stl_iterator.h ****     class reverse_iterator 
  91:h:/6261A/11CW1352MP_BIRD61A_11C_V33_GPRS_MMI/Tools/MinGW/include/c++/3.3.1/bits/stl_iterator.h ****     : public iterator<typename iterator_traits<_Iterator>::iterator_category,
  92:h:/6261A/11CW1352MP_BIRD61A_11C_V33_GPRS_MMI/Tools/MinGW/include/c++/3.3.1/bits/stl_iterator.h **** 		      typename iterator_traits<_Iterator>::value_type,
  93:h:/6261A/11CW1352MP_BIRD61A_11C_V33_GPRS_MMI/Tools/MinGW/include/c++/3.3.1/bits/stl_iterator.h **** 		      typename iterator_traits<_Iterator>::difference_type,
  94:h:/6261A/11CW1352MP_BIRD61A_11C_V33_GPRS_MMI/Tools/MinGW/include/c++/3.3.1/bits/stl_iterator.h **** 		      typename iterator_traits<_Iterator>::pointer,
  95:h:/6261A/11CW1352MP_BIRD61A_11C_V33_GPRS_MMI/Tools/MinGW/include/c++/3.3.1/bits/stl_iterator.h ****                       typename iterator_traits<_Iterator>::reference>
  96:h:/6261A/11CW1352MP_BIRD61A_11C_V33_GPRS_MMI/Tools/MinGW/include/c++/3.3.1/bits/stl_iterator.h ****     {
  97:h:/6261A/11CW1352MP_BIRD61A_11C_V33_GPRS_MMI/Tools/MinGW/include/c++/3.3.1/bits/stl_iterator.h ****     protected:
  98:h:/6261A/11CW1352MP_BIRD61A_11C_V33_GPRS_MMI/Tools/MinGW/include/c++/3.3.1/bits/stl_iterator.h ****       _Iterator current;
  99:h:/6261A/11CW1352MP_BIRD61A_11C_V33_GPRS_MMI/Tools/MinGW/include/c++/3.3.1/bits/stl_iterator.h **** 
 100:h:/6261A/11CW1352MP_BIRD61A_11C_V33_GPRS_MMI/Tools/MinGW/include/c++/3.3.1/bits/stl_iterator.h ****     public:
 101:h:/6261A/11CW1352MP_BIRD61A_11C_V33_GPRS_MMI/Tools/MinGW/include/c++/3.3.1/bits/stl_iterator.h ****       typedef _Iterator 				       iterator_type;
GAS LISTING h:/6261A/11CW1352MP_BIRD61A_11C_V33_GPRS_MMI/plutommi/Customer/ResGenerator/gcctmp/ccEHcaaa.s 			page 79


 102:h:/6261A/11CW1352MP_BIRD61A_11C_V33_GPRS_MMI/Tools/MinGW/include/c++/3.3.1/bits/stl_iterator.h ****       typedef typename iterator_traits<_Iterator>::difference_type 	
 103:h:/6261A/11CW1352MP_BIRD61A_11C_V33_GPRS_MMI/Tools/MinGW/include/c++/3.3.1/bits/stl_iterator.h ****       							       difference_type;
 104:h:/6261A/11CW1352MP_BIRD61A_11C_V33_GPRS_MMI/Tools/MinGW/include/c++/3.3.1/bits/stl_iterator.h ****       typedef typename iterator_traits<_Iterator>::reference   reference;
 105:h:/6261A/11CW1352MP_BIRD61A_11C_V33_GPRS_MMI/Tools/MinGW/include/c++/3.3.1/bits/stl_iterator.h ****       typedef typename iterator_traits<_Iterator>::pointer     pointer;
 106:h:/6261A/11CW1352MP_BIRD61A_11C_V33_GPRS_MMI/Tools/MinGW/include/c++/3.3.1/bits/stl_iterator.h **** 
 107:h:/6261A/11CW1352MP_BIRD61A_11C_V33_GPRS_MMI/Tools/MinGW/include/c++/3.3.1/bits/stl_iterator.h ****     public:
 108:h:/6261A/11CW1352MP_BIRD61A_11C_V33_GPRS_MMI/Tools/MinGW/include/c++/3.3.1/bits/stl_iterator.h ****       /**
 109:h:/6261A/11CW1352MP_BIRD61A_11C_V33_GPRS_MMI/Tools/MinGW/include/c++/3.3.1/bits/stl_iterator.h ****        *  The default constructor default-initializes member @p current.
 110:h:/6261A/11CW1352MP_BIRD61A_11C_V33_GPRS_MMI/Tools/MinGW/include/c++/3.3.1/bits/stl_iterator.h ****        *  If it is a pointer, that means it is zero-initialized.
 111:h:/6261A/11CW1352MP_BIRD61A_11C_V33_GPRS_MMI/Tools/MinGW/include/c++/3.3.1/bits/stl_iterator.h ****       */
 112:h:/6261A/11CW1352MP_BIRD61A_11C_V33_GPRS_MMI/Tools/MinGW/include/c++/3.3.1/bits/stl_iterator.h ****       // _GLIBCPP_RESOLVE_LIB_DEFECTS
 113:h:/6261A/11CW1352MP_BIRD61A_11C_V33_GPRS_MMI/Tools/MinGW/include/c++/3.3.1/bits/stl_iterator.h ****       // 235 No specification of default ctor for reverse_iterator
 114:h:/6261A/11CW1352MP_BIRD61A_11C_V33_GPRS_MMI/Tools/MinGW/include/c++/3.3.1/bits/stl_iterator.h ****       reverse_iterator() : current() { }
 115:h:/6261A/11CW1352MP_BIRD61A_11C_V33_GPRS_MMI/Tools/MinGW/include/c++/3.3.1/bits/stl_iterator.h **** 
 116:h:/6261A/11CW1352MP_BIRD61A_11C_V33_GPRS_MMI/Tools/MinGW/include/c++/3.3.1/bits/stl_iterator.h ****       /**
 117:h:/6261A/11CW1352MP_BIRD61A_11C_V33_GPRS_MMI/Tools/MinGW/include/c++/3.3.1/bits/stl_iterator.h ****        *  This %iterator will move in the opposite direction that @p x does.
 118:h:/6261A/11CW1352MP_BIRD61A_11C_V33_GPRS_MMI/Tools/MinGW/include/c++/3.3.1/bits/stl_iterator.h ****       */
 119:h:/6261A/11CW1352MP_BIRD61A_11C_V33_GPRS_MMI/Tools/MinGW/include/c++/3.3.1/bits/stl_iterator.h ****       explicit 
 120:h:/6261A/11CW1352MP_BIRD61A_11C_V33_GPRS_MMI/Tools/MinGW/include/c++/3.3.1/bits/stl_iterator.h ****       reverse_iterator(iterator_type __x) : current(__x) { }
 121:h:/6261A/11CW1352MP_BIRD61A_11C_V33_GPRS_MMI/Tools/MinGW/include/c++/3.3.1/bits/stl_iterator.h **** 
 122:h:/6261A/11CW1352MP_BIRD61A_11C_V33_GPRS_MMI/Tools/MinGW/include/c++/3.3.1/bits/stl_iterator.h ****       /**
 123:h:/6261A/11CW1352MP_BIRD61A_11C_V33_GPRS_MMI/Tools/MinGW/include/c++/3.3.1/bits/stl_iterator.h ****        *  The copy constructor is normal.
 124:h:/6261A/11CW1352MP_BIRD61A_11C_V33_GPRS_MMI/Tools/MinGW/include/c++/3.3.1/bits/stl_iterator.h ****       */
 125:h:/6261A/11CW1352MP_BIRD61A_11C_V33_GPRS_MMI/Tools/MinGW/include/c++/3.3.1/bits/stl_iterator.h ****       reverse_iterator(const reverse_iterator& __x) 
 126:h:/6261A/11CW1352MP_BIRD61A_11C_V33_GPRS_MMI/Tools/MinGW/include/c++/3.3.1/bits/stl_iterator.h ****       : current(__x.current) { }
 127:h:/6261A/11CW1352MP_BIRD61A_11C_V33_GPRS_MMI/Tools/MinGW/include/c++/3.3.1/bits/stl_iterator.h **** 
 128:h:/6261A/11CW1352MP_BIRD61A_11C_V33_GPRS_MMI/Tools/MinGW/include/c++/3.3.1/bits/stl_iterator.h ****       /**
 129:h:/6261A/11CW1352MP_BIRD61A_11C_V33_GPRS_MMI/Tools/MinGW/include/c++/3.3.1/bits/stl_iterator.h ****        *  A reverse_iterator across other types can be copied in the normal
 130:h:/6261A/11CW1352MP_BIRD61A_11C_V33_GPRS_MMI/Tools/MinGW/include/c++/3.3.1/bits/stl_iterator.h ****        *  fashion.
 131:h:/6261A/11CW1352MP_BIRD61A_11C_V33_GPRS_MMI/Tools/MinGW/include/c++/3.3.1/bits/stl_iterator.h ****       */
 132:h:/6261A/11CW1352MP_BIRD61A_11C_V33_GPRS_MMI/Tools/MinGW/include/c++/3.3.1/bits/stl_iterator.h ****       template<typename _Iter>
 133:h:/6261A/11CW1352MP_BIRD61A_11C_V33_GPRS_MMI/Tools/MinGW/include/c++/3.3.1/bits/stl_iterator.h ****         reverse_iterator(const reverse_iterator<_Iter>& __x)
 134:h:/6261A/11CW1352MP_BIRD61A_11C_V33_GPRS_MMI/Tools/MinGW/include/c++/3.3.1/bits/stl_iterator.h **** 	: current(__x.base()) { }
 135:h:/6261A/11CW1352MP_BIRD61A_11C_V33_GPRS_MMI/Tools/MinGW/include/c++/3.3.1/bits/stl_iterator.h ****     
 136:h:/6261A/11CW1352MP_BIRD61A_11C_V33_GPRS_MMI/Tools/MinGW/include/c++/3.3.1/bits/stl_iterator.h ****       /**
 137:h:/6261A/11CW1352MP_BIRD61A_11C_V33_GPRS_MMI/Tools/MinGW/include/c++/3.3.1/bits/stl_iterator.h ****        *  @return  @c current, the %iterator used for underlying work.
 138:h:/6261A/11CW1352MP_BIRD61A_11C_V33_GPRS_MMI/Tools/MinGW/include/c++/3.3.1/bits/stl_iterator.h ****       */
 139:h:/6261A/11CW1352MP_BIRD61A_11C_V33_GPRS_MMI/Tools/MinGW/include/c++/3.3.1/bits/stl_iterator.h ****       iterator_type 
 140:h:/6261A/11CW1352MP_BIRD61A_11C_V33_GPRS_MMI/Tools/MinGW/include/c++/3.3.1/bits/stl_iterator.h ****       base() const { return current; }
 141:h:/6261A/11CW1352MP_BIRD61A_11C_V33_GPRS_MMI/Tools/MinGW/include/c++/3.3.1/bits/stl_iterator.h **** 
 142:h:/6261A/11CW1352MP_BIRD61A_11C_V33_GPRS_MMI/Tools/MinGW/include/c++/3.3.1/bits/stl_iterator.h ****       /**
 143:h:/6261A/11CW1352MP_BIRD61A_11C_V33_GPRS_MMI/Tools/MinGW/include/c++/3.3.1/bits/stl_iterator.h ****        *  @return  TODO
 144:h:/6261A/11CW1352MP_BIRD61A_11C_V33_GPRS_MMI/Tools/MinGW/include/c++/3.3.1/bits/stl_iterator.h ****        *
 145:h:/6261A/11CW1352MP_BIRD61A_11C_V33_GPRS_MMI/Tools/MinGW/include/c++/3.3.1/bits/stl_iterator.h ****        *  @doctodo
 146:h:/6261A/11CW1352MP_BIRD61A_11C_V33_GPRS_MMI/Tools/MinGW/include/c++/3.3.1/bits/stl_iterator.h ****       */
 147:h:/6261A/11CW1352MP_BIRD61A_11C_V33_GPRS_MMI/Tools/MinGW/include/c++/3.3.1/bits/stl_iterator.h ****       reference 
 148:h:/6261A/11CW1352MP_BIRD61A_11C_V33_GPRS_MMI/Tools/MinGW/include/c++/3.3.1/bits/stl_iterator.h ****       operator*() const 
 149:h:/6261A/11CW1352MP_BIRD61A_11C_V33_GPRS_MMI/Tools/MinGW/include/c++/3.3.1/bits/stl_iterator.h ****       {
 150:h:/6261A/11CW1352MP_BIRD61A_11C_V33_GPRS_MMI/Tools/MinGW/include/c++/3.3.1/bits/stl_iterator.h **** 	_Iterator __tmp = current;
 151:h:/6261A/11CW1352MP_BIRD61A_11C_V33_GPRS_MMI/Tools/MinGW/include/c++/3.3.1/bits/stl_iterator.h **** 	return *--__tmp;
 152:h:/6261A/11CW1352MP_BIRD61A_11C_V33_GPRS_MMI/Tools/MinGW/include/c++/3.3.1/bits/stl_iterator.h ****       }
 153:h:/6261A/11CW1352MP_BIRD61A_11C_V33_GPRS_MMI/Tools/MinGW/include/c++/3.3.1/bits/stl_iterator.h **** 
 154:h:/6261A/11CW1352MP_BIRD61A_11C_V33_GPRS_MMI/Tools/MinGW/include/c++/3.3.1/bits/stl_iterator.h ****       /**
 155:h:/6261A/11CW1352MP_BIRD61A_11C_V33_GPRS_MMI/Tools/MinGW/include/c++/3.3.1/bits/stl_iterator.h ****        *  @return  TODO
 156:h:/6261A/11CW1352MP_BIRD61A_11C_V33_GPRS_MMI/Tools/MinGW/include/c++/3.3.1/bits/stl_iterator.h ****        *
 157:h:/6261A/11CW1352MP_BIRD61A_11C_V33_GPRS_MMI/Tools/MinGW/include/c++/3.3.1/bits/stl_iterator.h ****        *  @doctodo
 158:h:/6261A/11CW1352MP_BIRD61A_11C_V33_GPRS_MMI/Tools/MinGW/include/c++/3.3.1/bits/stl_iterator.h ****       */
GAS LISTING h:/6261A/11CW1352MP_BIRD61A_11C_V33_GPRS_MMI/plutommi/Customer/ResGenerator/gcctmp/ccEHcaaa.s 			page 80


 159:h:/6261A/11CW1352MP_BIRD61A_11C_V33_GPRS_MMI/Tools/MinGW/include/c++/3.3.1/bits/stl_iterator.h ****       pointer 
 160:h:/6261A/11CW1352MP_BIRD61A_11C_V33_GPRS_MMI/Tools/MinGW/include/c++/3.3.1/bits/stl_iterator.h ****       operator->() const { return &(operator*()); }
 161:h:/6261A/11CW1352MP_BIRD61A_11C_V33_GPRS_MMI/Tools/MinGW/include/c++/3.3.1/bits/stl_iterator.h **** 
 162:h:/6261A/11CW1352MP_BIRD61A_11C_V33_GPRS_MMI/Tools/MinGW/include/c++/3.3.1/bits/stl_iterator.h ****       /**
 163:h:/6261A/11CW1352MP_BIRD61A_11C_V33_GPRS_MMI/Tools/MinGW/include/c++/3.3.1/bits/stl_iterator.h ****        *  @return  TODO
 164:h:/6261A/11CW1352MP_BIRD61A_11C_V33_GPRS_MMI/Tools/MinGW/include/c++/3.3.1/bits/stl_iterator.h ****        *
 165:h:/6261A/11CW1352MP_BIRD61A_11C_V33_GPRS_MMI/Tools/MinGW/include/c++/3.3.1/bits/stl_iterator.h ****        *  @doctodo
 166:h:/6261A/11CW1352MP_BIRD61A_11C_V33_GPRS_MMI/Tools/MinGW/include/c++/3.3.1/bits/stl_iterator.h ****       */
 167:h:/6261A/11CW1352MP_BIRD61A_11C_V33_GPRS_MMI/Tools/MinGW/include/c++/3.3.1/bits/stl_iterator.h ****       reverse_iterator& 
 168:h:/6261A/11CW1352MP_BIRD61A_11C_V33_GPRS_MMI/Tools/MinGW/include/c++/3.3.1/bits/stl_iterator.h ****       operator++() 
 169:h:/6261A/11CW1352MP_BIRD61A_11C_V33_GPRS_MMI/Tools/MinGW/include/c++/3.3.1/bits/stl_iterator.h ****       {
 170:h:/6261A/11CW1352MP_BIRD61A_11C_V33_GPRS_MMI/Tools/MinGW/include/c++/3.3.1/bits/stl_iterator.h **** 	--current;
 171:h:/6261A/11CW1352MP_BIRD61A_11C_V33_GPRS_MMI/Tools/MinGW/include/c++/3.3.1/bits/stl_iterator.h **** 	return *this;
 172:h:/6261A/11CW1352MP_BIRD61A_11C_V33_GPRS_MMI/Tools/MinGW/include/c++/3.3.1/bits/stl_iterator.h ****       }
 173:h:/6261A/11CW1352MP_BIRD61A_11C_V33_GPRS_MMI/Tools/MinGW/include/c++/3.3.1/bits/stl_iterator.h **** 
 174:h:/6261A/11CW1352MP_BIRD61A_11C_V33_GPRS_MMI/Tools/MinGW/include/c++/3.3.1/bits/stl_iterator.h ****       /**
 175:h:/6261A/11CW1352MP_BIRD61A_11C_V33_GPRS_MMI/Tools/MinGW/include/c++/3.3.1/bits/stl_iterator.h ****        *  @return  TODO
 176:h:/6261A/11CW1352MP_BIRD61A_11C_V33_GPRS_MMI/Tools/MinGW/include/c++/3.3.1/bits/stl_iterator.h ****        *
 177:h:/6261A/11CW1352MP_BIRD61A_11C_V33_GPRS_MMI/Tools/MinGW/include/c++/3.3.1/bits/stl_iterator.h ****        *  @doctodo
 178:h:/6261A/11CW1352MP_BIRD61A_11C_V33_GPRS_MMI/Tools/MinGW/include/c++/3.3.1/bits/stl_iterator.h ****       */
 179:h:/6261A/11CW1352MP_BIRD61A_11C_V33_GPRS_MMI/Tools/MinGW/include/c++/3.3.1/bits/stl_iterator.h ****       reverse_iterator 
 180:h:/6261A/11CW1352MP_BIRD61A_11C_V33_GPRS_MMI/Tools/MinGW/include/c++/3.3.1/bits/stl_iterator.h ****       operator++(int) 
 181:h:/6261A/11CW1352MP_BIRD61A_11C_V33_GPRS_MMI/Tools/MinGW/include/c++/3.3.1/bits/stl_iterator.h ****       {
 182:h:/6261A/11CW1352MP_BIRD61A_11C_V33_GPRS_MMI/Tools/MinGW/include/c++/3.3.1/bits/stl_iterator.h **** 	reverse_iterator __tmp = *this;
 183:h:/6261A/11CW1352MP_BIRD61A_11C_V33_GPRS_MMI/Tools/MinGW/include/c++/3.3.1/bits/stl_iterator.h **** 	--current;
 184:h:/6261A/11CW1352MP_BIRD61A_11C_V33_GPRS_MMI/Tools/MinGW/include/c++/3.3.1/bits/stl_iterator.h **** 	return __tmp;
 185:h:/6261A/11CW1352MP_BIRD61A_11C_V33_GPRS_MMI/Tools/MinGW/include/c++/3.3.1/bits/stl_iterator.h ****       }
 186:h:/6261A/11CW1352MP_BIRD61A_11C_V33_GPRS_MMI/Tools/MinGW/include/c++/3.3.1/bits/stl_iterator.h **** 
 187:h:/6261A/11CW1352MP_BIRD61A_11C_V33_GPRS_MMI/Tools/MinGW/include/c++/3.3.1/bits/stl_iterator.h ****       /**
 188:h:/6261A/11CW1352MP_BIRD61A_11C_V33_GPRS_MMI/Tools/MinGW/include/c++/3.3.1/bits/stl_iterator.h ****        *  @return  TODO
 189:h:/6261A/11CW1352MP_BIRD61A_11C_V33_GPRS_MMI/Tools/MinGW/include/c++/3.3.1/bits/stl_iterator.h ****        *
 190:h:/6261A/11CW1352MP_BIRD61A_11C_V33_GPRS_MMI/Tools/MinGW/include/c++/3.3.1/bits/stl_iterator.h ****        *  @doctodo
 191:h:/6261A/11CW1352MP_BIRD61A_11C_V33_GPRS_MMI/Tools/MinGW/include/c++/3.3.1/bits/stl_iterator.h ****       */
 192:h:/6261A/11CW1352MP_BIRD61A_11C_V33_GPRS_MMI/Tools/MinGW/include/c++/3.3.1/bits/stl_iterator.h ****       reverse_iterator& 
 193:h:/6261A/11CW1352MP_BIRD61A_11C_V33_GPRS_MMI/Tools/MinGW/include/c++/3.3.1/bits/stl_iterator.h ****       operator--() 
 194:h:/6261A/11CW1352MP_BIRD61A_11C_V33_GPRS_MMI/Tools/MinGW/include/c++/3.3.1/bits/stl_iterator.h ****       {
 195:h:/6261A/11CW1352MP_BIRD61A_11C_V33_GPRS_MMI/Tools/MinGW/include/c++/3.3.1/bits/stl_iterator.h **** 	++current;
 196:h:/6261A/11CW1352MP_BIRD61A_11C_V33_GPRS_MMI/Tools/MinGW/include/c++/3.3.1/bits/stl_iterator.h **** 	return *this;
 197:h:/6261A/11CW1352MP_BIRD61A_11C_V33_GPRS_MMI/Tools/MinGW/include/c++/3.3.1/bits/stl_iterator.h ****       }
 198:h:/6261A/11CW1352MP_BIRD61A_11C_V33_GPRS_MMI/Tools/MinGW/include/c++/3.3.1/bits/stl_iterator.h **** 
 199:h:/6261A/11CW1352MP_BIRD61A_11C_V33_GPRS_MMI/Tools/MinGW/include/c++/3.3.1/bits/stl_iterator.h ****       /**
 200:h:/6261A/11CW1352MP_BIRD61A_11C_V33_GPRS_MMI/Tools/MinGW/include/c++/3.3.1/bits/stl_iterator.h ****        *  @return  TODO
 201:h:/6261A/11CW1352MP_BIRD61A_11C_V33_GPRS_MMI/Tools/MinGW/include/c++/3.3.1/bits/stl_iterator.h ****        *
 202:h:/6261A/11CW1352MP_BIRD61A_11C_V33_GPRS_MMI/Tools/MinGW/include/c++/3.3.1/bits/stl_iterator.h ****        *  @doctodo
 203:h:/6261A/11CW1352MP_BIRD61A_11C_V33_GPRS_MMI/Tools/MinGW/include/c++/3.3.1/bits/stl_iterator.h ****       */
 204:h:/6261A/11CW1352MP_BIRD61A_11C_V33_GPRS_MMI/Tools/MinGW/include/c++/3.3.1/bits/stl_iterator.h ****       reverse_iterator operator--(int) 
 205:h:/6261A/11CW1352MP_BIRD61A_11C_V33_GPRS_MMI/Tools/MinGW/include/c++/3.3.1/bits/stl_iterator.h ****       {
 206:h:/6261A/11CW1352MP_BIRD61A_11C_V33_GPRS_MMI/Tools/MinGW/include/c++/3.3.1/bits/stl_iterator.h **** 	reverse_iterator __tmp = *this;
 207:h:/6261A/11CW1352MP_BIRD61A_11C_V33_GPRS_MMI/Tools/MinGW/include/c++/3.3.1/bits/stl_iterator.h **** 	++current;
 208:h:/6261A/11CW1352MP_BIRD61A_11C_V33_GPRS_MMI/Tools/MinGW/include/c++/3.3.1/bits/stl_iterator.h **** 	return __tmp;
 209:h:/6261A/11CW1352MP_BIRD61A_11C_V33_GPRS_MMI/Tools/MinGW/include/c++/3.3.1/bits/stl_iterator.h ****       }
 210:h:/6261A/11CW1352MP_BIRD61A_11C_V33_GPRS_MMI/Tools/MinGW/include/c++/3.3.1/bits/stl_iterator.h ****       
 211:h:/6261A/11CW1352MP_BIRD61A_11C_V33_GPRS_MMI/Tools/MinGW/include/c++/3.3.1/bits/stl_iterator.h ****       /**
 212:h:/6261A/11CW1352MP_BIRD61A_11C_V33_GPRS_MMI/Tools/MinGW/include/c++/3.3.1/bits/stl_iterator.h ****        *  @return  TODO
 213:h:/6261A/11CW1352MP_BIRD61A_11C_V33_GPRS_MMI/Tools/MinGW/include/c++/3.3.1/bits/stl_iterator.h ****        *
 214:h:/6261A/11CW1352MP_BIRD61A_11C_V33_GPRS_MMI/Tools/MinGW/include/c++/3.3.1/bits/stl_iterator.h ****        *  @doctodo
 215:h:/6261A/11CW1352MP_BIRD61A_11C_V33_GPRS_MMI/Tools/MinGW/include/c++/3.3.1/bits/stl_iterator.h ****       */
GAS LISTING h:/6261A/11CW1352MP_BIRD61A_11C_V33_GPRS_MMI/plutommi/Customer/ResGenerator/gcctmp/ccEHcaaa.s 			page 81


 216:h:/6261A/11CW1352MP_BIRD61A_11C_V33_GPRS_MMI/Tools/MinGW/include/c++/3.3.1/bits/stl_iterator.h ****       reverse_iterator 
 217:h:/6261A/11CW1352MP_BIRD61A_11C_V33_GPRS_MMI/Tools/MinGW/include/c++/3.3.1/bits/stl_iterator.h ****       operator+(difference_type __n) const 
 218:h:/6261A/11CW1352MP_BIRD61A_11C_V33_GPRS_MMI/Tools/MinGW/include/c++/3.3.1/bits/stl_iterator.h ****       { return reverse_iterator(current - __n); }
 219:h:/6261A/11CW1352MP_BIRD61A_11C_V33_GPRS_MMI/Tools/MinGW/include/c++/3.3.1/bits/stl_iterator.h **** 
 220:h:/6261A/11CW1352MP_BIRD61A_11C_V33_GPRS_MMI/Tools/MinGW/include/c++/3.3.1/bits/stl_iterator.h ****       /**
 221:h:/6261A/11CW1352MP_BIRD61A_11C_V33_GPRS_MMI/Tools/MinGW/include/c++/3.3.1/bits/stl_iterator.h ****        *  @return  TODO
 222:h:/6261A/11CW1352MP_BIRD61A_11C_V33_GPRS_MMI/Tools/MinGW/include/c++/3.3.1/bits/stl_iterator.h ****        *
 223:h:/6261A/11CW1352MP_BIRD61A_11C_V33_GPRS_MMI/Tools/MinGW/include/c++/3.3.1/bits/stl_iterator.h ****        *  @doctodo
 224:h:/6261A/11CW1352MP_BIRD61A_11C_V33_GPRS_MMI/Tools/MinGW/include/c++/3.3.1/bits/stl_iterator.h ****       */
 225:h:/6261A/11CW1352MP_BIRD61A_11C_V33_GPRS_MMI/Tools/MinGW/include/c++/3.3.1/bits/stl_iterator.h ****       reverse_iterator& 
 226:h:/6261A/11CW1352MP_BIRD61A_11C_V33_GPRS_MMI/Tools/MinGW/include/c++/3.3.1/bits/stl_iterator.h ****       operator+=(difference_type __n) 
 227:h:/6261A/11CW1352MP_BIRD61A_11C_V33_GPRS_MMI/Tools/MinGW/include/c++/3.3.1/bits/stl_iterator.h ****       {
 228:h:/6261A/11CW1352MP_BIRD61A_11C_V33_GPRS_MMI/Tools/MinGW/include/c++/3.3.1/bits/stl_iterator.h **** 	current -= __n;
 229:h:/6261A/11CW1352MP_BIRD61A_11C_V33_GPRS_MMI/Tools/MinGW/include/c++/3.3.1/bits/stl_iterator.h **** 	return *this;
 230:h:/6261A/11CW1352MP_BIRD61A_11C_V33_GPRS_MMI/Tools/MinGW/include/c++/3.3.1/bits/stl_iterator.h ****       }
 231:h:/6261A/11CW1352MP_BIRD61A_11C_V33_GPRS_MMI/Tools/MinGW/include/c++/3.3.1/bits/stl_iterator.h **** 
 232:h:/6261A/11CW1352MP_BIRD61A_11C_V33_GPRS_MMI/Tools/MinGW/include/c++/3.3.1/bits/stl_iterator.h ****       /**
 233:h:/6261A/11CW1352MP_BIRD61A_11C_V33_GPRS_MMI/Tools/MinGW/include/c++/3.3.1/bits/stl_iterator.h ****        *  @return  TODO
 234:h:/6261A/11CW1352MP_BIRD61A_11C_V33_GPRS_MMI/Tools/MinGW/include/c++/3.3.1/bits/stl_iterator.h ****        *
 235:h:/6261A/11CW1352MP_BIRD61A_11C_V33_GPRS_MMI/Tools/MinGW/include/c++/3.3.1/bits/stl_iterator.h ****        *  @doctodo
 236:h:/6261A/11CW1352MP_BIRD61A_11C_V33_GPRS_MMI/Tools/MinGW/include/c++/3.3.1/bits/stl_iterator.h ****       */
 237:h:/6261A/11CW1352MP_BIRD61A_11C_V33_GPRS_MMI/Tools/MinGW/include/c++/3.3.1/bits/stl_iterator.h ****       reverse_iterator 
 238:h:/6261A/11CW1352MP_BIRD61A_11C_V33_GPRS_MMI/Tools/MinGW/include/c++/3.3.1/bits/stl_iterator.h ****       operator-(difference_type __n) const 
 239:h:/6261A/11CW1352MP_BIRD61A_11C_V33_GPRS_MMI/Tools/MinGW/include/c++/3.3.1/bits/stl_iterator.h ****       { return reverse_iterator(current + __n); }
 240:h:/6261A/11CW1352MP_BIRD61A_11C_V33_GPRS_MMI/Tools/MinGW/include/c++/3.3.1/bits/stl_iterator.h **** 
 241:h:/6261A/11CW1352MP_BIRD61A_11C_V33_GPRS_MMI/Tools/MinGW/include/c++/3.3.1/bits/stl_iterator.h ****       /**
 242:h:/6261A/11CW1352MP_BIRD61A_11C_V33_GPRS_MMI/Tools/MinGW/include/c++/3.3.1/bits/stl_iterator.h ****        *  @return  TODO
 243:h:/6261A/11CW1352MP_BIRD61A_11C_V33_GPRS_MMI/Tools/MinGW/include/c++/3.3.1/bits/stl_iterator.h ****        *
 244:h:/6261A/11CW1352MP_BIRD61A_11C_V33_GPRS_MMI/Tools/MinGW/include/c++/3.3.1/bits/stl_iterator.h ****        *  @doctodo
 245:h:/6261A/11CW1352MP_BIRD61A_11C_V33_GPRS_MMI/Tools/MinGW/include/c++/3.3.1/bits/stl_iterator.h ****       */
 246:h:/6261A/11CW1352MP_BIRD61A_11C_V33_GPRS_MMI/Tools/MinGW/include/c++/3.3.1/bits/stl_iterator.h ****       reverse_iterator& 
 247:h:/6261A/11CW1352MP_BIRD61A_11C_V33_GPRS_MMI/Tools/MinGW/include/c++/3.3.1/bits/stl_iterator.h ****       operator-=(difference_type __n) 
 248:h:/6261A/11CW1352MP_BIRD61A_11C_V33_GPRS_MMI/Tools/MinGW/include/c++/3.3.1/bits/stl_iterator.h ****       {
 249:h:/6261A/11CW1352MP_BIRD61A_11C_V33_GPRS_MMI/Tools/MinGW/include/c++/3.3.1/bits/stl_iterator.h **** 	current += __n;
 250:h:/6261A/11CW1352MP_BIRD61A_11C_V33_GPRS_MMI/Tools/MinGW/include/c++/3.3.1/bits/stl_iterator.h **** 	return *this;
 251:h:/6261A/11CW1352MP_BIRD61A_11C_V33_GPRS_MMI/Tools/MinGW/include/c++/3.3.1/bits/stl_iterator.h ****       }
 252:h:/6261A/11CW1352MP_BIRD61A_11C_V33_GPRS_MMI/Tools/MinGW/include/c++/3.3.1/bits/stl_iterator.h **** 
 253:h:/6261A/11CW1352MP_BIRD61A_11C_V33_GPRS_MMI/Tools/MinGW/include/c++/3.3.1/bits/stl_iterator.h ****       /**
 254:h:/6261A/11CW1352MP_BIRD61A_11C_V33_GPRS_MMI/Tools/MinGW/include/c++/3.3.1/bits/stl_iterator.h ****        *  @return  TODO
 255:h:/6261A/11CW1352MP_BIRD61A_11C_V33_GPRS_MMI/Tools/MinGW/include/c++/3.3.1/bits/stl_iterator.h ****        *
 256:h:/6261A/11CW1352MP_BIRD61A_11C_V33_GPRS_MMI/Tools/MinGW/include/c++/3.3.1/bits/stl_iterator.h ****        *  @doctodo
 257:h:/6261A/11CW1352MP_BIRD61A_11C_V33_GPRS_MMI/Tools/MinGW/include/c++/3.3.1/bits/stl_iterator.h ****       */
 258:h:/6261A/11CW1352MP_BIRD61A_11C_V33_GPRS_MMI/Tools/MinGW/include/c++/3.3.1/bits/stl_iterator.h ****       reference 
 259:h:/6261A/11CW1352MP_BIRD61A_11C_V33_GPRS_MMI/Tools/MinGW/include/c++/3.3.1/bits/stl_iterator.h ****       operator[](difference_type __n) const { return *(*this + __n); }  
 260:h:/6261A/11CW1352MP_BIRD61A_11C_V33_GPRS_MMI/Tools/MinGW/include/c++/3.3.1/bits/stl_iterator.h ****     }; 
 261:h:/6261A/11CW1352MP_BIRD61A_11C_V33_GPRS_MMI/Tools/MinGW/include/c++/3.3.1/bits/stl_iterator.h ****  
 262:h:/6261A/11CW1352MP_BIRD61A_11C_V33_GPRS_MMI/Tools/MinGW/include/c++/3.3.1/bits/stl_iterator.h ****   //@{
 263:h:/6261A/11CW1352MP_BIRD61A_11C_V33_GPRS_MMI/Tools/MinGW/include/c++/3.3.1/bits/stl_iterator.h ****   /**
 264:h:/6261A/11CW1352MP_BIRD61A_11C_V33_GPRS_MMI/Tools/MinGW/include/c++/3.3.1/bits/stl_iterator.h ****    *  @param  x  A %reverse_iterator.
 265:h:/6261A/11CW1352MP_BIRD61A_11C_V33_GPRS_MMI/Tools/MinGW/include/c++/3.3.1/bits/stl_iterator.h ****    *  @param  y  A %reverse_iterator.
 266:h:/6261A/11CW1352MP_BIRD61A_11C_V33_GPRS_MMI/Tools/MinGW/include/c++/3.3.1/bits/stl_iterator.h ****    *  @return  A simple bool.
 267:h:/6261A/11CW1352MP_BIRD61A_11C_V33_GPRS_MMI/Tools/MinGW/include/c++/3.3.1/bits/stl_iterator.h ****    *
 268:h:/6261A/11CW1352MP_BIRD61A_11C_V33_GPRS_MMI/Tools/MinGW/include/c++/3.3.1/bits/stl_iterator.h ****    *  Reverse iterators forward many operations to their underlying base()
 269:h:/6261A/11CW1352MP_BIRD61A_11C_V33_GPRS_MMI/Tools/MinGW/include/c++/3.3.1/bits/stl_iterator.h ****    *  iterators.  Others are implemented in terms of one another.
 270:h:/6261A/11CW1352MP_BIRD61A_11C_V33_GPRS_MMI/Tools/MinGW/include/c++/3.3.1/bits/stl_iterator.h ****    *
 271:h:/6261A/11CW1352MP_BIRD61A_11C_V33_GPRS_MMI/Tools/MinGW/include/c++/3.3.1/bits/stl_iterator.h ****   */
 272:h:/6261A/11CW1352MP_BIRD61A_11C_V33_GPRS_MMI/Tools/MinGW/include/c++/3.3.1/bits/stl_iterator.h ****   template<typename _Iterator>
GAS LISTING h:/6261A/11CW1352MP_BIRD61A_11C_V33_GPRS_MMI/plutommi/Customer/ResGenerator/gcctmp/ccEHcaaa.s 			page 82


 273:h:/6261A/11CW1352MP_BIRD61A_11C_V33_GPRS_MMI/Tools/MinGW/include/c++/3.3.1/bits/stl_iterator.h ****     inline bool 
 274:h:/6261A/11CW1352MP_BIRD61A_11C_V33_GPRS_MMI/Tools/MinGW/include/c++/3.3.1/bits/stl_iterator.h ****     operator==(const reverse_iterator<_Iterator>& __x, 
 275:h:/6261A/11CW1352MP_BIRD61A_11C_V33_GPRS_MMI/Tools/MinGW/include/c++/3.3.1/bits/stl_iterator.h **** 	       const reverse_iterator<_Iterator>& __y) 
 276:h:/6261A/11CW1352MP_BIRD61A_11C_V33_GPRS_MMI/Tools/MinGW/include/c++/3.3.1/bits/stl_iterator.h ****     { return __x.base() == __y.base(); }
 277:h:/6261A/11CW1352MP_BIRD61A_11C_V33_GPRS_MMI/Tools/MinGW/include/c++/3.3.1/bits/stl_iterator.h **** 
 278:h:/6261A/11CW1352MP_BIRD61A_11C_V33_GPRS_MMI/Tools/MinGW/include/c++/3.3.1/bits/stl_iterator.h ****   template<typename _Iterator>
 279:h:/6261A/11CW1352MP_BIRD61A_11C_V33_GPRS_MMI/Tools/MinGW/include/c++/3.3.1/bits/stl_iterator.h ****     inline bool 
 280:h:/6261A/11CW1352MP_BIRD61A_11C_V33_GPRS_MMI/Tools/MinGW/include/c++/3.3.1/bits/stl_iterator.h ****     operator<(const reverse_iterator<_Iterator>& __x, 
 281:h:/6261A/11CW1352MP_BIRD61A_11C_V33_GPRS_MMI/Tools/MinGW/include/c++/3.3.1/bits/stl_iterator.h **** 	      const reverse_iterator<_Iterator>& __y) 
 282:h:/6261A/11CW1352MP_BIRD61A_11C_V33_GPRS_MMI/Tools/MinGW/include/c++/3.3.1/bits/stl_iterator.h ****     { return __y.base() < __x.base(); }
 283:h:/6261A/11CW1352MP_BIRD61A_11C_V33_GPRS_MMI/Tools/MinGW/include/c++/3.3.1/bits/stl_iterator.h **** 
 284:h:/6261A/11CW1352MP_BIRD61A_11C_V33_GPRS_MMI/Tools/MinGW/include/c++/3.3.1/bits/stl_iterator.h ****   template<typename _Iterator>
 285:h:/6261A/11CW1352MP_BIRD61A_11C_V33_GPRS_MMI/Tools/MinGW/include/c++/3.3.1/bits/stl_iterator.h ****     inline bool 
 286:h:/6261A/11CW1352MP_BIRD61A_11C_V33_GPRS_MMI/Tools/MinGW/include/c++/3.3.1/bits/stl_iterator.h ****     operator!=(const reverse_iterator<_Iterator>& __x, 
 287:h:/6261A/11CW1352MP_BIRD61A_11C_V33_GPRS_MMI/Tools/MinGW/include/c++/3.3.1/bits/stl_iterator.h **** 	       const reverse_iterator<_Iterator>& __y) 
 288:h:/6261A/11CW1352MP_BIRD61A_11C_V33_GPRS_MMI/Tools/MinGW/include/c++/3.3.1/bits/stl_iterator.h ****     { return !(__x == __y); }
 289:h:/6261A/11CW1352MP_BIRD61A_11C_V33_GPRS_MMI/Tools/MinGW/include/c++/3.3.1/bits/stl_iterator.h **** 
 290:h:/6261A/11CW1352MP_BIRD61A_11C_V33_GPRS_MMI/Tools/MinGW/include/c++/3.3.1/bits/stl_iterator.h ****   template<typename _Iterator>
 291:h:/6261A/11CW1352MP_BIRD61A_11C_V33_GPRS_MMI/Tools/MinGW/include/c++/3.3.1/bits/stl_iterator.h ****     inline bool 
 292:h:/6261A/11CW1352MP_BIRD61A_11C_V33_GPRS_MMI/Tools/MinGW/include/c++/3.3.1/bits/stl_iterator.h ****     operator>(const reverse_iterator<_Iterator>& __x, 
 293:h:/6261A/11CW1352MP_BIRD61A_11C_V33_GPRS_MMI/Tools/MinGW/include/c++/3.3.1/bits/stl_iterator.h **** 	      const reverse_iterator<_Iterator>& __y) 
 294:h:/6261A/11CW1352MP_BIRD61A_11C_V33_GPRS_MMI/Tools/MinGW/include/c++/3.3.1/bits/stl_iterator.h ****     { return __y < __x; }
 295:h:/6261A/11CW1352MP_BIRD61A_11C_V33_GPRS_MMI/Tools/MinGW/include/c++/3.3.1/bits/stl_iterator.h **** 
 296:h:/6261A/11CW1352MP_BIRD61A_11C_V33_GPRS_MMI/Tools/MinGW/include/c++/3.3.1/bits/stl_iterator.h ****   template<typename _Iterator>
 297:h:/6261A/11CW1352MP_BIRD61A_11C_V33_GPRS_MMI/Tools/MinGW/include/c++/3.3.1/bits/stl_iterator.h ****     inline bool 
 298:h:/6261A/11CW1352MP_BIRD61A_11C_V33_GPRS_MMI/Tools/MinGW/include/c++/3.3.1/bits/stl_iterator.h ****     operator<=(const reverse_iterator<_Iterator>& __x, 
 299:h:/6261A/11CW1352MP_BIRD61A_11C_V33_GPRS_MMI/Tools/MinGW/include/c++/3.3.1/bits/stl_iterator.h **** 		const reverse_iterator<_Iterator>& __y) 
 300:h:/6261A/11CW1352MP_BIRD61A_11C_V33_GPRS_MMI/Tools/MinGW/include/c++/3.3.1/bits/stl_iterator.h ****     { return !(__y < __x); }
 301:h:/6261A/11CW1352MP_BIRD61A_11C_V33_GPRS_MMI/Tools/MinGW/include/c++/3.3.1/bits/stl_iterator.h **** 
 302:h:/6261A/11CW1352MP_BIRD61A_11C_V33_GPRS_MMI/Tools/MinGW/include/c++/3.3.1/bits/stl_iterator.h ****   template<typename _Iterator>
 303:h:/6261A/11CW1352MP_BIRD61A_11C_V33_GPRS_MMI/Tools/MinGW/include/c++/3.3.1/bits/stl_iterator.h ****     inline bool 
 304:h:/6261A/11CW1352MP_BIRD61A_11C_V33_GPRS_MMI/Tools/MinGW/include/c++/3.3.1/bits/stl_iterator.h ****     operator>=(const reverse_iterator<_Iterator>& __x, 
 305:h:/6261A/11CW1352MP_BIRD61A_11C_V33_GPRS_MMI/Tools/MinGW/include/c++/3.3.1/bits/stl_iterator.h **** 	       const reverse_iterator<_Iterator>& __y) 
 306:h:/6261A/11CW1352MP_BIRD61A_11C_V33_GPRS_MMI/Tools/MinGW/include/c++/3.3.1/bits/stl_iterator.h ****     { return !(__x < __y); }
 307:h:/6261A/11CW1352MP_BIRD61A_11C_V33_GPRS_MMI/Tools/MinGW/include/c++/3.3.1/bits/stl_iterator.h **** 
 308:h:/6261A/11CW1352MP_BIRD61A_11C_V33_GPRS_MMI/Tools/MinGW/include/c++/3.3.1/bits/stl_iterator.h ****   template<typename _Iterator>
 309:h:/6261A/11CW1352MP_BIRD61A_11C_V33_GPRS_MMI/Tools/MinGW/include/c++/3.3.1/bits/stl_iterator.h ****     inline typename reverse_iterator<_Iterator>::difference_type
 310:h:/6261A/11CW1352MP_BIRD61A_11C_V33_GPRS_MMI/Tools/MinGW/include/c++/3.3.1/bits/stl_iterator.h ****     operator-(const reverse_iterator<_Iterator>& __x, 
 311:h:/6261A/11CW1352MP_BIRD61A_11C_V33_GPRS_MMI/Tools/MinGW/include/c++/3.3.1/bits/stl_iterator.h **** 	      const reverse_iterator<_Iterator>& __y) 
 312:h:/6261A/11CW1352MP_BIRD61A_11C_V33_GPRS_MMI/Tools/MinGW/include/c++/3.3.1/bits/stl_iterator.h ****     { return __y.base() - __x.base(); }
 313:h:/6261A/11CW1352MP_BIRD61A_11C_V33_GPRS_MMI/Tools/MinGW/include/c++/3.3.1/bits/stl_iterator.h **** 
 314:h:/6261A/11CW1352MP_BIRD61A_11C_V33_GPRS_MMI/Tools/MinGW/include/c++/3.3.1/bits/stl_iterator.h ****   template<typename _Iterator>
 315:h:/6261A/11CW1352MP_BIRD61A_11C_V33_GPRS_MMI/Tools/MinGW/include/c++/3.3.1/bits/stl_iterator.h ****     inline reverse_iterator<_Iterator> 
 316:h:/6261A/11CW1352MP_BIRD61A_11C_V33_GPRS_MMI/Tools/MinGW/include/c++/3.3.1/bits/stl_iterator.h ****     operator+(typename reverse_iterator<_Iterator>::difference_type __n,
 317:h:/6261A/11CW1352MP_BIRD61A_11C_V33_GPRS_MMI/Tools/MinGW/include/c++/3.3.1/bits/stl_iterator.h **** 	      const reverse_iterator<_Iterator>& __x) 
 318:h:/6261A/11CW1352MP_BIRD61A_11C_V33_GPRS_MMI/Tools/MinGW/include/c++/3.3.1/bits/stl_iterator.h ****     { return reverse_iterator<_Iterator>(__x.base() - __n); }
 319:h:/6261A/11CW1352MP_BIRD61A_11C_V33_GPRS_MMI/Tools/MinGW/include/c++/3.3.1/bits/stl_iterator.h ****   //@}
 320:h:/6261A/11CW1352MP_BIRD61A_11C_V33_GPRS_MMI/Tools/MinGW/include/c++/3.3.1/bits/stl_iterator.h **** 
 321:h:/6261A/11CW1352MP_BIRD61A_11C_V33_GPRS_MMI/Tools/MinGW/include/c++/3.3.1/bits/stl_iterator.h ****   // 24.4.2.2.1 back_insert_iterator
 322:h:/6261A/11CW1352MP_BIRD61A_11C_V33_GPRS_MMI/Tools/MinGW/include/c++/3.3.1/bits/stl_iterator.h ****   /**
 323:h:/6261A/11CW1352MP_BIRD61A_11C_V33_GPRS_MMI/Tools/MinGW/include/c++/3.3.1/bits/stl_iterator.h ****    *  @brief  Turns assignment into insertion.
 324:h:/6261A/11CW1352MP_BIRD61A_11C_V33_GPRS_MMI/Tools/MinGW/include/c++/3.3.1/bits/stl_iterator.h ****    *
 325:h:/6261A/11CW1352MP_BIRD61A_11C_V33_GPRS_MMI/Tools/MinGW/include/c++/3.3.1/bits/stl_iterator.h ****    *  These are output iterators, constructed from a container-of-T.
 326:h:/6261A/11CW1352MP_BIRD61A_11C_V33_GPRS_MMI/Tools/MinGW/include/c++/3.3.1/bits/stl_iterator.h ****    *  Assigning a T to the iterator appends it to the container using
 327:h:/6261A/11CW1352MP_BIRD61A_11C_V33_GPRS_MMI/Tools/MinGW/include/c++/3.3.1/bits/stl_iterator.h ****    *  push_back.
 328:h:/6261A/11CW1352MP_BIRD61A_11C_V33_GPRS_MMI/Tools/MinGW/include/c++/3.3.1/bits/stl_iterator.h ****    *
 329:h:/6261A/11CW1352MP_BIRD61A_11C_V33_GPRS_MMI/Tools/MinGW/include/c++/3.3.1/bits/stl_iterator.h ****    *  Tip:  Using the back_inserter function to create these iterators can
GAS LISTING h:/6261A/11CW1352MP_BIRD61A_11C_V33_GPRS_MMI/plutommi/Customer/ResGenerator/gcctmp/ccEHcaaa.s 			page 83


 330:h:/6261A/11CW1352MP_BIRD61A_11C_V33_GPRS_MMI/Tools/MinGW/include/c++/3.3.1/bits/stl_iterator.h ****    *  save typing.
 331:h:/6261A/11CW1352MP_BIRD61A_11C_V33_GPRS_MMI/Tools/MinGW/include/c++/3.3.1/bits/stl_iterator.h ****   */
 332:h:/6261A/11CW1352MP_BIRD61A_11C_V33_GPRS_MMI/Tools/MinGW/include/c++/3.3.1/bits/stl_iterator.h ****   template<typename _Container>
 333:h:/6261A/11CW1352MP_BIRD61A_11C_V33_GPRS_MMI/Tools/MinGW/include/c++/3.3.1/bits/stl_iterator.h ****     class back_insert_iterator 
 334:h:/6261A/11CW1352MP_BIRD61A_11C_V33_GPRS_MMI/Tools/MinGW/include/c++/3.3.1/bits/stl_iterator.h ****     : public iterator<output_iterator_tag, void, void, void, void>
 335:h:/6261A/11CW1352MP_BIRD61A_11C_V33_GPRS_MMI/Tools/MinGW/include/c++/3.3.1/bits/stl_iterator.h ****     {
 336:h:/6261A/11CW1352MP_BIRD61A_11C_V33_GPRS_MMI/Tools/MinGW/include/c++/3.3.1/bits/stl_iterator.h ****     protected:
 337:h:/6261A/11CW1352MP_BIRD61A_11C_V33_GPRS_MMI/Tools/MinGW/include/c++/3.3.1/bits/stl_iterator.h ****       _Container* container;
 338:h:/6261A/11CW1352MP_BIRD61A_11C_V33_GPRS_MMI/Tools/MinGW/include/c++/3.3.1/bits/stl_iterator.h **** 
 339:h:/6261A/11CW1352MP_BIRD61A_11C_V33_GPRS_MMI/Tools/MinGW/include/c++/3.3.1/bits/stl_iterator.h ****     public:
 340:h:/6261A/11CW1352MP_BIRD61A_11C_V33_GPRS_MMI/Tools/MinGW/include/c++/3.3.1/bits/stl_iterator.h ****       /// A nested typedef for the type of whatever container you used.
 341:h:/6261A/11CW1352MP_BIRD61A_11C_V33_GPRS_MMI/Tools/MinGW/include/c++/3.3.1/bits/stl_iterator.h ****       typedef _Container          container_type;
 342:h:/6261A/11CW1352MP_BIRD61A_11C_V33_GPRS_MMI/Tools/MinGW/include/c++/3.3.1/bits/stl_iterator.h ****       
 343:h:/6261A/11CW1352MP_BIRD61A_11C_V33_GPRS_MMI/Tools/MinGW/include/c++/3.3.1/bits/stl_iterator.h ****       /// The only way to create this %iterator is with a container.
 344:h:/6261A/11CW1352MP_BIRD61A_11C_V33_GPRS_MMI/Tools/MinGW/include/c++/3.3.1/bits/stl_iterator.h ****       explicit 
 345:h:/6261A/11CW1352MP_BIRD61A_11C_V33_GPRS_MMI/Tools/MinGW/include/c++/3.3.1/bits/stl_iterator.h ****       back_insert_iterator(_Container& __x) : container(&__x) { }
 346:h:/6261A/11CW1352MP_BIRD61A_11C_V33_GPRS_MMI/Tools/MinGW/include/c++/3.3.1/bits/stl_iterator.h **** 
 347:h:/6261A/11CW1352MP_BIRD61A_11C_V33_GPRS_MMI/Tools/MinGW/include/c++/3.3.1/bits/stl_iterator.h ****       /**
 348:h:/6261A/11CW1352MP_BIRD61A_11C_V33_GPRS_MMI/Tools/MinGW/include/c++/3.3.1/bits/stl_iterator.h ****        *  @param  value  An instance of whatever type
 349:h:/6261A/11CW1352MP_BIRD61A_11C_V33_GPRS_MMI/Tools/MinGW/include/c++/3.3.1/bits/stl_iterator.h ****        *                 container_type::const_reference is; presumably a
 350:h:/6261A/11CW1352MP_BIRD61A_11C_V33_GPRS_MMI/Tools/MinGW/include/c++/3.3.1/bits/stl_iterator.h ****        *                 reference-to-const T for container<T>.
 351:h:/6261A/11CW1352MP_BIRD61A_11C_V33_GPRS_MMI/Tools/MinGW/include/c++/3.3.1/bits/stl_iterator.h ****        *  @return  This %iterator, for chained operations.
 352:h:/6261A/11CW1352MP_BIRD61A_11C_V33_GPRS_MMI/Tools/MinGW/include/c++/3.3.1/bits/stl_iterator.h ****        *
 353:h:/6261A/11CW1352MP_BIRD61A_11C_V33_GPRS_MMI/Tools/MinGW/include/c++/3.3.1/bits/stl_iterator.h ****        *  This kind of %iterator doesn't really have a "position" in the
 354:h:/6261A/11CW1352MP_BIRD61A_11C_V33_GPRS_MMI/Tools/MinGW/include/c++/3.3.1/bits/stl_iterator.h ****        *  container (you can think of the position as being permanently at
 355:h:/6261A/11CW1352MP_BIRD61A_11C_V33_GPRS_MMI/Tools/MinGW/include/c++/3.3.1/bits/stl_iterator.h ****        *  the end, if you like).  Assigning a value to the %iterator will
 356:h:/6261A/11CW1352MP_BIRD61A_11C_V33_GPRS_MMI/Tools/MinGW/include/c++/3.3.1/bits/stl_iterator.h ****        *  always append the value to the end of the container.
 357:h:/6261A/11CW1352MP_BIRD61A_11C_V33_GPRS_MMI/Tools/MinGW/include/c++/3.3.1/bits/stl_iterator.h ****       */
 358:h:/6261A/11CW1352MP_BIRD61A_11C_V33_GPRS_MMI/Tools/MinGW/include/c++/3.3.1/bits/stl_iterator.h ****       back_insert_iterator&
 359:h:/6261A/11CW1352MP_BIRD61A_11C_V33_GPRS_MMI/Tools/MinGW/include/c++/3.3.1/bits/stl_iterator.h ****       operator=(typename _Container::const_reference __value) 
 360:h:/6261A/11CW1352MP_BIRD61A_11C_V33_GPRS_MMI/Tools/MinGW/include/c++/3.3.1/bits/stl_iterator.h ****       { 
 361:h:/6261A/11CW1352MP_BIRD61A_11C_V33_GPRS_MMI/Tools/MinGW/include/c++/3.3.1/bits/stl_iterator.h **** 	container->push_back(__value);
 362:h:/6261A/11CW1352MP_BIRD61A_11C_V33_GPRS_MMI/Tools/MinGW/include/c++/3.3.1/bits/stl_iterator.h **** 	return *this;
 363:h:/6261A/11CW1352MP_BIRD61A_11C_V33_GPRS_MMI/Tools/MinGW/include/c++/3.3.1/bits/stl_iterator.h ****       }
 364:h:/6261A/11CW1352MP_BIRD61A_11C_V33_GPRS_MMI/Tools/MinGW/include/c++/3.3.1/bits/stl_iterator.h **** 
 365:h:/6261A/11CW1352MP_BIRD61A_11C_V33_GPRS_MMI/Tools/MinGW/include/c++/3.3.1/bits/stl_iterator.h ****       /// Simply returns *this.
 366:h:/6261A/11CW1352MP_BIRD61A_11C_V33_GPRS_MMI/Tools/MinGW/include/c++/3.3.1/bits/stl_iterator.h ****       back_insert_iterator& 
 367:h:/6261A/11CW1352MP_BIRD61A_11C_V33_GPRS_MMI/Tools/MinGW/include/c++/3.3.1/bits/stl_iterator.h ****       operator*() { return *this; }
 368:h:/6261A/11CW1352MP_BIRD61A_11C_V33_GPRS_MMI/Tools/MinGW/include/c++/3.3.1/bits/stl_iterator.h **** 
 369:h:/6261A/11CW1352MP_BIRD61A_11C_V33_GPRS_MMI/Tools/MinGW/include/c++/3.3.1/bits/stl_iterator.h ****       /// Simply returns *this.  (This %iterator does not "move".)
 370:h:/6261A/11CW1352MP_BIRD61A_11C_V33_GPRS_MMI/Tools/MinGW/include/c++/3.3.1/bits/stl_iterator.h ****       back_insert_iterator& 
 371:h:/6261A/11CW1352MP_BIRD61A_11C_V33_GPRS_MMI/Tools/MinGW/include/c++/3.3.1/bits/stl_iterator.h ****       operator++() { return *this; }
 372:h:/6261A/11CW1352MP_BIRD61A_11C_V33_GPRS_MMI/Tools/MinGW/include/c++/3.3.1/bits/stl_iterator.h **** 
 373:h:/6261A/11CW1352MP_BIRD61A_11C_V33_GPRS_MMI/Tools/MinGW/include/c++/3.3.1/bits/stl_iterator.h ****       /// Simply returns *this.  (This %iterator does not "move".)
 374:h:/6261A/11CW1352MP_BIRD61A_11C_V33_GPRS_MMI/Tools/MinGW/include/c++/3.3.1/bits/stl_iterator.h ****       back_insert_iterator
 375:h:/6261A/11CW1352MP_BIRD61A_11C_V33_GPRS_MMI/Tools/MinGW/include/c++/3.3.1/bits/stl_iterator.h ****       operator++(int) { return *this; }
 376:h:/6261A/11CW1352MP_BIRD61A_11C_V33_GPRS_MMI/Tools/MinGW/include/c++/3.3.1/bits/stl_iterator.h ****     };
 377:h:/6261A/11CW1352MP_BIRD61A_11C_V33_GPRS_MMI/Tools/MinGW/include/c++/3.3.1/bits/stl_iterator.h **** 
 378:h:/6261A/11CW1352MP_BIRD61A_11C_V33_GPRS_MMI/Tools/MinGW/include/c++/3.3.1/bits/stl_iterator.h ****   /**
 379:h:/6261A/11CW1352MP_BIRD61A_11C_V33_GPRS_MMI/Tools/MinGW/include/c++/3.3.1/bits/stl_iterator.h ****    *  @param  x  A container of arbitrary type.
 380:h:/6261A/11CW1352MP_BIRD61A_11C_V33_GPRS_MMI/Tools/MinGW/include/c++/3.3.1/bits/stl_iterator.h ****    *  @return  An instance of back_insert_iterator working on @p x.
 381:h:/6261A/11CW1352MP_BIRD61A_11C_V33_GPRS_MMI/Tools/MinGW/include/c++/3.3.1/bits/stl_iterator.h ****    *
 382:h:/6261A/11CW1352MP_BIRD61A_11C_V33_GPRS_MMI/Tools/MinGW/include/c++/3.3.1/bits/stl_iterator.h ****    *  This wrapper function helps in creating back_insert_iterator instances.
 383:h:/6261A/11CW1352MP_BIRD61A_11C_V33_GPRS_MMI/Tools/MinGW/include/c++/3.3.1/bits/stl_iterator.h ****    *  Typing the name of the %iterator requires knowing the precise full
 384:h:/6261A/11CW1352MP_BIRD61A_11C_V33_GPRS_MMI/Tools/MinGW/include/c++/3.3.1/bits/stl_iterator.h ****    *  type of the container, which can be tedious and impedes generic
 385:h:/6261A/11CW1352MP_BIRD61A_11C_V33_GPRS_MMI/Tools/MinGW/include/c++/3.3.1/bits/stl_iterator.h ****    *  programming.  Using this function lets you take advantage of automatic
 386:h:/6261A/11CW1352MP_BIRD61A_11C_V33_GPRS_MMI/Tools/MinGW/include/c++/3.3.1/bits/stl_iterator.h ****    *  template parameter deduction, making the compiler match the correct
GAS LISTING h:/6261A/11CW1352MP_BIRD61A_11C_V33_GPRS_MMI/plutommi/Customer/ResGenerator/gcctmp/ccEHcaaa.s 			page 84


 387:h:/6261A/11CW1352MP_BIRD61A_11C_V33_GPRS_MMI/Tools/MinGW/include/c++/3.3.1/bits/stl_iterator.h ****    *  types for you.
 388:h:/6261A/11CW1352MP_BIRD61A_11C_V33_GPRS_MMI/Tools/MinGW/include/c++/3.3.1/bits/stl_iterator.h ****   */
 389:h:/6261A/11CW1352MP_BIRD61A_11C_V33_GPRS_MMI/Tools/MinGW/include/c++/3.3.1/bits/stl_iterator.h ****   template<typename _Container>
 390:h:/6261A/11CW1352MP_BIRD61A_11C_V33_GPRS_MMI/Tools/MinGW/include/c++/3.3.1/bits/stl_iterator.h ****     inline back_insert_iterator<_Container> 
 391:h:/6261A/11CW1352MP_BIRD61A_11C_V33_GPRS_MMI/Tools/MinGW/include/c++/3.3.1/bits/stl_iterator.h ****     back_inserter(_Container& __x) 
 392:h:/6261A/11CW1352MP_BIRD61A_11C_V33_GPRS_MMI/Tools/MinGW/include/c++/3.3.1/bits/stl_iterator.h ****     { return back_insert_iterator<_Container>(__x); }
 393:h:/6261A/11CW1352MP_BIRD61A_11C_V33_GPRS_MMI/Tools/MinGW/include/c++/3.3.1/bits/stl_iterator.h **** 
 394:h:/6261A/11CW1352MP_BIRD61A_11C_V33_GPRS_MMI/Tools/MinGW/include/c++/3.3.1/bits/stl_iterator.h ****   /**
 395:h:/6261A/11CW1352MP_BIRD61A_11C_V33_GPRS_MMI/Tools/MinGW/include/c++/3.3.1/bits/stl_iterator.h ****    *  @brief  Turns assignment into insertion.
 396:h:/6261A/11CW1352MP_BIRD61A_11C_V33_GPRS_MMI/Tools/MinGW/include/c++/3.3.1/bits/stl_iterator.h ****    *
 397:h:/6261A/11CW1352MP_BIRD61A_11C_V33_GPRS_MMI/Tools/MinGW/include/c++/3.3.1/bits/stl_iterator.h ****    *  These are output iterators, constructed from a container-of-T.
 398:h:/6261A/11CW1352MP_BIRD61A_11C_V33_GPRS_MMI/Tools/MinGW/include/c++/3.3.1/bits/stl_iterator.h ****    *  Assigning a T to the iterator prepends it to the container using
 399:h:/6261A/11CW1352MP_BIRD61A_11C_V33_GPRS_MMI/Tools/MinGW/include/c++/3.3.1/bits/stl_iterator.h ****    *  push_front.
 400:h:/6261A/11CW1352MP_BIRD61A_11C_V33_GPRS_MMI/Tools/MinGW/include/c++/3.3.1/bits/stl_iterator.h ****    *
 401:h:/6261A/11CW1352MP_BIRD61A_11C_V33_GPRS_MMI/Tools/MinGW/include/c++/3.3.1/bits/stl_iterator.h ****    *  Tip:  Using the front_inserter function to create these iterators can
 402:h:/6261A/11CW1352MP_BIRD61A_11C_V33_GPRS_MMI/Tools/MinGW/include/c++/3.3.1/bits/stl_iterator.h ****    *  save typing.
 403:h:/6261A/11CW1352MP_BIRD61A_11C_V33_GPRS_MMI/Tools/MinGW/include/c++/3.3.1/bits/stl_iterator.h ****   */
 404:h:/6261A/11CW1352MP_BIRD61A_11C_V33_GPRS_MMI/Tools/MinGW/include/c++/3.3.1/bits/stl_iterator.h ****   template<typename _Container>
 405:h:/6261A/11CW1352MP_BIRD61A_11C_V33_GPRS_MMI/Tools/MinGW/include/c++/3.3.1/bits/stl_iterator.h ****     class front_insert_iterator 
 406:h:/6261A/11CW1352MP_BIRD61A_11C_V33_GPRS_MMI/Tools/MinGW/include/c++/3.3.1/bits/stl_iterator.h ****     : public iterator<output_iterator_tag, void, void, void, void>
 407:h:/6261A/11CW1352MP_BIRD61A_11C_V33_GPRS_MMI/Tools/MinGW/include/c++/3.3.1/bits/stl_iterator.h ****     {
 408:h:/6261A/11CW1352MP_BIRD61A_11C_V33_GPRS_MMI/Tools/MinGW/include/c++/3.3.1/bits/stl_iterator.h ****     protected:
 409:h:/6261A/11CW1352MP_BIRD61A_11C_V33_GPRS_MMI/Tools/MinGW/include/c++/3.3.1/bits/stl_iterator.h ****       _Container* container;
 410:h:/6261A/11CW1352MP_BIRD61A_11C_V33_GPRS_MMI/Tools/MinGW/include/c++/3.3.1/bits/stl_iterator.h **** 
 411:h:/6261A/11CW1352MP_BIRD61A_11C_V33_GPRS_MMI/Tools/MinGW/include/c++/3.3.1/bits/stl_iterator.h ****     public:
 412:h:/6261A/11CW1352MP_BIRD61A_11C_V33_GPRS_MMI/Tools/MinGW/include/c++/3.3.1/bits/stl_iterator.h ****       /// A nested typedef for the type of whatever container you used.
 413:h:/6261A/11CW1352MP_BIRD61A_11C_V33_GPRS_MMI/Tools/MinGW/include/c++/3.3.1/bits/stl_iterator.h ****       typedef _Container          container_type;
 414:h:/6261A/11CW1352MP_BIRD61A_11C_V33_GPRS_MMI/Tools/MinGW/include/c++/3.3.1/bits/stl_iterator.h **** 
 415:h:/6261A/11CW1352MP_BIRD61A_11C_V33_GPRS_MMI/Tools/MinGW/include/c++/3.3.1/bits/stl_iterator.h ****       /// The only way to create this %iterator is with a container.
 416:h:/6261A/11CW1352MP_BIRD61A_11C_V33_GPRS_MMI/Tools/MinGW/include/c++/3.3.1/bits/stl_iterator.h ****       explicit front_insert_iterator(_Container& __x) : container(&__x) { }
 417:h:/6261A/11CW1352MP_BIRD61A_11C_V33_GPRS_MMI/Tools/MinGW/include/c++/3.3.1/bits/stl_iterator.h **** 
 418:h:/6261A/11CW1352MP_BIRD61A_11C_V33_GPRS_MMI/Tools/MinGW/include/c++/3.3.1/bits/stl_iterator.h ****       /**
 419:h:/6261A/11CW1352MP_BIRD61A_11C_V33_GPRS_MMI/Tools/MinGW/include/c++/3.3.1/bits/stl_iterator.h ****        *  @param  value  An instance of whatever type
 420:h:/6261A/11CW1352MP_BIRD61A_11C_V33_GPRS_MMI/Tools/MinGW/include/c++/3.3.1/bits/stl_iterator.h ****        *                 container_type::const_reference is; presumably a
 421:h:/6261A/11CW1352MP_BIRD61A_11C_V33_GPRS_MMI/Tools/MinGW/include/c++/3.3.1/bits/stl_iterator.h ****        *                 reference-to-const T for container<T>.
 422:h:/6261A/11CW1352MP_BIRD61A_11C_V33_GPRS_MMI/Tools/MinGW/include/c++/3.3.1/bits/stl_iterator.h ****        *  @return  This %iterator, for chained operations.
 423:h:/6261A/11CW1352MP_BIRD61A_11C_V33_GPRS_MMI/Tools/MinGW/include/c++/3.3.1/bits/stl_iterator.h ****        *
 424:h:/6261A/11CW1352MP_BIRD61A_11C_V33_GPRS_MMI/Tools/MinGW/include/c++/3.3.1/bits/stl_iterator.h ****        *  This kind of %iterator doesn't really have a "position" in the
 425:h:/6261A/11CW1352MP_BIRD61A_11C_V33_GPRS_MMI/Tools/MinGW/include/c++/3.3.1/bits/stl_iterator.h ****        *  container (you can think of the position as being permanently at
 426:h:/6261A/11CW1352MP_BIRD61A_11C_V33_GPRS_MMI/Tools/MinGW/include/c++/3.3.1/bits/stl_iterator.h ****        *  the front, if you like).  Assigning a value to the %iterator will
 427:h:/6261A/11CW1352MP_BIRD61A_11C_V33_GPRS_MMI/Tools/MinGW/include/c++/3.3.1/bits/stl_iterator.h ****        *  always prepend the value to the front of the container.
 428:h:/6261A/11CW1352MP_BIRD61A_11C_V33_GPRS_MMI/Tools/MinGW/include/c++/3.3.1/bits/stl_iterator.h ****       */
 429:h:/6261A/11CW1352MP_BIRD61A_11C_V33_GPRS_MMI/Tools/MinGW/include/c++/3.3.1/bits/stl_iterator.h ****       front_insert_iterator&
 430:h:/6261A/11CW1352MP_BIRD61A_11C_V33_GPRS_MMI/Tools/MinGW/include/c++/3.3.1/bits/stl_iterator.h ****       operator=(typename _Container::const_reference __value) 
 431:h:/6261A/11CW1352MP_BIRD61A_11C_V33_GPRS_MMI/Tools/MinGW/include/c++/3.3.1/bits/stl_iterator.h ****       { 
 432:h:/6261A/11CW1352MP_BIRD61A_11C_V33_GPRS_MMI/Tools/MinGW/include/c++/3.3.1/bits/stl_iterator.h **** 	container->push_front(__value);
 433:h:/6261A/11CW1352MP_BIRD61A_11C_V33_GPRS_MMI/Tools/MinGW/include/c++/3.3.1/bits/stl_iterator.h **** 	return *this;
 434:h:/6261A/11CW1352MP_BIRD61A_11C_V33_GPRS_MMI/Tools/MinGW/include/c++/3.3.1/bits/stl_iterator.h ****       }
 435:h:/6261A/11CW1352MP_BIRD61A_11C_V33_GPRS_MMI/Tools/MinGW/include/c++/3.3.1/bits/stl_iterator.h **** 
 436:h:/6261A/11CW1352MP_BIRD61A_11C_V33_GPRS_MMI/Tools/MinGW/include/c++/3.3.1/bits/stl_iterator.h ****       /// Simply returns *this.
 437:h:/6261A/11CW1352MP_BIRD61A_11C_V33_GPRS_MMI/Tools/MinGW/include/c++/3.3.1/bits/stl_iterator.h ****       front_insert_iterator& 
 438:h:/6261A/11CW1352MP_BIRD61A_11C_V33_GPRS_MMI/Tools/MinGW/include/c++/3.3.1/bits/stl_iterator.h ****       operator*() { return *this; }
 439:h:/6261A/11CW1352MP_BIRD61A_11C_V33_GPRS_MMI/Tools/MinGW/include/c++/3.3.1/bits/stl_iterator.h **** 
 440:h:/6261A/11CW1352MP_BIRD61A_11C_V33_GPRS_MMI/Tools/MinGW/include/c++/3.3.1/bits/stl_iterator.h ****       /// Simply returns *this.  (This %iterator does not "move".)
 441:h:/6261A/11CW1352MP_BIRD61A_11C_V33_GPRS_MMI/Tools/MinGW/include/c++/3.3.1/bits/stl_iterator.h ****       front_insert_iterator& 
 442:h:/6261A/11CW1352MP_BIRD61A_11C_V33_GPRS_MMI/Tools/MinGW/include/c++/3.3.1/bits/stl_iterator.h ****       operator++() { return *this; }
 443:h:/6261A/11CW1352MP_BIRD61A_11C_V33_GPRS_MMI/Tools/MinGW/include/c++/3.3.1/bits/stl_iterator.h **** 
GAS LISTING h:/6261A/11CW1352MP_BIRD61A_11C_V33_GPRS_MMI/plutommi/Customer/ResGenerator/gcctmp/ccEHcaaa.s 			page 85


 444:h:/6261A/11CW1352MP_BIRD61A_11C_V33_GPRS_MMI/Tools/MinGW/include/c++/3.3.1/bits/stl_iterator.h ****       /// Simply returns *this.  (This %iterator does not "move".)
 445:h:/6261A/11CW1352MP_BIRD61A_11C_V33_GPRS_MMI/Tools/MinGW/include/c++/3.3.1/bits/stl_iterator.h ****       front_insert_iterator 
 446:h:/6261A/11CW1352MP_BIRD61A_11C_V33_GPRS_MMI/Tools/MinGW/include/c++/3.3.1/bits/stl_iterator.h ****       operator++(int) { return *this; }
 447:h:/6261A/11CW1352MP_BIRD61A_11C_V33_GPRS_MMI/Tools/MinGW/include/c++/3.3.1/bits/stl_iterator.h ****     };
 448:h:/6261A/11CW1352MP_BIRD61A_11C_V33_GPRS_MMI/Tools/MinGW/include/c++/3.3.1/bits/stl_iterator.h **** 
 449:h:/6261A/11CW1352MP_BIRD61A_11C_V33_GPRS_MMI/Tools/MinGW/include/c++/3.3.1/bits/stl_iterator.h ****   /**
 450:h:/6261A/11CW1352MP_BIRD61A_11C_V33_GPRS_MMI/Tools/MinGW/include/c++/3.3.1/bits/stl_iterator.h ****    *  @param  x  A container of arbitrary type.
 451:h:/6261A/11CW1352MP_BIRD61A_11C_V33_GPRS_MMI/Tools/MinGW/include/c++/3.3.1/bits/stl_iterator.h ****    *  @return  An instance of front_insert_iterator working on @p x.
 452:h:/6261A/11CW1352MP_BIRD61A_11C_V33_GPRS_MMI/Tools/MinGW/include/c++/3.3.1/bits/stl_iterator.h ****    *
 453:h:/6261A/11CW1352MP_BIRD61A_11C_V33_GPRS_MMI/Tools/MinGW/include/c++/3.3.1/bits/stl_iterator.h ****    *  This wrapper function helps in creating front_insert_iterator instances.
 454:h:/6261A/11CW1352MP_BIRD61A_11C_V33_GPRS_MMI/Tools/MinGW/include/c++/3.3.1/bits/stl_iterator.h ****    *  Typing the name of the %iterator requires knowing the precise full
 455:h:/6261A/11CW1352MP_BIRD61A_11C_V33_GPRS_MMI/Tools/MinGW/include/c++/3.3.1/bits/stl_iterator.h ****    *  type of the container, which can be tedious and impedes generic
 456:h:/6261A/11CW1352MP_BIRD61A_11C_V33_GPRS_MMI/Tools/MinGW/include/c++/3.3.1/bits/stl_iterator.h ****    *  programming.  Using this function lets you take advantage of automatic
 457:h:/6261A/11CW1352MP_BIRD61A_11C_V33_GPRS_MMI/Tools/MinGW/include/c++/3.3.1/bits/stl_iterator.h ****    *  template parameter deduction, making the compiler match the correct
 458:h:/6261A/11CW1352MP_BIRD61A_11C_V33_GPRS_MMI/Tools/MinGW/include/c++/3.3.1/bits/stl_iterator.h ****    *  types for you.
 459:h:/6261A/11CW1352MP_BIRD61A_11C_V33_GPRS_MMI/Tools/MinGW/include/c++/3.3.1/bits/stl_iterator.h ****   */
 460:h:/6261A/11CW1352MP_BIRD61A_11C_V33_GPRS_MMI/Tools/MinGW/include/c++/3.3.1/bits/stl_iterator.h ****   template<typename _Container>
 461:h:/6261A/11CW1352MP_BIRD61A_11C_V33_GPRS_MMI/Tools/MinGW/include/c++/3.3.1/bits/stl_iterator.h ****     inline front_insert_iterator<_Container> 
 462:h:/6261A/11CW1352MP_BIRD61A_11C_V33_GPRS_MMI/Tools/MinGW/include/c++/3.3.1/bits/stl_iterator.h ****     front_inserter(_Container& __x) 
 463:h:/6261A/11CW1352MP_BIRD61A_11C_V33_GPRS_MMI/Tools/MinGW/include/c++/3.3.1/bits/stl_iterator.h ****     { return front_insert_iterator<_Container>(__x); }
 464:h:/6261A/11CW1352MP_BIRD61A_11C_V33_GPRS_MMI/Tools/MinGW/include/c++/3.3.1/bits/stl_iterator.h **** 
 465:h:/6261A/11CW1352MP_BIRD61A_11C_V33_GPRS_MMI/Tools/MinGW/include/c++/3.3.1/bits/stl_iterator.h ****   /**
 466:h:/6261A/11CW1352MP_BIRD61A_11C_V33_GPRS_MMI/Tools/MinGW/include/c++/3.3.1/bits/stl_iterator.h ****    *  @brief  Turns assignment into insertion.
 467:h:/6261A/11CW1352MP_BIRD61A_11C_V33_GPRS_MMI/Tools/MinGW/include/c++/3.3.1/bits/stl_iterator.h ****    *
 468:h:/6261A/11CW1352MP_BIRD61A_11C_V33_GPRS_MMI/Tools/MinGW/include/c++/3.3.1/bits/stl_iterator.h ****    *  These are output iterators, constructed from a container-of-T.
 469:h:/6261A/11CW1352MP_BIRD61A_11C_V33_GPRS_MMI/Tools/MinGW/include/c++/3.3.1/bits/stl_iterator.h ****    *  Assigning a T to the iterator inserts it in the container at the
 470:h:/6261A/11CW1352MP_BIRD61A_11C_V33_GPRS_MMI/Tools/MinGW/include/c++/3.3.1/bits/stl_iterator.h ****    *  %iterator's position, rather than overwriting the value at that
 471:h:/6261A/11CW1352MP_BIRD61A_11C_V33_GPRS_MMI/Tools/MinGW/include/c++/3.3.1/bits/stl_iterator.h ****    *  position.
 472:h:/6261A/11CW1352MP_BIRD61A_11C_V33_GPRS_MMI/Tools/MinGW/include/c++/3.3.1/bits/stl_iterator.h ****    *
 473:h:/6261A/11CW1352MP_BIRD61A_11C_V33_GPRS_MMI/Tools/MinGW/include/c++/3.3.1/bits/stl_iterator.h ****    *  (Sequences will actually insert a @e copy of the value before the
 474:h:/6261A/11CW1352MP_BIRD61A_11C_V33_GPRS_MMI/Tools/MinGW/include/c++/3.3.1/bits/stl_iterator.h ****    *  %iterator's position.)
 475:h:/6261A/11CW1352MP_BIRD61A_11C_V33_GPRS_MMI/Tools/MinGW/include/c++/3.3.1/bits/stl_iterator.h ****    *
 476:h:/6261A/11CW1352MP_BIRD61A_11C_V33_GPRS_MMI/Tools/MinGW/include/c++/3.3.1/bits/stl_iterator.h ****    *  Tip:  Using the inserter function to create these iterators can
 477:h:/6261A/11CW1352MP_BIRD61A_11C_V33_GPRS_MMI/Tools/MinGW/include/c++/3.3.1/bits/stl_iterator.h ****    *  save typing.
 478:h:/6261A/11CW1352MP_BIRD61A_11C_V33_GPRS_MMI/Tools/MinGW/include/c++/3.3.1/bits/stl_iterator.h ****   */
 479:h:/6261A/11CW1352MP_BIRD61A_11C_V33_GPRS_MMI/Tools/MinGW/include/c++/3.3.1/bits/stl_iterator.h ****   template<typename _Container>
 480:h:/6261A/11CW1352MP_BIRD61A_11C_V33_GPRS_MMI/Tools/MinGW/include/c++/3.3.1/bits/stl_iterator.h ****     class insert_iterator 
 481:h:/6261A/11CW1352MP_BIRD61A_11C_V33_GPRS_MMI/Tools/MinGW/include/c++/3.3.1/bits/stl_iterator.h ****     : public iterator<output_iterator_tag, void, void, void, void>
 482:h:/6261A/11CW1352MP_BIRD61A_11C_V33_GPRS_MMI/Tools/MinGW/include/c++/3.3.1/bits/stl_iterator.h ****     {
 483:h:/6261A/11CW1352MP_BIRD61A_11C_V33_GPRS_MMI/Tools/MinGW/include/c++/3.3.1/bits/stl_iterator.h ****     protected:
 484:h:/6261A/11CW1352MP_BIRD61A_11C_V33_GPRS_MMI/Tools/MinGW/include/c++/3.3.1/bits/stl_iterator.h ****       _Container* container;
 485:h:/6261A/11CW1352MP_BIRD61A_11C_V33_GPRS_MMI/Tools/MinGW/include/c++/3.3.1/bits/stl_iterator.h ****       typename _Container::iterator iter;
 486:h:/6261A/11CW1352MP_BIRD61A_11C_V33_GPRS_MMI/Tools/MinGW/include/c++/3.3.1/bits/stl_iterator.h **** 
 487:h:/6261A/11CW1352MP_BIRD61A_11C_V33_GPRS_MMI/Tools/MinGW/include/c++/3.3.1/bits/stl_iterator.h ****     public:
 488:h:/6261A/11CW1352MP_BIRD61A_11C_V33_GPRS_MMI/Tools/MinGW/include/c++/3.3.1/bits/stl_iterator.h ****       /// A nested typedef for the type of whatever container you used.
 489:h:/6261A/11CW1352MP_BIRD61A_11C_V33_GPRS_MMI/Tools/MinGW/include/c++/3.3.1/bits/stl_iterator.h ****       typedef _Container          container_type;
 490:h:/6261A/11CW1352MP_BIRD61A_11C_V33_GPRS_MMI/Tools/MinGW/include/c++/3.3.1/bits/stl_iterator.h ****       
 491:h:/6261A/11CW1352MP_BIRD61A_11C_V33_GPRS_MMI/Tools/MinGW/include/c++/3.3.1/bits/stl_iterator.h ****       /**
 492:h:/6261A/11CW1352MP_BIRD61A_11C_V33_GPRS_MMI/Tools/MinGW/include/c++/3.3.1/bits/stl_iterator.h ****        *  The only way to create this %iterator is with a container and an
 493:h:/6261A/11CW1352MP_BIRD61A_11C_V33_GPRS_MMI/Tools/MinGW/include/c++/3.3.1/bits/stl_iterator.h ****        *  initial position (a normal %iterator into the container).
 494:h:/6261A/11CW1352MP_BIRD61A_11C_V33_GPRS_MMI/Tools/MinGW/include/c++/3.3.1/bits/stl_iterator.h ****       */
 495:h:/6261A/11CW1352MP_BIRD61A_11C_V33_GPRS_MMI/Tools/MinGW/include/c++/3.3.1/bits/stl_iterator.h ****       insert_iterator(_Container& __x, typename _Container::iterator __i) 
 496:h:/6261A/11CW1352MP_BIRD61A_11C_V33_GPRS_MMI/Tools/MinGW/include/c++/3.3.1/bits/stl_iterator.h ****       : container(&__x), iter(__i) {}
 497:h:/6261A/11CW1352MP_BIRD61A_11C_V33_GPRS_MMI/Tools/MinGW/include/c++/3.3.1/bits/stl_iterator.h ****    
 498:h:/6261A/11CW1352MP_BIRD61A_11C_V33_GPRS_MMI/Tools/MinGW/include/c++/3.3.1/bits/stl_iterator.h ****       /**
 499:h:/6261A/11CW1352MP_BIRD61A_11C_V33_GPRS_MMI/Tools/MinGW/include/c++/3.3.1/bits/stl_iterator.h ****        *  @param  value  An instance of whatever type
 500:h:/6261A/11CW1352MP_BIRD61A_11C_V33_GPRS_MMI/Tools/MinGW/include/c++/3.3.1/bits/stl_iterator.h ****        *                 container_type::const_reference is; presumably a
GAS LISTING h:/6261A/11CW1352MP_BIRD61A_11C_V33_GPRS_MMI/plutommi/Customer/ResGenerator/gcctmp/ccEHcaaa.s 			page 86


 501:h:/6261A/11CW1352MP_BIRD61A_11C_V33_GPRS_MMI/Tools/MinGW/include/c++/3.3.1/bits/stl_iterator.h ****        *                 reference-to-const T for container<T>.
 502:h:/6261A/11CW1352MP_BIRD61A_11C_V33_GPRS_MMI/Tools/MinGW/include/c++/3.3.1/bits/stl_iterator.h ****        *  @return  This %iterator, for chained operations.
 503:h:/6261A/11CW1352MP_BIRD61A_11C_V33_GPRS_MMI/Tools/MinGW/include/c++/3.3.1/bits/stl_iterator.h ****        *
 504:h:/6261A/11CW1352MP_BIRD61A_11C_V33_GPRS_MMI/Tools/MinGW/include/c++/3.3.1/bits/stl_iterator.h ****        *  This kind of %iterator maintains its own position in the
 505:h:/6261A/11CW1352MP_BIRD61A_11C_V33_GPRS_MMI/Tools/MinGW/include/c++/3.3.1/bits/stl_iterator.h ****        *  container.  Assigning a value to the %iterator will insert the
 506:h:/6261A/11CW1352MP_BIRD61A_11C_V33_GPRS_MMI/Tools/MinGW/include/c++/3.3.1/bits/stl_iterator.h ****        *  value into the container at the place before the %iterator.
 507:h:/6261A/11CW1352MP_BIRD61A_11C_V33_GPRS_MMI/Tools/MinGW/include/c++/3.3.1/bits/stl_iterator.h ****        *
 508:h:/6261A/11CW1352MP_BIRD61A_11C_V33_GPRS_MMI/Tools/MinGW/include/c++/3.3.1/bits/stl_iterator.h ****        *  The position is maintained such that subsequent assignments will
 509:h:/6261A/11CW1352MP_BIRD61A_11C_V33_GPRS_MMI/Tools/MinGW/include/c++/3.3.1/bits/stl_iterator.h ****        *  insert values immediately after one another.  For example,
 510:h:/6261A/11CW1352MP_BIRD61A_11C_V33_GPRS_MMI/Tools/MinGW/include/c++/3.3.1/bits/stl_iterator.h ****        *  @code
 511:h:/6261A/11CW1352MP_BIRD61A_11C_V33_GPRS_MMI/Tools/MinGW/include/c++/3.3.1/bits/stl_iterator.h ****        *     // vector v contains A and Z
 512:h:/6261A/11CW1352MP_BIRD61A_11C_V33_GPRS_MMI/Tools/MinGW/include/c++/3.3.1/bits/stl_iterator.h ****        *
 513:h:/6261A/11CW1352MP_BIRD61A_11C_V33_GPRS_MMI/Tools/MinGW/include/c++/3.3.1/bits/stl_iterator.h ****        *     insert_iterator i (v, ++v.begin());
 514:h:/6261A/11CW1352MP_BIRD61A_11C_V33_GPRS_MMI/Tools/MinGW/include/c++/3.3.1/bits/stl_iterator.h ****        *     i = 1;
 515:h:/6261A/11CW1352MP_BIRD61A_11C_V33_GPRS_MMI/Tools/MinGW/include/c++/3.3.1/bits/stl_iterator.h ****        *     i = 2;
 516:h:/6261A/11CW1352MP_BIRD61A_11C_V33_GPRS_MMI/Tools/MinGW/include/c++/3.3.1/bits/stl_iterator.h ****        *     i = 3;
 517:h:/6261A/11CW1352MP_BIRD61A_11C_V33_GPRS_MMI/Tools/MinGW/include/c++/3.3.1/bits/stl_iterator.h ****        *
 518:h:/6261A/11CW1352MP_BIRD61A_11C_V33_GPRS_MMI/Tools/MinGW/include/c++/3.3.1/bits/stl_iterator.h ****        *     // vector v contains A, 1, 2, 3, and Z
 519:h:/6261A/11CW1352MP_BIRD61A_11C_V33_GPRS_MMI/Tools/MinGW/include/c++/3.3.1/bits/stl_iterator.h ****        *  @endcode
 520:h:/6261A/11CW1352MP_BIRD61A_11C_V33_GPRS_MMI/Tools/MinGW/include/c++/3.3.1/bits/stl_iterator.h ****       */
 521:h:/6261A/11CW1352MP_BIRD61A_11C_V33_GPRS_MMI/Tools/MinGW/include/c++/3.3.1/bits/stl_iterator.h ****       insert_iterator&
 522:h:/6261A/11CW1352MP_BIRD61A_11C_V33_GPRS_MMI/Tools/MinGW/include/c++/3.3.1/bits/stl_iterator.h ****       operator=(const typename _Container::const_reference __value) 
 523:h:/6261A/11CW1352MP_BIRD61A_11C_V33_GPRS_MMI/Tools/MinGW/include/c++/3.3.1/bits/stl_iterator.h ****       { 
 524:h:/6261A/11CW1352MP_BIRD61A_11C_V33_GPRS_MMI/Tools/MinGW/include/c++/3.3.1/bits/stl_iterator.h **** 	iter = container->insert(iter, __value);
 525:h:/6261A/11CW1352MP_BIRD61A_11C_V33_GPRS_MMI/Tools/MinGW/include/c++/3.3.1/bits/stl_iterator.h **** 	++iter;
 526:h:/6261A/11CW1352MP_BIRD61A_11C_V33_GPRS_MMI/Tools/MinGW/include/c++/3.3.1/bits/stl_iterator.h **** 	return *this;
 527:h:/6261A/11CW1352MP_BIRD61A_11C_V33_GPRS_MMI/Tools/MinGW/include/c++/3.3.1/bits/stl_iterator.h ****       }
 528:h:/6261A/11CW1352MP_BIRD61A_11C_V33_GPRS_MMI/Tools/MinGW/include/c++/3.3.1/bits/stl_iterator.h **** 
 529:h:/6261A/11CW1352MP_BIRD61A_11C_V33_GPRS_MMI/Tools/MinGW/include/c++/3.3.1/bits/stl_iterator.h ****       /// Simply returns *this.
 530:h:/6261A/11CW1352MP_BIRD61A_11C_V33_GPRS_MMI/Tools/MinGW/include/c++/3.3.1/bits/stl_iterator.h ****       insert_iterator& 
 531:h:/6261A/11CW1352MP_BIRD61A_11C_V33_GPRS_MMI/Tools/MinGW/include/c++/3.3.1/bits/stl_iterator.h ****       operator*() { return *this; }
 532:h:/6261A/11CW1352MP_BIRD61A_11C_V33_GPRS_MMI/Tools/MinGW/include/c++/3.3.1/bits/stl_iterator.h **** 
 533:h:/6261A/11CW1352MP_BIRD61A_11C_V33_GPRS_MMI/Tools/MinGW/include/c++/3.3.1/bits/stl_iterator.h ****       /// Simply returns *this.  (This %iterator does not "move".)
 534:h:/6261A/11CW1352MP_BIRD61A_11C_V33_GPRS_MMI/Tools/MinGW/include/c++/3.3.1/bits/stl_iterator.h ****       insert_iterator& 
 535:h:/6261A/11CW1352MP_BIRD61A_11C_V33_GPRS_MMI/Tools/MinGW/include/c++/3.3.1/bits/stl_iterator.h ****       operator++() { return *this; }
 536:h:/6261A/11CW1352MP_BIRD61A_11C_V33_GPRS_MMI/Tools/MinGW/include/c++/3.3.1/bits/stl_iterator.h **** 
 537:h:/6261A/11CW1352MP_BIRD61A_11C_V33_GPRS_MMI/Tools/MinGW/include/c++/3.3.1/bits/stl_iterator.h ****       /// Simply returns *this.  (This %iterator does not "move".)
 538:h:/6261A/11CW1352MP_BIRD61A_11C_V33_GPRS_MMI/Tools/MinGW/include/c++/3.3.1/bits/stl_iterator.h ****       insert_iterator& 
 539:h:/6261A/11CW1352MP_BIRD61A_11C_V33_GPRS_MMI/Tools/MinGW/include/c++/3.3.1/bits/stl_iterator.h ****       operator++(int) { return *this; }
 540:h:/6261A/11CW1352MP_BIRD61A_11C_V33_GPRS_MMI/Tools/MinGW/include/c++/3.3.1/bits/stl_iterator.h ****     };
 541:h:/6261A/11CW1352MP_BIRD61A_11C_V33_GPRS_MMI/Tools/MinGW/include/c++/3.3.1/bits/stl_iterator.h ****   
 542:h:/6261A/11CW1352MP_BIRD61A_11C_V33_GPRS_MMI/Tools/MinGW/include/c++/3.3.1/bits/stl_iterator.h ****   /**
 543:h:/6261A/11CW1352MP_BIRD61A_11C_V33_GPRS_MMI/Tools/MinGW/include/c++/3.3.1/bits/stl_iterator.h ****    *  @param  x  A container of arbitrary type.
 544:h:/6261A/11CW1352MP_BIRD61A_11C_V33_GPRS_MMI/Tools/MinGW/include/c++/3.3.1/bits/stl_iterator.h ****    *  @return  An instance of insert_iterator working on @p x.
 545:h:/6261A/11CW1352MP_BIRD61A_11C_V33_GPRS_MMI/Tools/MinGW/include/c++/3.3.1/bits/stl_iterator.h ****    *
 546:h:/6261A/11CW1352MP_BIRD61A_11C_V33_GPRS_MMI/Tools/MinGW/include/c++/3.3.1/bits/stl_iterator.h ****    *  This wrapper function helps in creating insert_iterator instances.
 547:h:/6261A/11CW1352MP_BIRD61A_11C_V33_GPRS_MMI/Tools/MinGW/include/c++/3.3.1/bits/stl_iterator.h ****    *  Typing the name of the %iterator requires knowing the precise full
 548:h:/6261A/11CW1352MP_BIRD61A_11C_V33_GPRS_MMI/Tools/MinGW/include/c++/3.3.1/bits/stl_iterator.h ****    *  type of the container, which can be tedious and impedes generic
 549:h:/6261A/11CW1352MP_BIRD61A_11C_V33_GPRS_MMI/Tools/MinGW/include/c++/3.3.1/bits/stl_iterator.h ****    *  programming.  Using this function lets you take advantage of automatic
 550:h:/6261A/11CW1352MP_BIRD61A_11C_V33_GPRS_MMI/Tools/MinGW/include/c++/3.3.1/bits/stl_iterator.h ****    *  template parameter deduction, making the compiler match the correct
 551:h:/6261A/11CW1352MP_BIRD61A_11C_V33_GPRS_MMI/Tools/MinGW/include/c++/3.3.1/bits/stl_iterator.h ****    *  types for you.
 552:h:/6261A/11CW1352MP_BIRD61A_11C_V33_GPRS_MMI/Tools/MinGW/include/c++/3.3.1/bits/stl_iterator.h ****   */
 553:h:/6261A/11CW1352MP_BIRD61A_11C_V33_GPRS_MMI/Tools/MinGW/include/c++/3.3.1/bits/stl_iterator.h ****   template<typename _Container, typename _Iterator>
 554:h:/6261A/11CW1352MP_BIRD61A_11C_V33_GPRS_MMI/Tools/MinGW/include/c++/3.3.1/bits/stl_iterator.h ****     inline insert_iterator<_Container> 
 555:h:/6261A/11CW1352MP_BIRD61A_11C_V33_GPRS_MMI/Tools/MinGW/include/c++/3.3.1/bits/stl_iterator.h ****     inserter(_Container& __x, _Iterator __i)
 556:h:/6261A/11CW1352MP_BIRD61A_11C_V33_GPRS_MMI/Tools/MinGW/include/c++/3.3.1/bits/stl_iterator.h ****     {
 557:h:/6261A/11CW1352MP_BIRD61A_11C_V33_GPRS_MMI/Tools/MinGW/include/c++/3.3.1/bits/stl_iterator.h ****       return insert_iterator<_Container>(__x, 
GAS LISTING h:/6261A/11CW1352MP_BIRD61A_11C_V33_GPRS_MMI/plutommi/Customer/ResGenerator/gcctmp/ccEHcaaa.s 			page 87


 558:h:/6261A/11CW1352MP_BIRD61A_11C_V33_GPRS_MMI/Tools/MinGW/include/c++/3.3.1/bits/stl_iterator.h **** 					 typename _Container::iterator(__i));
 559:h:/6261A/11CW1352MP_BIRD61A_11C_V33_GPRS_MMI/Tools/MinGW/include/c++/3.3.1/bits/stl_iterator.h ****     }
 560:h:/6261A/11CW1352MP_BIRD61A_11C_V33_GPRS_MMI/Tools/MinGW/include/c++/3.3.1/bits/stl_iterator.h **** } // namespace std
 561:h:/6261A/11CW1352MP_BIRD61A_11C_V33_GPRS_MMI/Tools/MinGW/include/c++/3.3.1/bits/stl_iterator.h **** 
 562:h:/6261A/11CW1352MP_BIRD61A_11C_V33_GPRS_MMI/Tools/MinGW/include/c++/3.3.1/bits/stl_iterator.h **** namespace __gnu_cxx
 563:h:/6261A/11CW1352MP_BIRD61A_11C_V33_GPRS_MMI/Tools/MinGW/include/c++/3.3.1/bits/stl_iterator.h **** {  
 564:h:/6261A/11CW1352MP_BIRD61A_11C_V33_GPRS_MMI/Tools/MinGW/include/c++/3.3.1/bits/stl_iterator.h ****   // This iterator adapter is 'normal' in the sense that it does not
 565:h:/6261A/11CW1352MP_BIRD61A_11C_V33_GPRS_MMI/Tools/MinGW/include/c++/3.3.1/bits/stl_iterator.h ****   // change the semantics of any of the operators of its iterator
 566:h:/6261A/11CW1352MP_BIRD61A_11C_V33_GPRS_MMI/Tools/MinGW/include/c++/3.3.1/bits/stl_iterator.h ****   // parameter.  Its primary purpose is to convert an iterator that is
 567:h:/6261A/11CW1352MP_BIRD61A_11C_V33_GPRS_MMI/Tools/MinGW/include/c++/3.3.1/bits/stl_iterator.h ****   // not a class, e.g. a pointer, into an iterator that is a class.
 568:h:/6261A/11CW1352MP_BIRD61A_11C_V33_GPRS_MMI/Tools/MinGW/include/c++/3.3.1/bits/stl_iterator.h ****   // The _Container parameter exists solely so that different containers
 569:h:/6261A/11CW1352MP_BIRD61A_11C_V33_GPRS_MMI/Tools/MinGW/include/c++/3.3.1/bits/stl_iterator.h ****   // using this template can instantiate different types, even if the
 570:h:/6261A/11CW1352MP_BIRD61A_11C_V33_GPRS_MMI/Tools/MinGW/include/c++/3.3.1/bits/stl_iterator.h ****   // _Iterator parameter is the same.
 571:h:/6261A/11CW1352MP_BIRD61A_11C_V33_GPRS_MMI/Tools/MinGW/include/c++/3.3.1/bits/stl_iterator.h ****   using std::iterator_traits;
 572:h:/6261A/11CW1352MP_BIRD61A_11C_V33_GPRS_MMI/Tools/MinGW/include/c++/3.3.1/bits/stl_iterator.h ****   using std::iterator;
 573:h:/6261A/11CW1352MP_BIRD61A_11C_V33_GPRS_MMI/Tools/MinGW/include/c++/3.3.1/bits/stl_iterator.h ****   template<typename _Iterator, typename _Container>
 574:h:/6261A/11CW1352MP_BIRD61A_11C_V33_GPRS_MMI/Tools/MinGW/include/c++/3.3.1/bits/stl_iterator.h ****     class __normal_iterator
 575:h:/6261A/11CW1352MP_BIRD61A_11C_V33_GPRS_MMI/Tools/MinGW/include/c++/3.3.1/bits/stl_iterator.h ****       : public iterator<typename iterator_traits<_Iterator>::iterator_category,
 576:h:/6261A/11CW1352MP_BIRD61A_11C_V33_GPRS_MMI/Tools/MinGW/include/c++/3.3.1/bits/stl_iterator.h ****                         typename iterator_traits<_Iterator>::value_type,
 577:h:/6261A/11CW1352MP_BIRD61A_11C_V33_GPRS_MMI/Tools/MinGW/include/c++/3.3.1/bits/stl_iterator.h ****                         typename iterator_traits<_Iterator>::difference_type,
 578:h:/6261A/11CW1352MP_BIRD61A_11C_V33_GPRS_MMI/Tools/MinGW/include/c++/3.3.1/bits/stl_iterator.h ****                         typename iterator_traits<_Iterator>::pointer,
 579:h:/6261A/11CW1352MP_BIRD61A_11C_V33_GPRS_MMI/Tools/MinGW/include/c++/3.3.1/bits/stl_iterator.h ****                         typename iterator_traits<_Iterator>::reference>
 580:h:/6261A/11CW1352MP_BIRD61A_11C_V33_GPRS_MMI/Tools/MinGW/include/c++/3.3.1/bits/stl_iterator.h ****     {
 581:h:/6261A/11CW1352MP_BIRD61A_11C_V33_GPRS_MMI/Tools/MinGW/include/c++/3.3.1/bits/stl_iterator.h ****     protected:
 582:h:/6261A/11CW1352MP_BIRD61A_11C_V33_GPRS_MMI/Tools/MinGW/include/c++/3.3.1/bits/stl_iterator.h ****       _Iterator _M_current;
 583:h:/6261A/11CW1352MP_BIRD61A_11C_V33_GPRS_MMI/Tools/MinGW/include/c++/3.3.1/bits/stl_iterator.h ****       
 584:h:/6261A/11CW1352MP_BIRD61A_11C_V33_GPRS_MMI/Tools/MinGW/include/c++/3.3.1/bits/stl_iterator.h ****     public:
 585:h:/6261A/11CW1352MP_BIRD61A_11C_V33_GPRS_MMI/Tools/MinGW/include/c++/3.3.1/bits/stl_iterator.h ****       typedef typename iterator_traits<_Iterator>::difference_type 	
 586:h:/6261A/11CW1352MP_BIRD61A_11C_V33_GPRS_MMI/Tools/MinGW/include/c++/3.3.1/bits/stl_iterator.h ****       							       difference_type;
 587:h:/6261A/11CW1352MP_BIRD61A_11C_V33_GPRS_MMI/Tools/MinGW/include/c++/3.3.1/bits/stl_iterator.h ****       typedef typename iterator_traits<_Iterator>::reference   reference;
 588:h:/6261A/11CW1352MP_BIRD61A_11C_V33_GPRS_MMI/Tools/MinGW/include/c++/3.3.1/bits/stl_iterator.h ****       typedef typename iterator_traits<_Iterator>::pointer     pointer;
 589:h:/6261A/11CW1352MP_BIRD61A_11C_V33_GPRS_MMI/Tools/MinGW/include/c++/3.3.1/bits/stl_iterator.h **** 
 590:h:/6261A/11CW1352MP_BIRD61A_11C_V33_GPRS_MMI/Tools/MinGW/include/c++/3.3.1/bits/stl_iterator.h ****       __normal_iterator() : _M_current(_Iterator()) { }
 591:h:/6261A/11CW1352MP_BIRD61A_11C_V33_GPRS_MMI/Tools/MinGW/include/c++/3.3.1/bits/stl_iterator.h **** 
 592:h:/6261A/11CW1352MP_BIRD61A_11C_V33_GPRS_MMI/Tools/MinGW/include/c++/3.3.1/bits/stl_iterator.h ****       explicit 
 593:h:/6261A/11CW1352MP_BIRD61A_11C_V33_GPRS_MMI/Tools/MinGW/include/c++/3.3.1/bits/stl_iterator.h ****       __normal_iterator(const _Iterator& __i) : _M_current(__i) { }
 594:h:/6261A/11CW1352MP_BIRD61A_11C_V33_GPRS_MMI/Tools/MinGW/include/c++/3.3.1/bits/stl_iterator.h **** 
 595:h:/6261A/11CW1352MP_BIRD61A_11C_V33_GPRS_MMI/Tools/MinGW/include/c++/3.3.1/bits/stl_iterator.h ****       // Allow iterator to const_iterator conversion
 596:h:/6261A/11CW1352MP_BIRD61A_11C_V33_GPRS_MMI/Tools/MinGW/include/c++/3.3.1/bits/stl_iterator.h ****       template<typename _Iter>
 597:h:/6261A/11CW1352MP_BIRD61A_11C_V33_GPRS_MMI/Tools/MinGW/include/c++/3.3.1/bits/stl_iterator.h ****       inline __normal_iterator(const __normal_iterator<_Iter, _Container>& __i)
 598:h:/6261A/11CW1352MP_BIRD61A_11C_V33_GPRS_MMI/Tools/MinGW/include/c++/3.3.1/bits/stl_iterator.h **** 	: _M_current(__i.base()) { }
 599:h:/6261A/11CW1352MP_BIRD61A_11C_V33_GPRS_MMI/Tools/MinGW/include/c++/3.3.1/bits/stl_iterator.h **** 
 600:h:/6261A/11CW1352MP_BIRD61A_11C_V33_GPRS_MMI/Tools/MinGW/include/c++/3.3.1/bits/stl_iterator.h ****       // Forward iterator requirements
 601:h:/6261A/11CW1352MP_BIRD61A_11C_V33_GPRS_MMI/Tools/MinGW/include/c++/3.3.1/bits/stl_iterator.h ****       reference
 602:h:/6261A/11CW1352MP_BIRD61A_11C_V33_GPRS_MMI/Tools/MinGW/include/c++/3.3.1/bits/stl_iterator.h ****       operator*() const { return *_M_current; }
 603:h:/6261A/11CW1352MP_BIRD61A_11C_V33_GPRS_MMI/Tools/MinGW/include/c++/3.3.1/bits/stl_iterator.h ****       
 604:h:/6261A/11CW1352MP_BIRD61A_11C_V33_GPRS_MMI/Tools/MinGW/include/c++/3.3.1/bits/stl_iterator.h ****       pointer
 605:h:/6261A/11CW1352MP_BIRD61A_11C_V33_GPRS_MMI/Tools/MinGW/include/c++/3.3.1/bits/stl_iterator.h ****       operator->() const { return _M_current; }
 606:h:/6261A/11CW1352MP_BIRD61A_11C_V33_GPRS_MMI/Tools/MinGW/include/c++/3.3.1/bits/stl_iterator.h ****       
 607:h:/6261A/11CW1352MP_BIRD61A_11C_V33_GPRS_MMI/Tools/MinGW/include/c++/3.3.1/bits/stl_iterator.h ****       __normal_iterator&
 608:h:/6261A/11CW1352MP_BIRD61A_11C_V33_GPRS_MMI/Tools/MinGW/include/c++/3.3.1/bits/stl_iterator.h ****       operator++() { ++_M_current; return *this; }
 609:h:/6261A/11CW1352MP_BIRD61A_11C_V33_GPRS_MMI/Tools/MinGW/include/c++/3.3.1/bits/stl_iterator.h ****       
 610:h:/6261A/11CW1352MP_BIRD61A_11C_V33_GPRS_MMI/Tools/MinGW/include/c++/3.3.1/bits/stl_iterator.h ****       __normal_iterator
 611:h:/6261A/11CW1352MP_BIRD61A_11C_V33_GPRS_MMI/Tools/MinGW/include/c++/3.3.1/bits/stl_iterator.h ****       operator++(int) { return __normal_iterator(_M_current++); }
 612:h:/6261A/11CW1352MP_BIRD61A_11C_V33_GPRS_MMI/Tools/MinGW/include/c++/3.3.1/bits/stl_iterator.h ****       
 613:h:/6261A/11CW1352MP_BIRD61A_11C_V33_GPRS_MMI/Tools/MinGW/include/c++/3.3.1/bits/stl_iterator.h ****       // Bidirectional iterator requirements
 614:h:/6261A/11CW1352MP_BIRD61A_11C_V33_GPRS_MMI/Tools/MinGW/include/c++/3.3.1/bits/stl_iterator.h ****       __normal_iterator&
GAS LISTING h:/6261A/11CW1352MP_BIRD61A_11C_V33_GPRS_MMI/plutommi/Customer/ResGenerator/gcctmp/ccEHcaaa.s 			page 88


 615:h:/6261A/11CW1352MP_BIRD61A_11C_V33_GPRS_MMI/Tools/MinGW/include/c++/3.3.1/bits/stl_iterator.h ****       operator--() { --_M_current; return *this; }
 616:h:/6261A/11CW1352MP_BIRD61A_11C_V33_GPRS_MMI/Tools/MinGW/include/c++/3.3.1/bits/stl_iterator.h ****       
 617:h:/6261A/11CW1352MP_BIRD61A_11C_V33_GPRS_MMI/Tools/MinGW/include/c++/3.3.1/bits/stl_iterator.h ****       __normal_iterator
 618:h:/6261A/11CW1352MP_BIRD61A_11C_V33_GPRS_MMI/Tools/MinGW/include/c++/3.3.1/bits/stl_iterator.h ****       operator--(int) { return __normal_iterator(_M_current--); }
 619:h:/6261A/11CW1352MP_BIRD61A_11C_V33_GPRS_MMI/Tools/MinGW/include/c++/3.3.1/bits/stl_iterator.h ****       
 620:h:/6261A/11CW1352MP_BIRD61A_11C_V33_GPRS_MMI/Tools/MinGW/include/c++/3.3.1/bits/stl_iterator.h ****       // Random access iterator requirements
 621:h:/6261A/11CW1352MP_BIRD61A_11C_V33_GPRS_MMI/Tools/MinGW/include/c++/3.3.1/bits/stl_iterator.h ****       reference
 622:h:/6261A/11CW1352MP_BIRD61A_11C_V33_GPRS_MMI/Tools/MinGW/include/c++/3.3.1/bits/stl_iterator.h ****       operator[](const difference_type& __n) const
 623:h:/6261A/11CW1352MP_BIRD61A_11C_V33_GPRS_MMI/Tools/MinGW/include/c++/3.3.1/bits/stl_iterator.h ****       { return _M_current[__n]; }
 624:h:/6261A/11CW1352MP_BIRD61A_11C_V33_GPRS_MMI/Tools/MinGW/include/c++/3.3.1/bits/stl_iterator.h ****       
 625:h:/6261A/11CW1352MP_BIRD61A_11C_V33_GPRS_MMI/Tools/MinGW/include/c++/3.3.1/bits/stl_iterator.h ****       __normal_iterator&
 626:h:/6261A/11CW1352MP_BIRD61A_11C_V33_GPRS_MMI/Tools/MinGW/include/c++/3.3.1/bits/stl_iterator.h ****       operator+=(const difference_type& __n)
 627:h:/6261A/11CW1352MP_BIRD61A_11C_V33_GPRS_MMI/Tools/MinGW/include/c++/3.3.1/bits/stl_iterator.h ****       { _M_current += __n; return *this; }
 628:h:/6261A/11CW1352MP_BIRD61A_11C_V33_GPRS_MMI/Tools/MinGW/include/c++/3.3.1/bits/stl_iterator.h **** 
 629:h:/6261A/11CW1352MP_BIRD61A_11C_V33_GPRS_MMI/Tools/MinGW/include/c++/3.3.1/bits/stl_iterator.h ****       __normal_iterator
 630:h:/6261A/11CW1352MP_BIRD61A_11C_V33_GPRS_MMI/Tools/MinGW/include/c++/3.3.1/bits/stl_iterator.h ****       operator+(const difference_type& __n) const
 631:h:/6261A/11CW1352MP_BIRD61A_11C_V33_GPRS_MMI/Tools/MinGW/include/c++/3.3.1/bits/stl_iterator.h ****       { return __normal_iterator(_M_current + __n); }
 632:h:/6261A/11CW1352MP_BIRD61A_11C_V33_GPRS_MMI/Tools/MinGW/include/c++/3.3.1/bits/stl_iterator.h ****       
 633:h:/6261A/11CW1352MP_BIRD61A_11C_V33_GPRS_MMI/Tools/MinGW/include/c++/3.3.1/bits/stl_iterator.h ****       __normal_iterator&
 634:h:/6261A/11CW1352MP_BIRD61A_11C_V33_GPRS_MMI/Tools/MinGW/include/c++/3.3.1/bits/stl_iterator.h ****       operator-=(const difference_type& __n)
 635:h:/6261A/11CW1352MP_BIRD61A_11C_V33_GPRS_MMI/Tools/MinGW/include/c++/3.3.1/bits/stl_iterator.h ****       { _M_current -= __n; return *this; }
 636:h:/6261A/11CW1352MP_BIRD61A_11C_V33_GPRS_MMI/Tools/MinGW/include/c++/3.3.1/bits/stl_iterator.h ****       
 637:h:/6261A/11CW1352MP_BIRD61A_11C_V33_GPRS_MMI/Tools/MinGW/include/c++/3.3.1/bits/stl_iterator.h ****       __normal_iterator
 638:h:/6261A/11CW1352MP_BIRD61A_11C_V33_GPRS_MMI/Tools/MinGW/include/c++/3.3.1/bits/stl_iterator.h ****       operator-(const difference_type& __n) const
 639:h:/6261A/11CW1352MP_BIRD61A_11C_V33_GPRS_MMI/Tools/MinGW/include/c++/3.3.1/bits/stl_iterator.h ****       { return __normal_iterator(_M_current - __n); }
 640:h:/6261A/11CW1352MP_BIRD61A_11C_V33_GPRS_MMI/Tools/MinGW/include/c++/3.3.1/bits/stl_iterator.h ****       
 641:h:/6261A/11CW1352MP_BIRD61A_11C_V33_GPRS_MMI/Tools/MinGW/include/c++/3.3.1/bits/stl_iterator.h ****       const _Iterator& 
 642:h:/6261A/11CW1352MP_BIRD61A_11C_V33_GPRS_MMI/Tools/MinGW/include/c++/3.3.1/bits/stl_iterator.h ****       base() const { return _M_current; }
 643:h:/6261A/11CW1352MP_BIRD61A_11C_V33_GPRS_MMI/Tools/MinGW/include/c++/3.3.1/bits/stl_iterator.h ****     };
 644:h:/6261A/11CW1352MP_BIRD61A_11C_V33_GPRS_MMI/Tools/MinGW/include/c++/3.3.1/bits/stl_iterator.h **** 
 645:h:/6261A/11CW1352MP_BIRD61A_11C_V33_GPRS_MMI/Tools/MinGW/include/c++/3.3.1/bits/stl_iterator.h ****   // Note: In what follows, the left- and right-hand-side iterators are
 646:h:/6261A/11CW1352MP_BIRD61A_11C_V33_GPRS_MMI/Tools/MinGW/include/c++/3.3.1/bits/stl_iterator.h ****   // allowed to vary in types (conceptually in cv-qualification) so that
 647:h:/6261A/11CW1352MP_BIRD61A_11C_V33_GPRS_MMI/Tools/MinGW/include/c++/3.3.1/bits/stl_iterator.h ****   // comparaison between cv-qualified and non-cv-qualified iterators be
 648:h:/6261A/11CW1352MP_BIRD61A_11C_V33_GPRS_MMI/Tools/MinGW/include/c++/3.3.1/bits/stl_iterator.h ****   // valid.  However, the greedy and unfriendly operators in std::rel_ops
 649:h:/6261A/11CW1352MP_BIRD61A_11C_V33_GPRS_MMI/Tools/MinGW/include/c++/3.3.1/bits/stl_iterator.h ****   // will make overload resolution ambiguous (when in scope) if we don't
 650:h:/6261A/11CW1352MP_BIRD61A_11C_V33_GPRS_MMI/Tools/MinGW/include/c++/3.3.1/bits/stl_iterator.h ****   // provide overloads whose operands are of the same type.  Can someone
 651:h:/6261A/11CW1352MP_BIRD61A_11C_V33_GPRS_MMI/Tools/MinGW/include/c++/3.3.1/bits/stl_iterator.h ****   // remind me what generic programming is about? -- Gaby
 652:h:/6261A/11CW1352MP_BIRD61A_11C_V33_GPRS_MMI/Tools/MinGW/include/c++/3.3.1/bits/stl_iterator.h ****   
 653:h:/6261A/11CW1352MP_BIRD61A_11C_V33_GPRS_MMI/Tools/MinGW/include/c++/3.3.1/bits/stl_iterator.h ****   // Forward iterator requirements
 654:h:/6261A/11CW1352MP_BIRD61A_11C_V33_GPRS_MMI/Tools/MinGW/include/c++/3.3.1/bits/stl_iterator.h ****   template<typename _IteratorL, typename _IteratorR, typename _Container>
 655:h:/6261A/11CW1352MP_BIRD61A_11C_V33_GPRS_MMI/Tools/MinGW/include/c++/3.3.1/bits/stl_iterator.h ****   inline bool
 656:h:/6261A/11CW1352MP_BIRD61A_11C_V33_GPRS_MMI/Tools/MinGW/include/c++/3.3.1/bits/stl_iterator.h ****   operator==(const __normal_iterator<_IteratorL, _Container>& __lhs,
 657:h:/6261A/11CW1352MP_BIRD61A_11C_V33_GPRS_MMI/Tools/MinGW/include/c++/3.3.1/bits/stl_iterator.h **** 	     const __normal_iterator<_IteratorR, _Container>& __rhs)
 658:h:/6261A/11CW1352MP_BIRD61A_11C_V33_GPRS_MMI/Tools/MinGW/include/c++/3.3.1/bits/stl_iterator.h ****   { return __lhs.base() == __rhs.base(); }
 659:h:/6261A/11CW1352MP_BIRD61A_11C_V33_GPRS_MMI/Tools/MinGW/include/c++/3.3.1/bits/stl_iterator.h **** 
 660:h:/6261A/11CW1352MP_BIRD61A_11C_V33_GPRS_MMI/Tools/MinGW/include/c++/3.3.1/bits/stl_iterator.h ****   template<typename _Iterator, typename _Container>
 661:h:/6261A/11CW1352MP_BIRD61A_11C_V33_GPRS_MMI/Tools/MinGW/include/c++/3.3.1/bits/stl_iterator.h ****   inline bool
 662:h:/6261A/11CW1352MP_BIRD61A_11C_V33_GPRS_MMI/Tools/MinGW/include/c++/3.3.1/bits/stl_iterator.h ****   operator==(const __normal_iterator<_Iterator, _Container>& __lhs,
 663:h:/6261A/11CW1352MP_BIRD61A_11C_V33_GPRS_MMI/Tools/MinGW/include/c++/3.3.1/bits/stl_iterator.h ****              const __normal_iterator<_Iterator, _Container>& __rhs)
 664:h:/6261A/11CW1352MP_BIRD61A_11C_V33_GPRS_MMI/Tools/MinGW/include/c++/3.3.1/bits/stl_iterator.h ****   { return __lhs.base() == __rhs.base(); }
 665:h:/6261A/11CW1352MP_BIRD61A_11C_V33_GPRS_MMI/Tools/MinGW/include/c++/3.3.1/bits/stl_iterator.h **** 
 666:h:/6261A/11CW1352MP_BIRD61A_11C_V33_GPRS_MMI/Tools/MinGW/include/c++/3.3.1/bits/stl_iterator.h ****   template<typename _IteratorL, typename _IteratorR, typename _Container>
 667:h:/6261A/11CW1352MP_BIRD61A_11C_V33_GPRS_MMI/Tools/MinGW/include/c++/3.3.1/bits/stl_iterator.h ****   inline bool
 668:h:/6261A/11CW1352MP_BIRD61A_11C_V33_GPRS_MMI/Tools/MinGW/include/c++/3.3.1/bits/stl_iterator.h ****   operator!=(const __normal_iterator<_IteratorL, _Container>& __lhs,
 669:h:/6261A/11CW1352MP_BIRD61A_11C_V33_GPRS_MMI/Tools/MinGW/include/c++/3.3.1/bits/stl_iterator.h **** 	     const __normal_iterator<_IteratorR, _Container>& __rhs)
 670:h:/6261A/11CW1352MP_BIRD61A_11C_V33_GPRS_MMI/Tools/MinGW/include/c++/3.3.1/bits/stl_iterator.h ****   { return __lhs.base() != __rhs.base(); }
 671:h:/6261A/11CW1352MP_BIRD61A_11C_V33_GPRS_MMI/Tools/MinGW/include/c++/3.3.1/bits/stl_iterator.h **** 
GAS LISTING h:/6261A/11CW1352MP_BIRD61A_11C_V33_GPRS_MMI/plutommi/Customer/ResGenerator/gcctmp/ccEHcaaa.s 			page 89


 672:h:/6261A/11CW1352MP_BIRD61A_11C_V33_GPRS_MMI/Tools/MinGW/include/c++/3.3.1/bits/stl_iterator.h ****   template<typename _Iterator, typename _Container>
 673:h:/6261A/11CW1352MP_BIRD61A_11C_V33_GPRS_MMI/Tools/MinGW/include/c++/3.3.1/bits/stl_iterator.h ****   inline bool
 674:h:/6261A/11CW1352MP_BIRD61A_11C_V33_GPRS_MMI/Tools/MinGW/include/c++/3.3.1/bits/stl_iterator.h ****   operator!=(const __normal_iterator<_Iterator, _Container>& __lhs,
 675:h:/6261A/11CW1352MP_BIRD61A_11C_V33_GPRS_MMI/Tools/MinGW/include/c++/3.3.1/bits/stl_iterator.h ****              const __normal_iterator<_Iterator, _Container>& __rhs)
 676:h:/6261A/11CW1352MP_BIRD61A_11C_V33_GPRS_MMI/Tools/MinGW/include/c++/3.3.1/bits/stl_iterator.h ****   { return __lhs.base() != __rhs.base(); }
 6448              	LM179:
 6449 0000 55       		pushl	%ebp
 6450 0001 89E5     		movl	%esp, %ebp
 6451 0003 53       		pushl	%ebx
 6452 0004 83EC04   		subl	$4, %esp
 6454              	LM180:
 6455              	LBB38:
 6456 0007 8B4508   		movl	8(%ebp), %eax
 6457 000a 890424   		movl	%eax, (%esp)
 6458 000d E8000000 		call	__ZNK9__gnu_cxx17__normal_iteratorIPN10ThreadPool10ThreadDataESt6vectorIS2_SaIS2_EEE4baseEv
 6458      00
 6459 0012 89C3     		movl	%eax, %ebx
 6460 0014 8B450C   		movl	12(%ebp), %eax
 6461 0017 890424   		movl	%eax, (%esp)
 6462 001a E8000000 		call	__ZNK9__gnu_cxx17__normal_iteratorIPN10ThreadPool10ThreadDataESt6vectorIS2_SaIS2_EEE4baseEv
 6462      00
 6463 001f 89C2     		movl	%eax, %edx
 6464 0021 8B03     		movl	(%ebx), %eax
 6465 0023 3B02     		cmpl	(%edx), %eax
 6466 0025 0F95C0   		setne	%al
 6467 0028 0FB6C0   		movzbl	%al, %eax
 6468 002b 83C404   		addl	$4, %esp
 6469 002e 5B       		popl	%ebx
 6470 002f 5D       		popl	%ebp
 6471 0030 C3       		ret
 6472              	LBE38:
 6473              	Lscope21:
 6475 0031 909090   		.section	.text$_ZN9__gnu_cxx17__normal_iteratorIPN10ThreadPool10ThreadDataESt6vectorIS2_SaIS2_EEEp
 6476              		.linkonce discard
 6477              		.align 2
 6480              	.globl __ZN9__gnu_cxx17__normal_iteratorIPN10ThreadPool10ThreadDataESt6vectorIS2_SaIS2_EEEppEv
 6482              	__ZN9__gnu_cxx17__normal_iteratorIPN10ThreadPool10ThreadDataESt6vectorIS2_SaIS2_EEEppEv:
 6484              	LM181:
 6485 0000 55       		pushl	%ebp
 6486 0001 89E5     		movl	%esp, %ebp
 6488              	LM182:
 6489              	LBB39:
 6490 0003 8B4508   		movl	8(%ebp), %eax
 6491 0006 83000C   		addl	$12, (%eax)
 6492 0009 8B4508   		movl	8(%ebp), %eax
 6493 000c 5D       		popl	%ebp
 6494 000d C3       		ret
 6495              	LBE39:
 6496              	Lscope22:
 6498 000e 9090     		.section	.text$_ZNK9__gnu_cxx17__normal_iteratorIPN10ThreadPool10ThreadDataESt6vectorIS2_SaIS2_EEE
 6499              		.linkonce discard
 6500              		.align 2
 6503              	.globl __ZNK9__gnu_cxx17__normal_iteratorIPN10ThreadPool10ThreadDataESt6vectorIS2_SaIS2_EEEptEv
 6505              	__ZNK9__gnu_cxx17__normal_iteratorIPN10ThreadPool10ThreadDataESt6vectorIS2_SaIS2_EEEptEv:
 6507              	LM183:
 6508 0000 55       		pushl	%ebp
 6509 0001 89E5     		movl	%esp, %ebp
GAS LISTING h:/6261A/11CW1352MP_BIRD61A_11C_V33_GPRS_MMI/plutommi/Customer/ResGenerator/gcctmp/ccEHcaaa.s 			page 90


 6511              	LM184:
 6512              	LBB40:
 6513 0003 8B4508   		movl	8(%ebp), %eax
 6514 0006 8B00     		movl	(%eax), %eax
 6515 0008 5D       		popl	%ebp
 6516 0009 C3       		ret
 6517              	LBE40:
 6518              	Lscope23:
 6520 000a 9090     		.section	.text$_ZNSt4listIN10ThreadPool7JobDataESaIS1_EE5beginEv,"x"
 6521              		.linkonce discard
 6522              		.align 2
 6525              	.globl __ZNSt4listIN10ThreadPool7JobDataESaIS1_EE5beginEv
 6527              	__ZNSt4listIN10ThreadPool7JobDataESaIS1_EE5beginEv:
 6529              	Ltext6:
 514:h:/6261A/11CW1352MP_BIRD61A_11C_V33_GPRS_MMI/Tools/MinGW/include/c++/3.3.1/bits/stl_list.h ****   
 515:h:/6261A/11CW1352MP_BIRD61A_11C_V33_GPRS_MMI/Tools/MinGW/include/c++/3.3.1/bits/stl_list.h ****     /**
 516:h:/6261A/11CW1352MP_BIRD61A_11C_V33_GPRS_MMI/Tools/MinGW/include/c++/3.3.1/bits/stl_list.h ****      *  @brief  %List assignment operator.
 517:h:/6261A/11CW1352MP_BIRD61A_11C_V33_GPRS_MMI/Tools/MinGW/include/c++/3.3.1/bits/stl_list.h ****      *  @param  x  A %list of identical element and allocator types.
 518:h:/6261A/11CW1352MP_BIRD61A_11C_V33_GPRS_MMI/Tools/MinGW/include/c++/3.3.1/bits/stl_list.h ****      * 
 519:h:/6261A/11CW1352MP_BIRD61A_11C_V33_GPRS_MMI/Tools/MinGW/include/c++/3.3.1/bits/stl_list.h ****      *  All the elements of @a x are copied, but unlike the copy constructor,
 520:h:/6261A/11CW1352MP_BIRD61A_11C_V33_GPRS_MMI/Tools/MinGW/include/c++/3.3.1/bits/stl_list.h ****      *  the allocator object is not copied.
 521:h:/6261A/11CW1352MP_BIRD61A_11C_V33_GPRS_MMI/Tools/MinGW/include/c++/3.3.1/bits/stl_list.h ****     */
 522:h:/6261A/11CW1352MP_BIRD61A_11C_V33_GPRS_MMI/Tools/MinGW/include/c++/3.3.1/bits/stl_list.h ****     list&
 523:h:/6261A/11CW1352MP_BIRD61A_11C_V33_GPRS_MMI/Tools/MinGW/include/c++/3.3.1/bits/stl_list.h ****     operator=(const list& __x);
 524:h:/6261A/11CW1352MP_BIRD61A_11C_V33_GPRS_MMI/Tools/MinGW/include/c++/3.3.1/bits/stl_list.h ****   
 525:h:/6261A/11CW1352MP_BIRD61A_11C_V33_GPRS_MMI/Tools/MinGW/include/c++/3.3.1/bits/stl_list.h ****     /**
 526:h:/6261A/11CW1352MP_BIRD61A_11C_V33_GPRS_MMI/Tools/MinGW/include/c++/3.3.1/bits/stl_list.h ****      *  @brief  Assigns a given value to a %list.
 527:h:/6261A/11CW1352MP_BIRD61A_11C_V33_GPRS_MMI/Tools/MinGW/include/c++/3.3.1/bits/stl_list.h ****      *  @param  n  Number of elements to be assigned.
 528:h:/6261A/11CW1352MP_BIRD61A_11C_V33_GPRS_MMI/Tools/MinGW/include/c++/3.3.1/bits/stl_list.h ****      *  @param  val  Value to be assigned.
 529:h:/6261A/11CW1352MP_BIRD61A_11C_V33_GPRS_MMI/Tools/MinGW/include/c++/3.3.1/bits/stl_list.h ****      *
 530:h:/6261A/11CW1352MP_BIRD61A_11C_V33_GPRS_MMI/Tools/MinGW/include/c++/3.3.1/bits/stl_list.h ****      *  This function fills a %list with @a n copies of the given value.
 531:h:/6261A/11CW1352MP_BIRD61A_11C_V33_GPRS_MMI/Tools/MinGW/include/c++/3.3.1/bits/stl_list.h ****      *  Note that the assignment completely changes the %list and that the
 532:h:/6261A/11CW1352MP_BIRD61A_11C_V33_GPRS_MMI/Tools/MinGW/include/c++/3.3.1/bits/stl_list.h ****      *  resulting %list's size is the same as the number of elements assigned.
 533:h:/6261A/11CW1352MP_BIRD61A_11C_V33_GPRS_MMI/Tools/MinGW/include/c++/3.3.1/bits/stl_list.h ****      *  Old data may be lost.
 534:h:/6261A/11CW1352MP_BIRD61A_11C_V33_GPRS_MMI/Tools/MinGW/include/c++/3.3.1/bits/stl_list.h ****     */
 535:h:/6261A/11CW1352MP_BIRD61A_11C_V33_GPRS_MMI/Tools/MinGW/include/c++/3.3.1/bits/stl_list.h ****     void
 536:h:/6261A/11CW1352MP_BIRD61A_11C_V33_GPRS_MMI/Tools/MinGW/include/c++/3.3.1/bits/stl_list.h ****     assign(size_type __n, const value_type& __val) { _M_fill_assign(__n, __val); }
 537:h:/6261A/11CW1352MP_BIRD61A_11C_V33_GPRS_MMI/Tools/MinGW/include/c++/3.3.1/bits/stl_list.h ****   
 538:h:/6261A/11CW1352MP_BIRD61A_11C_V33_GPRS_MMI/Tools/MinGW/include/c++/3.3.1/bits/stl_list.h ****     /**
 539:h:/6261A/11CW1352MP_BIRD61A_11C_V33_GPRS_MMI/Tools/MinGW/include/c++/3.3.1/bits/stl_list.h ****      *  @brief  Assigns a range to a %list.
 540:h:/6261A/11CW1352MP_BIRD61A_11C_V33_GPRS_MMI/Tools/MinGW/include/c++/3.3.1/bits/stl_list.h ****      *  @param  first  An input iterator.
 541:h:/6261A/11CW1352MP_BIRD61A_11C_V33_GPRS_MMI/Tools/MinGW/include/c++/3.3.1/bits/stl_list.h ****      *  @param  last   An input iterator.
 542:h:/6261A/11CW1352MP_BIRD61A_11C_V33_GPRS_MMI/Tools/MinGW/include/c++/3.3.1/bits/stl_list.h ****      *
 543:h:/6261A/11CW1352MP_BIRD61A_11C_V33_GPRS_MMI/Tools/MinGW/include/c++/3.3.1/bits/stl_list.h ****      *  This function fills a %list with copies of the elements in the
 544:h:/6261A/11CW1352MP_BIRD61A_11C_V33_GPRS_MMI/Tools/MinGW/include/c++/3.3.1/bits/stl_list.h ****      *  range [first,last).
 545:h:/6261A/11CW1352MP_BIRD61A_11C_V33_GPRS_MMI/Tools/MinGW/include/c++/3.3.1/bits/stl_list.h ****      *
 546:h:/6261A/11CW1352MP_BIRD61A_11C_V33_GPRS_MMI/Tools/MinGW/include/c++/3.3.1/bits/stl_list.h ****      *  Note that the assignment completely changes the %list and that the
 547:h:/6261A/11CW1352MP_BIRD61A_11C_V33_GPRS_MMI/Tools/MinGW/include/c++/3.3.1/bits/stl_list.h ****      *  resulting %list's size is the same as the number of elements assigned.
 548:h:/6261A/11CW1352MP_BIRD61A_11C_V33_GPRS_MMI/Tools/MinGW/include/c++/3.3.1/bits/stl_list.h ****      *  Old data may be lost.
 549:h:/6261A/11CW1352MP_BIRD61A_11C_V33_GPRS_MMI/Tools/MinGW/include/c++/3.3.1/bits/stl_list.h ****     */
 550:h:/6261A/11CW1352MP_BIRD61A_11C_V33_GPRS_MMI/Tools/MinGW/include/c++/3.3.1/bits/stl_list.h ****     template<typename _InputIterator>
 551:h:/6261A/11CW1352MP_BIRD61A_11C_V33_GPRS_MMI/Tools/MinGW/include/c++/3.3.1/bits/stl_list.h ****       void
 552:h:/6261A/11CW1352MP_BIRD61A_11C_V33_GPRS_MMI/Tools/MinGW/include/c++/3.3.1/bits/stl_list.h ****       assign(_InputIterator __first, _InputIterator __last)
 553:h:/6261A/11CW1352MP_BIRD61A_11C_V33_GPRS_MMI/Tools/MinGW/include/c++/3.3.1/bits/stl_list.h ****       {
 554:h:/6261A/11CW1352MP_BIRD61A_11C_V33_GPRS_MMI/Tools/MinGW/include/c++/3.3.1/bits/stl_list.h ****         // Check whether it's an integral type.  If so, it's not an iterator.
 555:h:/6261A/11CW1352MP_BIRD61A_11C_V33_GPRS_MMI/Tools/MinGW/include/c++/3.3.1/bits/stl_list.h ****         typedef typename _Is_integer<_InputIterator>::_Integral _Integral;
 556:h:/6261A/11CW1352MP_BIRD61A_11C_V33_GPRS_MMI/Tools/MinGW/include/c++/3.3.1/bits/stl_list.h ****         _M_assign_dispatch(__first, __last, _Integral());
GAS LISTING h:/6261A/11CW1352MP_BIRD61A_11C_V33_GPRS_MMI/plutommi/Customer/ResGenerator/gcctmp/ccEHcaaa.s 			page 91


 557:h:/6261A/11CW1352MP_BIRD61A_11C_V33_GPRS_MMI/Tools/MinGW/include/c++/3.3.1/bits/stl_list.h ****       }
 558:h:/6261A/11CW1352MP_BIRD61A_11C_V33_GPRS_MMI/Tools/MinGW/include/c++/3.3.1/bits/stl_list.h ****   
 559:h:/6261A/11CW1352MP_BIRD61A_11C_V33_GPRS_MMI/Tools/MinGW/include/c++/3.3.1/bits/stl_list.h ****     /// Get a copy of the memory allocation object.
 560:h:/6261A/11CW1352MP_BIRD61A_11C_V33_GPRS_MMI/Tools/MinGW/include/c++/3.3.1/bits/stl_list.h ****     allocator_type
 561:h:/6261A/11CW1352MP_BIRD61A_11C_V33_GPRS_MMI/Tools/MinGW/include/c++/3.3.1/bits/stl_list.h ****     get_allocator() const { return _Base::get_allocator(); }
 562:h:/6261A/11CW1352MP_BIRD61A_11C_V33_GPRS_MMI/Tools/MinGW/include/c++/3.3.1/bits/stl_list.h ****   
 563:h:/6261A/11CW1352MP_BIRD61A_11C_V33_GPRS_MMI/Tools/MinGW/include/c++/3.3.1/bits/stl_list.h ****     // iterators
 564:h:/6261A/11CW1352MP_BIRD61A_11C_V33_GPRS_MMI/Tools/MinGW/include/c++/3.3.1/bits/stl_list.h ****     /**
 565:h:/6261A/11CW1352MP_BIRD61A_11C_V33_GPRS_MMI/Tools/MinGW/include/c++/3.3.1/bits/stl_list.h ****      *  Returns a read/write iterator that points to the first element in the
 566:h:/6261A/11CW1352MP_BIRD61A_11C_V33_GPRS_MMI/Tools/MinGW/include/c++/3.3.1/bits/stl_list.h ****      *  %list.  Iteration is done in ordinary element order.
 567:h:/6261A/11CW1352MP_BIRD61A_11C_V33_GPRS_MMI/Tools/MinGW/include/c++/3.3.1/bits/stl_list.h ****     */
 568:h:/6261A/11CW1352MP_BIRD61A_11C_V33_GPRS_MMI/Tools/MinGW/include/c++/3.3.1/bits/stl_list.h ****     iterator
 569:h:/6261A/11CW1352MP_BIRD61A_11C_V33_GPRS_MMI/Tools/MinGW/include/c++/3.3.1/bits/stl_list.h ****     begin() { return static_cast<_Node*>(_M_node->_M_next); }
 6531              	LM185:
 6532 0000 55       		pushl	%ebp
 6533 0001 89E5     		movl	%esp, %ebp
 6534 0003 53       		pushl	%ebx
 6535 0004 83EC14   		subl	$20, %esp
 6536 0007 8B5D08   		movl	8(%ebp), %ebx
 6538              	LM186:
 6539              	LBB41:
 6540 000a 8B450C   		movl	12(%ebp), %eax
 6541 000d 8B00     		movl	(%eax), %eax
 6542 000f 8B00     		movl	(%eax), %eax
 6543 0011 89442404 		movl	%eax, 4(%esp)
 6544 0015 891C24   		movl	%ebx, (%esp)
 6545 0018 E8000000 		call	__ZNSt14_List_iteratorIN10ThreadPool7JobDataERS1_PS1_EC1EPSt10_List_nodeIS1_E
 6545      00
 6546              	LBE41:
 6547 001d 89D8     		movl	%ebx, %eax
 6548 001f 83C414   		addl	$20, %esp
 6549 0022 5B       		popl	%ebx
 6550 0023 5D       		popl	%ebp
 6551 0024 C20400   		ret	$4
 6552              	Lscope24:
 6554 0027 90       		.section	.text$_ZNSt4listIN10ThreadPool7JobDataESaIS1_EE3endEv,"x"
 6555              		.linkonce discard
 6556              		.align 2
 6559              	.globl __ZNSt4listIN10ThreadPool7JobDataESaIS1_EE3endEv
 6561              	__ZNSt4listIN10ThreadPool7JobDataESaIS1_EE3endEv:
 570:h:/6261A/11CW1352MP_BIRD61A_11C_V33_GPRS_MMI/Tools/MinGW/include/c++/3.3.1/bits/stl_list.h ****   
 571:h:/6261A/11CW1352MP_BIRD61A_11C_V33_GPRS_MMI/Tools/MinGW/include/c++/3.3.1/bits/stl_list.h ****     /**
 572:h:/6261A/11CW1352MP_BIRD61A_11C_V33_GPRS_MMI/Tools/MinGW/include/c++/3.3.1/bits/stl_list.h ****      *  Returns a read-only (constant) iterator that points to the first element
 573:h:/6261A/11CW1352MP_BIRD61A_11C_V33_GPRS_MMI/Tools/MinGW/include/c++/3.3.1/bits/stl_list.h ****      *  in the %list.  Iteration is done in ordinary element order.
 574:h:/6261A/11CW1352MP_BIRD61A_11C_V33_GPRS_MMI/Tools/MinGW/include/c++/3.3.1/bits/stl_list.h ****     */
 575:h:/6261A/11CW1352MP_BIRD61A_11C_V33_GPRS_MMI/Tools/MinGW/include/c++/3.3.1/bits/stl_list.h ****     const_iterator
 576:h:/6261A/11CW1352MP_BIRD61A_11C_V33_GPRS_MMI/Tools/MinGW/include/c++/3.3.1/bits/stl_list.h ****     begin() const { return static_cast<_Node*>(_M_node->_M_next); }
 577:h:/6261A/11CW1352MP_BIRD61A_11C_V33_GPRS_MMI/Tools/MinGW/include/c++/3.3.1/bits/stl_list.h ****   
 578:h:/6261A/11CW1352MP_BIRD61A_11C_V33_GPRS_MMI/Tools/MinGW/include/c++/3.3.1/bits/stl_list.h ****     /**
 579:h:/6261A/11CW1352MP_BIRD61A_11C_V33_GPRS_MMI/Tools/MinGW/include/c++/3.3.1/bits/stl_list.h ****      *  Returns a read/write iterator that points one past the last element in
 580:h:/6261A/11CW1352MP_BIRD61A_11C_V33_GPRS_MMI/Tools/MinGW/include/c++/3.3.1/bits/stl_list.h ****      *  the %list.  Iteration is done in ordinary element order.
 581:h:/6261A/11CW1352MP_BIRD61A_11C_V33_GPRS_MMI/Tools/MinGW/include/c++/3.3.1/bits/stl_list.h ****     */
 582:h:/6261A/11CW1352MP_BIRD61A_11C_V33_GPRS_MMI/Tools/MinGW/include/c++/3.3.1/bits/stl_list.h ****     iterator
 583:h:/6261A/11CW1352MP_BIRD61A_11C_V33_GPRS_MMI/Tools/MinGW/include/c++/3.3.1/bits/stl_list.h ****     end() { return _M_node; }
 6563              	LM187:
 6564 0000 55       		pushl	%ebp
 6565 0001 89E5     		movl	%esp, %ebp
GAS LISTING h:/6261A/11CW1352MP_BIRD61A_11C_V33_GPRS_MMI/plutommi/Customer/ResGenerator/gcctmp/ccEHcaaa.s 			page 92


 6566 0003 53       		pushl	%ebx
 6567 0004 83EC14   		subl	$20, %esp
 6568 0007 8B5D08   		movl	8(%ebp), %ebx
 6570              	LM188:
 6571              	LBB42:
 6572 000a 8B450C   		movl	12(%ebp), %eax
 6573 000d 8B00     		movl	(%eax), %eax
 6574 000f 89442404 		movl	%eax, 4(%esp)
 6575 0013 891C24   		movl	%ebx, (%esp)
 6576 0016 E8000000 		call	__ZNSt14_List_iteratorIN10ThreadPool7JobDataERS1_PS1_EC1EPSt10_List_nodeIS1_E
 6576      00
 6577              	LBE42:
 6578 001b 89D8     		movl	%ebx, %eax
 6579 001d 83C414   		addl	$20, %esp
 6580 0020 5B       		popl	%ebx
 6581 0021 5D       		popl	%ebp
 6582 0022 C20400   		ret	$4
 6583              	Lscope25:
 6585 0025 909090   		.section	.text$_ZNSt14_List_iteratorIN10ThreadPool7JobDataERS1_PS1_EppEi,"x"
 6586              		.linkonce discard
 6587              		.align 2
 6590              	.globl __ZNSt14_List_iteratorIN10ThreadPool7JobDataERS1_PS1_EppEi
 6592              	__ZNSt14_List_iteratorIN10ThreadPool7JobDataERS1_PS1_EppEi:
 6594              	LM189:
 6595 0000 55       		pushl	%ebp
 6596 0001 89E5     		movl	%esp, %ebp
 6597 0003 53       		pushl	%ebx
 6598 0004 83EC14   		subl	$20, %esp
 6599 0007 8B5D08   		movl	8(%ebp), %ebx
 6601              	LM190:
 6602              	LBB43:
 6603 000a 8B450C   		movl	12(%ebp), %eax
 6604 000d 89442404 		movl	%eax, 4(%esp)
 6605 0011 891C24   		movl	%ebx, (%esp)
 6606 0014 E8000000 		call	__ZNSt14_List_iteratorIN10ThreadPool7JobDataERS1_PS1_EC1ERKS4_
 6606      00
 6608              	LM191:
 6609 0019 8B450C   		movl	12(%ebp), %eax
 6610 001c 890424   		movl	%eax, (%esp)
 6611 001f E8000000 		call	__ZNSt19_List_iterator_base7_M_incrEv
 6611      00
 6613              	LM192:
 6614              	LBE43:
 6615 0024 89D8     		movl	%ebx, %eax
 6616 0026 83C414   		addl	$20, %esp
 6617 0029 5B       		popl	%ebx
 6618 002a 5D       		popl	%ebp
 6619 002b C20400   		ret	$4
 6623              	Lscope26:
 6625 002e 9090     		.section	.text$_ZNKSt14_List_iteratorIN10ThreadPool7JobDataERS1_PS1_EptEv,"x"
 6626              		.linkonce discard
 6627              		.align 2
 6630              	.globl __ZNKSt14_List_iteratorIN10ThreadPool7JobDataERS1_PS1_EptEv
 6632              	__ZNKSt14_List_iteratorIN10ThreadPool7JobDataERS1_PS1_EptEv:
 6634              	LM193:
 6635 0000 55       		pushl	%ebp
 6636 0001 89E5     		movl	%esp, %ebp
GAS LISTING h:/6261A/11CW1352MP_BIRD61A_11C_V33_GPRS_MMI/plutommi/Customer/ResGenerator/gcctmp/ccEHcaaa.s 			page 93


 6637 0003 83EC08   		subl	$8, %esp
 6639              	LM194:
 6640              	LBB44:
 6641 0006 8B4508   		movl	8(%ebp), %eax
 6642 0009 890424   		movl	%eax, (%esp)
 6643 000c E8000000 		call	__ZNKSt14_List_iteratorIN10ThreadPool7JobDataERS1_PS1_EdeEv
 6643      00
 6644 0011 C9       		leave
 6645 0012 C3       		ret
 6646              	LBE44:
 6647              	Lscope27:
 6649 0013 90       		.section	.text$_ZNSt4listIN10ThreadPool7JobDataESaIS1_EE5clearEv,"x"
 6650              		.linkonce discard
 6651              		.align 2
 6654              	.globl __ZNSt4listIN10ThreadPool7JobDataESaIS1_EE5clearEv
 6656              	__ZNSt4listIN10ThreadPool7JobDataESaIS1_EE5clearEv:
 584:h:/6261A/11CW1352MP_BIRD61A_11C_V33_GPRS_MMI/Tools/MinGW/include/c++/3.3.1/bits/stl_list.h ****   
 585:h:/6261A/11CW1352MP_BIRD61A_11C_V33_GPRS_MMI/Tools/MinGW/include/c++/3.3.1/bits/stl_list.h ****     /**
 586:h:/6261A/11CW1352MP_BIRD61A_11C_V33_GPRS_MMI/Tools/MinGW/include/c++/3.3.1/bits/stl_list.h ****      *  Returns a read-only (constant) iterator that points one past the last
 587:h:/6261A/11CW1352MP_BIRD61A_11C_V33_GPRS_MMI/Tools/MinGW/include/c++/3.3.1/bits/stl_list.h ****      *  element in the %list.  Iteration is done in ordinary element order.
 588:h:/6261A/11CW1352MP_BIRD61A_11C_V33_GPRS_MMI/Tools/MinGW/include/c++/3.3.1/bits/stl_list.h ****     */
 589:h:/6261A/11CW1352MP_BIRD61A_11C_V33_GPRS_MMI/Tools/MinGW/include/c++/3.3.1/bits/stl_list.h ****     const_iterator
 590:h:/6261A/11CW1352MP_BIRD61A_11C_V33_GPRS_MMI/Tools/MinGW/include/c++/3.3.1/bits/stl_list.h ****     end() const { return _M_node; }
 591:h:/6261A/11CW1352MP_BIRD61A_11C_V33_GPRS_MMI/Tools/MinGW/include/c++/3.3.1/bits/stl_list.h ****   
 592:h:/6261A/11CW1352MP_BIRD61A_11C_V33_GPRS_MMI/Tools/MinGW/include/c++/3.3.1/bits/stl_list.h ****     /**
 593:h:/6261A/11CW1352MP_BIRD61A_11C_V33_GPRS_MMI/Tools/MinGW/include/c++/3.3.1/bits/stl_list.h ****      *  Returns a read/write reverse iterator that points to the last element in
 594:h:/6261A/11CW1352MP_BIRD61A_11C_V33_GPRS_MMI/Tools/MinGW/include/c++/3.3.1/bits/stl_list.h ****      *  the %list.  Iteration is done in reverse element order.
 595:h:/6261A/11CW1352MP_BIRD61A_11C_V33_GPRS_MMI/Tools/MinGW/include/c++/3.3.1/bits/stl_list.h ****     */
 596:h:/6261A/11CW1352MP_BIRD61A_11C_V33_GPRS_MMI/Tools/MinGW/include/c++/3.3.1/bits/stl_list.h ****     reverse_iterator
 597:h:/6261A/11CW1352MP_BIRD61A_11C_V33_GPRS_MMI/Tools/MinGW/include/c++/3.3.1/bits/stl_list.h ****     rbegin() { return reverse_iterator(end()); }
 598:h:/6261A/11CW1352MP_BIRD61A_11C_V33_GPRS_MMI/Tools/MinGW/include/c++/3.3.1/bits/stl_list.h ****   
 599:h:/6261A/11CW1352MP_BIRD61A_11C_V33_GPRS_MMI/Tools/MinGW/include/c++/3.3.1/bits/stl_list.h ****     /**
 600:h:/6261A/11CW1352MP_BIRD61A_11C_V33_GPRS_MMI/Tools/MinGW/include/c++/3.3.1/bits/stl_list.h ****      *  Returns a read-only (constant) reverse iterator that points to the last
 601:h:/6261A/11CW1352MP_BIRD61A_11C_V33_GPRS_MMI/Tools/MinGW/include/c++/3.3.1/bits/stl_list.h ****      *  element in the %list.  Iteration is done in reverse element order.
 602:h:/6261A/11CW1352MP_BIRD61A_11C_V33_GPRS_MMI/Tools/MinGW/include/c++/3.3.1/bits/stl_list.h ****     */
 603:h:/6261A/11CW1352MP_BIRD61A_11C_V33_GPRS_MMI/Tools/MinGW/include/c++/3.3.1/bits/stl_list.h ****     const_reverse_iterator
 604:h:/6261A/11CW1352MP_BIRD61A_11C_V33_GPRS_MMI/Tools/MinGW/include/c++/3.3.1/bits/stl_list.h ****     rbegin() const { return const_reverse_iterator(end()); }
 605:h:/6261A/11CW1352MP_BIRD61A_11C_V33_GPRS_MMI/Tools/MinGW/include/c++/3.3.1/bits/stl_list.h ****   
 606:h:/6261A/11CW1352MP_BIRD61A_11C_V33_GPRS_MMI/Tools/MinGW/include/c++/3.3.1/bits/stl_list.h ****     /**
 607:h:/6261A/11CW1352MP_BIRD61A_11C_V33_GPRS_MMI/Tools/MinGW/include/c++/3.3.1/bits/stl_list.h ****      *  Returns a read/write reverse iterator that points to one before the
 608:h:/6261A/11CW1352MP_BIRD61A_11C_V33_GPRS_MMI/Tools/MinGW/include/c++/3.3.1/bits/stl_list.h ****      *  first element in the %list.  Iteration is done in reverse element
 609:h:/6261A/11CW1352MP_BIRD61A_11C_V33_GPRS_MMI/Tools/MinGW/include/c++/3.3.1/bits/stl_list.h ****      *  order.
 610:h:/6261A/11CW1352MP_BIRD61A_11C_V33_GPRS_MMI/Tools/MinGW/include/c++/3.3.1/bits/stl_list.h ****     */
 611:h:/6261A/11CW1352MP_BIRD61A_11C_V33_GPRS_MMI/Tools/MinGW/include/c++/3.3.1/bits/stl_list.h ****     reverse_iterator
 612:h:/6261A/11CW1352MP_BIRD61A_11C_V33_GPRS_MMI/Tools/MinGW/include/c++/3.3.1/bits/stl_list.h ****     rend() { return reverse_iterator(begin()); }
 613:h:/6261A/11CW1352MP_BIRD61A_11C_V33_GPRS_MMI/Tools/MinGW/include/c++/3.3.1/bits/stl_list.h ****   
 614:h:/6261A/11CW1352MP_BIRD61A_11C_V33_GPRS_MMI/Tools/MinGW/include/c++/3.3.1/bits/stl_list.h ****     /**
 615:h:/6261A/11CW1352MP_BIRD61A_11C_V33_GPRS_MMI/Tools/MinGW/include/c++/3.3.1/bits/stl_list.h ****      *  Returns a read-only (constant) reverse iterator that points to one
 616:h:/6261A/11CW1352MP_BIRD61A_11C_V33_GPRS_MMI/Tools/MinGW/include/c++/3.3.1/bits/stl_list.h ****      *  before the first element in the %list.  Iteration is done in reverse
 617:h:/6261A/11CW1352MP_BIRD61A_11C_V33_GPRS_MMI/Tools/MinGW/include/c++/3.3.1/bits/stl_list.h ****      *  element order.
 618:h:/6261A/11CW1352MP_BIRD61A_11C_V33_GPRS_MMI/Tools/MinGW/include/c++/3.3.1/bits/stl_list.h ****     */
 619:h:/6261A/11CW1352MP_BIRD61A_11C_V33_GPRS_MMI/Tools/MinGW/include/c++/3.3.1/bits/stl_list.h ****     const_reverse_iterator
 620:h:/6261A/11CW1352MP_BIRD61A_11C_V33_GPRS_MMI/Tools/MinGW/include/c++/3.3.1/bits/stl_list.h ****     rend() const
 621:h:/6261A/11CW1352MP_BIRD61A_11C_V33_GPRS_MMI/Tools/MinGW/include/c++/3.3.1/bits/stl_list.h ****     { return const_reverse_iterator(begin()); }
 622:h:/6261A/11CW1352MP_BIRD61A_11C_V33_GPRS_MMI/Tools/MinGW/include/c++/3.3.1/bits/stl_list.h ****   
 623:h:/6261A/11CW1352MP_BIRD61A_11C_V33_GPRS_MMI/Tools/MinGW/include/c++/3.3.1/bits/stl_list.h ****     // [23.2.2.2] capacity
 624:h:/6261A/11CW1352MP_BIRD61A_11C_V33_GPRS_MMI/Tools/MinGW/include/c++/3.3.1/bits/stl_list.h ****     /**
GAS LISTING h:/6261A/11CW1352MP_BIRD61A_11C_V33_GPRS_MMI/plutommi/Customer/ResGenerator/gcctmp/ccEHcaaa.s 			page 94


 625:h:/6261A/11CW1352MP_BIRD61A_11C_V33_GPRS_MMI/Tools/MinGW/include/c++/3.3.1/bits/stl_list.h ****      *  Returns true if the %list is empty.  (Thus begin() would equal end().)
 626:h:/6261A/11CW1352MP_BIRD61A_11C_V33_GPRS_MMI/Tools/MinGW/include/c++/3.3.1/bits/stl_list.h ****     */
 627:h:/6261A/11CW1352MP_BIRD61A_11C_V33_GPRS_MMI/Tools/MinGW/include/c++/3.3.1/bits/stl_list.h ****     bool
 628:h:/6261A/11CW1352MP_BIRD61A_11C_V33_GPRS_MMI/Tools/MinGW/include/c++/3.3.1/bits/stl_list.h ****     empty() const { return _M_node->_M_next == _M_node; }
 629:h:/6261A/11CW1352MP_BIRD61A_11C_V33_GPRS_MMI/Tools/MinGW/include/c++/3.3.1/bits/stl_list.h ****   
 630:h:/6261A/11CW1352MP_BIRD61A_11C_V33_GPRS_MMI/Tools/MinGW/include/c++/3.3.1/bits/stl_list.h ****     /**  Returns the number of elements in the %list.  */
 631:h:/6261A/11CW1352MP_BIRD61A_11C_V33_GPRS_MMI/Tools/MinGW/include/c++/3.3.1/bits/stl_list.h ****     size_type
 632:h:/6261A/11CW1352MP_BIRD61A_11C_V33_GPRS_MMI/Tools/MinGW/include/c++/3.3.1/bits/stl_list.h ****     size() const { return distance(begin(), end()); }
 633:h:/6261A/11CW1352MP_BIRD61A_11C_V33_GPRS_MMI/Tools/MinGW/include/c++/3.3.1/bits/stl_list.h ****   
 634:h:/6261A/11CW1352MP_BIRD61A_11C_V33_GPRS_MMI/Tools/MinGW/include/c++/3.3.1/bits/stl_list.h ****     /**  Returns the size() of the largest possible %list.  */
 635:h:/6261A/11CW1352MP_BIRD61A_11C_V33_GPRS_MMI/Tools/MinGW/include/c++/3.3.1/bits/stl_list.h ****     size_type
 636:h:/6261A/11CW1352MP_BIRD61A_11C_V33_GPRS_MMI/Tools/MinGW/include/c++/3.3.1/bits/stl_list.h ****     max_size() const { return size_type(-1); }
 637:h:/6261A/11CW1352MP_BIRD61A_11C_V33_GPRS_MMI/Tools/MinGW/include/c++/3.3.1/bits/stl_list.h ****   
 638:h:/6261A/11CW1352MP_BIRD61A_11C_V33_GPRS_MMI/Tools/MinGW/include/c++/3.3.1/bits/stl_list.h ****     /**
 639:h:/6261A/11CW1352MP_BIRD61A_11C_V33_GPRS_MMI/Tools/MinGW/include/c++/3.3.1/bits/stl_list.h ****      *  @brief  Resizes the %list to the specified number of elements.
 640:h:/6261A/11CW1352MP_BIRD61A_11C_V33_GPRS_MMI/Tools/MinGW/include/c++/3.3.1/bits/stl_list.h ****      *  @param  new_size  Number of elements the %list should contain.
 641:h:/6261A/11CW1352MP_BIRD61A_11C_V33_GPRS_MMI/Tools/MinGW/include/c++/3.3.1/bits/stl_list.h ****      *  @param  x  Data with which new elements should be populated.
 642:h:/6261A/11CW1352MP_BIRD61A_11C_V33_GPRS_MMI/Tools/MinGW/include/c++/3.3.1/bits/stl_list.h ****      *
 643:h:/6261A/11CW1352MP_BIRD61A_11C_V33_GPRS_MMI/Tools/MinGW/include/c++/3.3.1/bits/stl_list.h ****      *  This function will %resize the %list to the specified number of
 644:h:/6261A/11CW1352MP_BIRD61A_11C_V33_GPRS_MMI/Tools/MinGW/include/c++/3.3.1/bits/stl_list.h ****      *  elements.  If the number is smaller than the %list's current size the
 645:h:/6261A/11CW1352MP_BIRD61A_11C_V33_GPRS_MMI/Tools/MinGW/include/c++/3.3.1/bits/stl_list.h ****      *  %list is truncated, otherwise the %list is extended and new elements
 646:h:/6261A/11CW1352MP_BIRD61A_11C_V33_GPRS_MMI/Tools/MinGW/include/c++/3.3.1/bits/stl_list.h ****      *  are populated with given data.
 647:h:/6261A/11CW1352MP_BIRD61A_11C_V33_GPRS_MMI/Tools/MinGW/include/c++/3.3.1/bits/stl_list.h ****     */
 648:h:/6261A/11CW1352MP_BIRD61A_11C_V33_GPRS_MMI/Tools/MinGW/include/c++/3.3.1/bits/stl_list.h ****     void
 649:h:/6261A/11CW1352MP_BIRD61A_11C_V33_GPRS_MMI/Tools/MinGW/include/c++/3.3.1/bits/stl_list.h ****     resize(size_type __new_size, const value_type& __x);
 650:h:/6261A/11CW1352MP_BIRD61A_11C_V33_GPRS_MMI/Tools/MinGW/include/c++/3.3.1/bits/stl_list.h ****   
 651:h:/6261A/11CW1352MP_BIRD61A_11C_V33_GPRS_MMI/Tools/MinGW/include/c++/3.3.1/bits/stl_list.h ****     /**
 652:h:/6261A/11CW1352MP_BIRD61A_11C_V33_GPRS_MMI/Tools/MinGW/include/c++/3.3.1/bits/stl_list.h ****      *  @brief  Resizes the %list to the specified number of elements.
 653:h:/6261A/11CW1352MP_BIRD61A_11C_V33_GPRS_MMI/Tools/MinGW/include/c++/3.3.1/bits/stl_list.h ****      *  @param  new_size  Number of elements the %list should contain.
 654:h:/6261A/11CW1352MP_BIRD61A_11C_V33_GPRS_MMI/Tools/MinGW/include/c++/3.3.1/bits/stl_list.h ****      *
 655:h:/6261A/11CW1352MP_BIRD61A_11C_V33_GPRS_MMI/Tools/MinGW/include/c++/3.3.1/bits/stl_list.h ****      *  This function will resize the %list to the specified number of
 656:h:/6261A/11CW1352MP_BIRD61A_11C_V33_GPRS_MMI/Tools/MinGW/include/c++/3.3.1/bits/stl_list.h ****      *  elements.  If the number is smaller than the %list's current size the
 657:h:/6261A/11CW1352MP_BIRD61A_11C_V33_GPRS_MMI/Tools/MinGW/include/c++/3.3.1/bits/stl_list.h ****      *  %list is truncated, otherwise the %list is extended and new elements
 658:h:/6261A/11CW1352MP_BIRD61A_11C_V33_GPRS_MMI/Tools/MinGW/include/c++/3.3.1/bits/stl_list.h ****      *  are default-constructed.
 659:h:/6261A/11CW1352MP_BIRD61A_11C_V33_GPRS_MMI/Tools/MinGW/include/c++/3.3.1/bits/stl_list.h ****     */
 660:h:/6261A/11CW1352MP_BIRD61A_11C_V33_GPRS_MMI/Tools/MinGW/include/c++/3.3.1/bits/stl_list.h ****     void
 661:h:/6261A/11CW1352MP_BIRD61A_11C_V33_GPRS_MMI/Tools/MinGW/include/c++/3.3.1/bits/stl_list.h ****     resize(size_type __new_size) { this->resize(__new_size, value_type()); }
 662:h:/6261A/11CW1352MP_BIRD61A_11C_V33_GPRS_MMI/Tools/MinGW/include/c++/3.3.1/bits/stl_list.h ****   
 663:h:/6261A/11CW1352MP_BIRD61A_11C_V33_GPRS_MMI/Tools/MinGW/include/c++/3.3.1/bits/stl_list.h ****     // element access
 664:h:/6261A/11CW1352MP_BIRD61A_11C_V33_GPRS_MMI/Tools/MinGW/include/c++/3.3.1/bits/stl_list.h ****     /**
 665:h:/6261A/11CW1352MP_BIRD61A_11C_V33_GPRS_MMI/Tools/MinGW/include/c++/3.3.1/bits/stl_list.h ****      *  Returns a read/write reference to the data at the first element of the
 666:h:/6261A/11CW1352MP_BIRD61A_11C_V33_GPRS_MMI/Tools/MinGW/include/c++/3.3.1/bits/stl_list.h ****      *  %list.
 667:h:/6261A/11CW1352MP_BIRD61A_11C_V33_GPRS_MMI/Tools/MinGW/include/c++/3.3.1/bits/stl_list.h ****     */
 668:h:/6261A/11CW1352MP_BIRD61A_11C_V33_GPRS_MMI/Tools/MinGW/include/c++/3.3.1/bits/stl_list.h ****     reference
 669:h:/6261A/11CW1352MP_BIRD61A_11C_V33_GPRS_MMI/Tools/MinGW/include/c++/3.3.1/bits/stl_list.h ****     front() { return *begin(); }
 670:h:/6261A/11CW1352MP_BIRD61A_11C_V33_GPRS_MMI/Tools/MinGW/include/c++/3.3.1/bits/stl_list.h ****   
 671:h:/6261A/11CW1352MP_BIRD61A_11C_V33_GPRS_MMI/Tools/MinGW/include/c++/3.3.1/bits/stl_list.h ****     /**
 672:h:/6261A/11CW1352MP_BIRD61A_11C_V33_GPRS_MMI/Tools/MinGW/include/c++/3.3.1/bits/stl_list.h ****      *  Returns a read-only (constant) reference to the data at the first
 673:h:/6261A/11CW1352MP_BIRD61A_11C_V33_GPRS_MMI/Tools/MinGW/include/c++/3.3.1/bits/stl_list.h ****      *  element of the %list.
 674:h:/6261A/11CW1352MP_BIRD61A_11C_V33_GPRS_MMI/Tools/MinGW/include/c++/3.3.1/bits/stl_list.h ****     */
 675:h:/6261A/11CW1352MP_BIRD61A_11C_V33_GPRS_MMI/Tools/MinGW/include/c++/3.3.1/bits/stl_list.h ****     const_reference
 676:h:/6261A/11CW1352MP_BIRD61A_11C_V33_GPRS_MMI/Tools/MinGW/include/c++/3.3.1/bits/stl_list.h ****     front() const { return *begin(); }
 677:h:/6261A/11CW1352MP_BIRD61A_11C_V33_GPRS_MMI/Tools/MinGW/include/c++/3.3.1/bits/stl_list.h ****   
 678:h:/6261A/11CW1352MP_BIRD61A_11C_V33_GPRS_MMI/Tools/MinGW/include/c++/3.3.1/bits/stl_list.h ****     /**
 679:h:/6261A/11CW1352MP_BIRD61A_11C_V33_GPRS_MMI/Tools/MinGW/include/c++/3.3.1/bits/stl_list.h ****      *  Returns a read/write reference to the data at the last element of the
 680:h:/6261A/11CW1352MP_BIRD61A_11C_V33_GPRS_MMI/Tools/MinGW/include/c++/3.3.1/bits/stl_list.h ****      *  %list.
 681:h:/6261A/11CW1352MP_BIRD61A_11C_V33_GPRS_MMI/Tools/MinGW/include/c++/3.3.1/bits/stl_list.h ****     */
GAS LISTING h:/6261A/11CW1352MP_BIRD61A_11C_V33_GPRS_MMI/plutommi/Customer/ResGenerator/gcctmp/ccEHcaaa.s 			page 95


 682:h:/6261A/11CW1352MP_BIRD61A_11C_V33_GPRS_MMI/Tools/MinGW/include/c++/3.3.1/bits/stl_list.h ****     reference
 683:h:/6261A/11CW1352MP_BIRD61A_11C_V33_GPRS_MMI/Tools/MinGW/include/c++/3.3.1/bits/stl_list.h ****     back() { return *(--end()); }
 684:h:/6261A/11CW1352MP_BIRD61A_11C_V33_GPRS_MMI/Tools/MinGW/include/c++/3.3.1/bits/stl_list.h ****   
 685:h:/6261A/11CW1352MP_BIRD61A_11C_V33_GPRS_MMI/Tools/MinGW/include/c++/3.3.1/bits/stl_list.h ****     /**
 686:h:/6261A/11CW1352MP_BIRD61A_11C_V33_GPRS_MMI/Tools/MinGW/include/c++/3.3.1/bits/stl_list.h ****      *  Returns a read-only (constant) reference to the data at the last
 687:h:/6261A/11CW1352MP_BIRD61A_11C_V33_GPRS_MMI/Tools/MinGW/include/c++/3.3.1/bits/stl_list.h ****      *  element of the %list.
 688:h:/6261A/11CW1352MP_BIRD61A_11C_V33_GPRS_MMI/Tools/MinGW/include/c++/3.3.1/bits/stl_list.h ****     */
 689:h:/6261A/11CW1352MP_BIRD61A_11C_V33_GPRS_MMI/Tools/MinGW/include/c++/3.3.1/bits/stl_list.h ****     const_reference
 690:h:/6261A/11CW1352MP_BIRD61A_11C_V33_GPRS_MMI/Tools/MinGW/include/c++/3.3.1/bits/stl_list.h ****     back() const { return *(--end()); }
 691:h:/6261A/11CW1352MP_BIRD61A_11C_V33_GPRS_MMI/Tools/MinGW/include/c++/3.3.1/bits/stl_list.h ****   
 692:h:/6261A/11CW1352MP_BIRD61A_11C_V33_GPRS_MMI/Tools/MinGW/include/c++/3.3.1/bits/stl_list.h ****     // [23.2.2.3] modifiers
 693:h:/6261A/11CW1352MP_BIRD61A_11C_V33_GPRS_MMI/Tools/MinGW/include/c++/3.3.1/bits/stl_list.h ****     /**
 694:h:/6261A/11CW1352MP_BIRD61A_11C_V33_GPRS_MMI/Tools/MinGW/include/c++/3.3.1/bits/stl_list.h ****      *  @brief  Add data to the front of the %list.
 695:h:/6261A/11CW1352MP_BIRD61A_11C_V33_GPRS_MMI/Tools/MinGW/include/c++/3.3.1/bits/stl_list.h ****      *  @param  x  Data to be added.
 696:h:/6261A/11CW1352MP_BIRD61A_11C_V33_GPRS_MMI/Tools/MinGW/include/c++/3.3.1/bits/stl_list.h ****      *
 697:h:/6261A/11CW1352MP_BIRD61A_11C_V33_GPRS_MMI/Tools/MinGW/include/c++/3.3.1/bits/stl_list.h ****      *  This is a typical stack operation.  The function creates an element at
 698:h:/6261A/11CW1352MP_BIRD61A_11C_V33_GPRS_MMI/Tools/MinGW/include/c++/3.3.1/bits/stl_list.h ****      *  the front of the %list and assigns the given data to it.  Due to the
 699:h:/6261A/11CW1352MP_BIRD61A_11C_V33_GPRS_MMI/Tools/MinGW/include/c++/3.3.1/bits/stl_list.h ****      *  nature of a %list this operation can be done in constant time, and
 700:h:/6261A/11CW1352MP_BIRD61A_11C_V33_GPRS_MMI/Tools/MinGW/include/c++/3.3.1/bits/stl_list.h ****      *  does not invalidate iterators and references.
 701:h:/6261A/11CW1352MP_BIRD61A_11C_V33_GPRS_MMI/Tools/MinGW/include/c++/3.3.1/bits/stl_list.h ****     */
 702:h:/6261A/11CW1352MP_BIRD61A_11C_V33_GPRS_MMI/Tools/MinGW/include/c++/3.3.1/bits/stl_list.h ****     void
 703:h:/6261A/11CW1352MP_BIRD61A_11C_V33_GPRS_MMI/Tools/MinGW/include/c++/3.3.1/bits/stl_list.h ****     push_front(const value_type& __x) { this->insert(begin(), __x); }
 704:h:/6261A/11CW1352MP_BIRD61A_11C_V33_GPRS_MMI/Tools/MinGW/include/c++/3.3.1/bits/stl_list.h ****   
 705:h:/6261A/11CW1352MP_BIRD61A_11C_V33_GPRS_MMI/Tools/MinGW/include/c++/3.3.1/bits/stl_list.h ****   #ifdef _GLIBCPP_DEPRECATED
 706:h:/6261A/11CW1352MP_BIRD61A_11C_V33_GPRS_MMI/Tools/MinGW/include/c++/3.3.1/bits/stl_list.h ****     /**
 707:h:/6261A/11CW1352MP_BIRD61A_11C_V33_GPRS_MMI/Tools/MinGW/include/c++/3.3.1/bits/stl_list.h ****      *  @brief  Add data to the front of the %list.
 708:h:/6261A/11CW1352MP_BIRD61A_11C_V33_GPRS_MMI/Tools/MinGW/include/c++/3.3.1/bits/stl_list.h ****      *
 709:h:/6261A/11CW1352MP_BIRD61A_11C_V33_GPRS_MMI/Tools/MinGW/include/c++/3.3.1/bits/stl_list.h ****      *  This is a typical stack operation.  The function creates a
 710:h:/6261A/11CW1352MP_BIRD61A_11C_V33_GPRS_MMI/Tools/MinGW/include/c++/3.3.1/bits/stl_list.h ****      *  default-constructed element at the front of the %list.  Due to the
 711:h:/6261A/11CW1352MP_BIRD61A_11C_V33_GPRS_MMI/Tools/MinGW/include/c++/3.3.1/bits/stl_list.h ****      *  nature of a %list this operation can be done in constant time.  You
 712:h:/6261A/11CW1352MP_BIRD61A_11C_V33_GPRS_MMI/Tools/MinGW/include/c++/3.3.1/bits/stl_list.h ****      *  should consider using push_front(value_type()) instead.
 713:h:/6261A/11CW1352MP_BIRD61A_11C_V33_GPRS_MMI/Tools/MinGW/include/c++/3.3.1/bits/stl_list.h ****      *
 714:h:/6261A/11CW1352MP_BIRD61A_11C_V33_GPRS_MMI/Tools/MinGW/include/c++/3.3.1/bits/stl_list.h ****      *  @note This was deprecated in 3.2 and will be removed in 3.4.  You must
 715:h:/6261A/11CW1352MP_BIRD61A_11C_V33_GPRS_MMI/Tools/MinGW/include/c++/3.3.1/bits/stl_list.h ****      *        define @c _GLIBCPP_DEPRECATED to make this visible in 3.2; see
 716:h:/6261A/11CW1352MP_BIRD61A_11C_V33_GPRS_MMI/Tools/MinGW/include/c++/3.3.1/bits/stl_list.h ****      *        c++config.h.
 717:h:/6261A/11CW1352MP_BIRD61A_11C_V33_GPRS_MMI/Tools/MinGW/include/c++/3.3.1/bits/stl_list.h ****     */
 718:h:/6261A/11CW1352MP_BIRD61A_11C_V33_GPRS_MMI/Tools/MinGW/include/c++/3.3.1/bits/stl_list.h ****     void
 719:h:/6261A/11CW1352MP_BIRD61A_11C_V33_GPRS_MMI/Tools/MinGW/include/c++/3.3.1/bits/stl_list.h ****     push_front() { this->insert(begin(), value_type()); }
 720:h:/6261A/11CW1352MP_BIRD61A_11C_V33_GPRS_MMI/Tools/MinGW/include/c++/3.3.1/bits/stl_list.h ****   #endif
 721:h:/6261A/11CW1352MP_BIRD61A_11C_V33_GPRS_MMI/Tools/MinGW/include/c++/3.3.1/bits/stl_list.h ****   
 722:h:/6261A/11CW1352MP_BIRD61A_11C_V33_GPRS_MMI/Tools/MinGW/include/c++/3.3.1/bits/stl_list.h ****     /**
 723:h:/6261A/11CW1352MP_BIRD61A_11C_V33_GPRS_MMI/Tools/MinGW/include/c++/3.3.1/bits/stl_list.h ****      *  @brief  Removes first element.
 724:h:/6261A/11CW1352MP_BIRD61A_11C_V33_GPRS_MMI/Tools/MinGW/include/c++/3.3.1/bits/stl_list.h ****      *
 725:h:/6261A/11CW1352MP_BIRD61A_11C_V33_GPRS_MMI/Tools/MinGW/include/c++/3.3.1/bits/stl_list.h ****      *  This is a typical stack operation.  It shrinks the %list by one.
 726:h:/6261A/11CW1352MP_BIRD61A_11C_V33_GPRS_MMI/Tools/MinGW/include/c++/3.3.1/bits/stl_list.h ****      *  Due to the nature of a %list this operation can be done in constant
 727:h:/6261A/11CW1352MP_BIRD61A_11C_V33_GPRS_MMI/Tools/MinGW/include/c++/3.3.1/bits/stl_list.h ****      *  time, and only invalidates iterators/references to the element being
 728:h:/6261A/11CW1352MP_BIRD61A_11C_V33_GPRS_MMI/Tools/MinGW/include/c++/3.3.1/bits/stl_list.h ****      *  removed.
 729:h:/6261A/11CW1352MP_BIRD61A_11C_V33_GPRS_MMI/Tools/MinGW/include/c++/3.3.1/bits/stl_list.h ****      *
 730:h:/6261A/11CW1352MP_BIRD61A_11C_V33_GPRS_MMI/Tools/MinGW/include/c++/3.3.1/bits/stl_list.h ****      *  Note that no data is returned, and if the first element's data is
 731:h:/6261A/11CW1352MP_BIRD61A_11C_V33_GPRS_MMI/Tools/MinGW/include/c++/3.3.1/bits/stl_list.h ****      *  needed, it should be retrieved before pop_front() is called.
 732:h:/6261A/11CW1352MP_BIRD61A_11C_V33_GPRS_MMI/Tools/MinGW/include/c++/3.3.1/bits/stl_list.h ****     */
 733:h:/6261A/11CW1352MP_BIRD61A_11C_V33_GPRS_MMI/Tools/MinGW/include/c++/3.3.1/bits/stl_list.h ****     void
 734:h:/6261A/11CW1352MP_BIRD61A_11C_V33_GPRS_MMI/Tools/MinGW/include/c++/3.3.1/bits/stl_list.h ****     pop_front() { this->erase(begin()); }
 735:h:/6261A/11CW1352MP_BIRD61A_11C_V33_GPRS_MMI/Tools/MinGW/include/c++/3.3.1/bits/stl_list.h ****   
 736:h:/6261A/11CW1352MP_BIRD61A_11C_V33_GPRS_MMI/Tools/MinGW/include/c++/3.3.1/bits/stl_list.h ****     /**
 737:h:/6261A/11CW1352MP_BIRD61A_11C_V33_GPRS_MMI/Tools/MinGW/include/c++/3.3.1/bits/stl_list.h ****      *  @brief  Add data to the end of the %list.
 738:h:/6261A/11CW1352MP_BIRD61A_11C_V33_GPRS_MMI/Tools/MinGW/include/c++/3.3.1/bits/stl_list.h ****      *  @param  x  Data to be added.
GAS LISTING h:/6261A/11CW1352MP_BIRD61A_11C_V33_GPRS_MMI/plutommi/Customer/ResGenerator/gcctmp/ccEHcaaa.s 			page 96


 739:h:/6261A/11CW1352MP_BIRD61A_11C_V33_GPRS_MMI/Tools/MinGW/include/c++/3.3.1/bits/stl_list.h ****      *
 740:h:/6261A/11CW1352MP_BIRD61A_11C_V33_GPRS_MMI/Tools/MinGW/include/c++/3.3.1/bits/stl_list.h ****      *  This is a typical stack operation.  The function creates an element at
 741:h:/6261A/11CW1352MP_BIRD61A_11C_V33_GPRS_MMI/Tools/MinGW/include/c++/3.3.1/bits/stl_list.h ****      *  the end of the %list and assigns the given data to it.  Due to the
 742:h:/6261A/11CW1352MP_BIRD61A_11C_V33_GPRS_MMI/Tools/MinGW/include/c++/3.3.1/bits/stl_list.h ****      *  nature of a %list this operation can be done in constant time, and
 743:h:/6261A/11CW1352MP_BIRD61A_11C_V33_GPRS_MMI/Tools/MinGW/include/c++/3.3.1/bits/stl_list.h ****      *  does not invalidate iterators and references.
 744:h:/6261A/11CW1352MP_BIRD61A_11C_V33_GPRS_MMI/Tools/MinGW/include/c++/3.3.1/bits/stl_list.h ****     */
 745:h:/6261A/11CW1352MP_BIRD61A_11C_V33_GPRS_MMI/Tools/MinGW/include/c++/3.3.1/bits/stl_list.h ****     void
 746:h:/6261A/11CW1352MP_BIRD61A_11C_V33_GPRS_MMI/Tools/MinGW/include/c++/3.3.1/bits/stl_list.h ****     push_back(const value_type& __x) { this->insert(end(), __x); }
 747:h:/6261A/11CW1352MP_BIRD61A_11C_V33_GPRS_MMI/Tools/MinGW/include/c++/3.3.1/bits/stl_list.h ****   
 748:h:/6261A/11CW1352MP_BIRD61A_11C_V33_GPRS_MMI/Tools/MinGW/include/c++/3.3.1/bits/stl_list.h ****   #ifdef _GLIBCPP_DEPRECATED
 749:h:/6261A/11CW1352MP_BIRD61A_11C_V33_GPRS_MMI/Tools/MinGW/include/c++/3.3.1/bits/stl_list.h ****     /**
 750:h:/6261A/11CW1352MP_BIRD61A_11C_V33_GPRS_MMI/Tools/MinGW/include/c++/3.3.1/bits/stl_list.h ****      *  @brief  Add data to the end of the %list.
 751:h:/6261A/11CW1352MP_BIRD61A_11C_V33_GPRS_MMI/Tools/MinGW/include/c++/3.3.1/bits/stl_list.h ****      *
 752:h:/6261A/11CW1352MP_BIRD61A_11C_V33_GPRS_MMI/Tools/MinGW/include/c++/3.3.1/bits/stl_list.h ****      *  This is a typical stack operation.  The function creates a
 753:h:/6261A/11CW1352MP_BIRD61A_11C_V33_GPRS_MMI/Tools/MinGW/include/c++/3.3.1/bits/stl_list.h ****      *  default-constructed element at the end of the %list.  Due to the nature
 754:h:/6261A/11CW1352MP_BIRD61A_11C_V33_GPRS_MMI/Tools/MinGW/include/c++/3.3.1/bits/stl_list.h ****      *  of a %list this operation can be done in constant time.  You should
 755:h:/6261A/11CW1352MP_BIRD61A_11C_V33_GPRS_MMI/Tools/MinGW/include/c++/3.3.1/bits/stl_list.h ****      *  consider using push_back(value_type()) instead.
 756:h:/6261A/11CW1352MP_BIRD61A_11C_V33_GPRS_MMI/Tools/MinGW/include/c++/3.3.1/bits/stl_list.h ****      *
 757:h:/6261A/11CW1352MP_BIRD61A_11C_V33_GPRS_MMI/Tools/MinGW/include/c++/3.3.1/bits/stl_list.h ****      *  @note This was deprecated in 3.2 and will be removed in 3.4.  You must
 758:h:/6261A/11CW1352MP_BIRD61A_11C_V33_GPRS_MMI/Tools/MinGW/include/c++/3.3.1/bits/stl_list.h ****      *        define @c _GLIBCPP_DEPRECATED to make this visible in 3.2; see
 759:h:/6261A/11CW1352MP_BIRD61A_11C_V33_GPRS_MMI/Tools/MinGW/include/c++/3.3.1/bits/stl_list.h ****      *        c++config.h.
 760:h:/6261A/11CW1352MP_BIRD61A_11C_V33_GPRS_MMI/Tools/MinGW/include/c++/3.3.1/bits/stl_list.h ****     */
 761:h:/6261A/11CW1352MP_BIRD61A_11C_V33_GPRS_MMI/Tools/MinGW/include/c++/3.3.1/bits/stl_list.h ****     void
 762:h:/6261A/11CW1352MP_BIRD61A_11C_V33_GPRS_MMI/Tools/MinGW/include/c++/3.3.1/bits/stl_list.h ****     push_back() { this->insert(end(), value_type()); }
 763:h:/6261A/11CW1352MP_BIRD61A_11C_V33_GPRS_MMI/Tools/MinGW/include/c++/3.3.1/bits/stl_list.h ****   #endif
 764:h:/6261A/11CW1352MP_BIRD61A_11C_V33_GPRS_MMI/Tools/MinGW/include/c++/3.3.1/bits/stl_list.h ****   
 765:h:/6261A/11CW1352MP_BIRD61A_11C_V33_GPRS_MMI/Tools/MinGW/include/c++/3.3.1/bits/stl_list.h ****     /**
 766:h:/6261A/11CW1352MP_BIRD61A_11C_V33_GPRS_MMI/Tools/MinGW/include/c++/3.3.1/bits/stl_list.h ****      *  @brief  Removes last element.
 767:h:/6261A/11CW1352MP_BIRD61A_11C_V33_GPRS_MMI/Tools/MinGW/include/c++/3.3.1/bits/stl_list.h ****      *
 768:h:/6261A/11CW1352MP_BIRD61A_11C_V33_GPRS_MMI/Tools/MinGW/include/c++/3.3.1/bits/stl_list.h ****      *  This is a typical stack operation.  It shrinks the %list by one.
 769:h:/6261A/11CW1352MP_BIRD61A_11C_V33_GPRS_MMI/Tools/MinGW/include/c++/3.3.1/bits/stl_list.h ****      *  Due to the nature of a %list this operation can be done in constant
 770:h:/6261A/11CW1352MP_BIRD61A_11C_V33_GPRS_MMI/Tools/MinGW/include/c++/3.3.1/bits/stl_list.h ****      *  time, and only invalidates iterators/references to the element being
 771:h:/6261A/11CW1352MP_BIRD61A_11C_V33_GPRS_MMI/Tools/MinGW/include/c++/3.3.1/bits/stl_list.h ****      *  removed.
 772:h:/6261A/11CW1352MP_BIRD61A_11C_V33_GPRS_MMI/Tools/MinGW/include/c++/3.3.1/bits/stl_list.h ****      *
 773:h:/6261A/11CW1352MP_BIRD61A_11C_V33_GPRS_MMI/Tools/MinGW/include/c++/3.3.1/bits/stl_list.h ****      *  Note that no data is returned, and if the last element's data is
 774:h:/6261A/11CW1352MP_BIRD61A_11C_V33_GPRS_MMI/Tools/MinGW/include/c++/3.3.1/bits/stl_list.h ****      *  needed, it should be retrieved before pop_back() is called.
 775:h:/6261A/11CW1352MP_BIRD61A_11C_V33_GPRS_MMI/Tools/MinGW/include/c++/3.3.1/bits/stl_list.h ****     */
 776:h:/6261A/11CW1352MP_BIRD61A_11C_V33_GPRS_MMI/Tools/MinGW/include/c++/3.3.1/bits/stl_list.h ****     void
 777:h:/6261A/11CW1352MP_BIRD61A_11C_V33_GPRS_MMI/Tools/MinGW/include/c++/3.3.1/bits/stl_list.h ****     pop_back()
 778:h:/6261A/11CW1352MP_BIRD61A_11C_V33_GPRS_MMI/Tools/MinGW/include/c++/3.3.1/bits/stl_list.h ****     {
 779:h:/6261A/11CW1352MP_BIRD61A_11C_V33_GPRS_MMI/Tools/MinGW/include/c++/3.3.1/bits/stl_list.h ****       iterator __tmp = end();
 780:h:/6261A/11CW1352MP_BIRD61A_11C_V33_GPRS_MMI/Tools/MinGW/include/c++/3.3.1/bits/stl_list.h ****       this->erase(--__tmp);
 781:h:/6261A/11CW1352MP_BIRD61A_11C_V33_GPRS_MMI/Tools/MinGW/include/c++/3.3.1/bits/stl_list.h ****     }
 782:h:/6261A/11CW1352MP_BIRD61A_11C_V33_GPRS_MMI/Tools/MinGW/include/c++/3.3.1/bits/stl_list.h ****   
 783:h:/6261A/11CW1352MP_BIRD61A_11C_V33_GPRS_MMI/Tools/MinGW/include/c++/3.3.1/bits/stl_list.h ****     /**
 784:h:/6261A/11CW1352MP_BIRD61A_11C_V33_GPRS_MMI/Tools/MinGW/include/c++/3.3.1/bits/stl_list.h ****      *  @brief  Inserts given value into %list before specified iterator.
 785:h:/6261A/11CW1352MP_BIRD61A_11C_V33_GPRS_MMI/Tools/MinGW/include/c++/3.3.1/bits/stl_list.h ****      *  @param  position  An iterator into the %list.
 786:h:/6261A/11CW1352MP_BIRD61A_11C_V33_GPRS_MMI/Tools/MinGW/include/c++/3.3.1/bits/stl_list.h ****      *  @param  x  Data to be inserted.
 787:h:/6261A/11CW1352MP_BIRD61A_11C_V33_GPRS_MMI/Tools/MinGW/include/c++/3.3.1/bits/stl_list.h ****      *  @return  An iterator that points to the inserted data.
 788:h:/6261A/11CW1352MP_BIRD61A_11C_V33_GPRS_MMI/Tools/MinGW/include/c++/3.3.1/bits/stl_list.h ****      *
 789:h:/6261A/11CW1352MP_BIRD61A_11C_V33_GPRS_MMI/Tools/MinGW/include/c++/3.3.1/bits/stl_list.h ****      *  This function will insert a copy of the given value before the specified
 790:h:/6261A/11CW1352MP_BIRD61A_11C_V33_GPRS_MMI/Tools/MinGW/include/c++/3.3.1/bits/stl_list.h ****      *  location.
 791:h:/6261A/11CW1352MP_BIRD61A_11C_V33_GPRS_MMI/Tools/MinGW/include/c++/3.3.1/bits/stl_list.h ****      *  Due to the nature of a %list this operation can be done in constant
 792:h:/6261A/11CW1352MP_BIRD61A_11C_V33_GPRS_MMI/Tools/MinGW/include/c++/3.3.1/bits/stl_list.h ****      *  time, and does not invalidate iterators and references.
 793:h:/6261A/11CW1352MP_BIRD61A_11C_V33_GPRS_MMI/Tools/MinGW/include/c++/3.3.1/bits/stl_list.h ****     */
 794:h:/6261A/11CW1352MP_BIRD61A_11C_V33_GPRS_MMI/Tools/MinGW/include/c++/3.3.1/bits/stl_list.h ****     iterator
 795:h:/6261A/11CW1352MP_BIRD61A_11C_V33_GPRS_MMI/Tools/MinGW/include/c++/3.3.1/bits/stl_list.h ****     insert(iterator __position, const value_type& __x);
GAS LISTING h:/6261A/11CW1352MP_BIRD61A_11C_V33_GPRS_MMI/plutommi/Customer/ResGenerator/gcctmp/ccEHcaaa.s 			page 97


 796:h:/6261A/11CW1352MP_BIRD61A_11C_V33_GPRS_MMI/Tools/MinGW/include/c++/3.3.1/bits/stl_list.h ****   
 797:h:/6261A/11CW1352MP_BIRD61A_11C_V33_GPRS_MMI/Tools/MinGW/include/c++/3.3.1/bits/stl_list.h ****   #ifdef _GLIBCPP_DEPRECATED
 798:h:/6261A/11CW1352MP_BIRD61A_11C_V33_GPRS_MMI/Tools/MinGW/include/c++/3.3.1/bits/stl_list.h ****     /**
 799:h:/6261A/11CW1352MP_BIRD61A_11C_V33_GPRS_MMI/Tools/MinGW/include/c++/3.3.1/bits/stl_list.h ****      *  @brief  Inserts an element into the %list.
 800:h:/6261A/11CW1352MP_BIRD61A_11C_V33_GPRS_MMI/Tools/MinGW/include/c++/3.3.1/bits/stl_list.h ****      *  @param  position  An iterator into the %list.
 801:h:/6261A/11CW1352MP_BIRD61A_11C_V33_GPRS_MMI/Tools/MinGW/include/c++/3.3.1/bits/stl_list.h ****      *  @return  An iterator that points to the inserted element.
 802:h:/6261A/11CW1352MP_BIRD61A_11C_V33_GPRS_MMI/Tools/MinGW/include/c++/3.3.1/bits/stl_list.h ****      *
 803:h:/6261A/11CW1352MP_BIRD61A_11C_V33_GPRS_MMI/Tools/MinGW/include/c++/3.3.1/bits/stl_list.h ****      *  This function will insert a default-constructed element before the
 804:h:/6261A/11CW1352MP_BIRD61A_11C_V33_GPRS_MMI/Tools/MinGW/include/c++/3.3.1/bits/stl_list.h ****      *  specified location.  You should consider using
 805:h:/6261A/11CW1352MP_BIRD61A_11C_V33_GPRS_MMI/Tools/MinGW/include/c++/3.3.1/bits/stl_list.h ****      *  insert(position,value_type()) instead.
 806:h:/6261A/11CW1352MP_BIRD61A_11C_V33_GPRS_MMI/Tools/MinGW/include/c++/3.3.1/bits/stl_list.h ****      *  Due to the nature of a %list this operation can be done in constant
 807:h:/6261A/11CW1352MP_BIRD61A_11C_V33_GPRS_MMI/Tools/MinGW/include/c++/3.3.1/bits/stl_list.h ****      *  time, and does not invalidate iterators and references.
 808:h:/6261A/11CW1352MP_BIRD61A_11C_V33_GPRS_MMI/Tools/MinGW/include/c++/3.3.1/bits/stl_list.h ****      *
 809:h:/6261A/11CW1352MP_BIRD61A_11C_V33_GPRS_MMI/Tools/MinGW/include/c++/3.3.1/bits/stl_list.h ****      *  @note This was deprecated in 3.2 and will be removed in 3.4.  You must
 810:h:/6261A/11CW1352MP_BIRD61A_11C_V33_GPRS_MMI/Tools/MinGW/include/c++/3.3.1/bits/stl_list.h ****      *        define @c _GLIBCPP_DEPRECATED to make this visible in 3.2; see
 811:h:/6261A/11CW1352MP_BIRD61A_11C_V33_GPRS_MMI/Tools/MinGW/include/c++/3.3.1/bits/stl_list.h ****      *        c++config.h.
 812:h:/6261A/11CW1352MP_BIRD61A_11C_V33_GPRS_MMI/Tools/MinGW/include/c++/3.3.1/bits/stl_list.h ****     */
 813:h:/6261A/11CW1352MP_BIRD61A_11C_V33_GPRS_MMI/Tools/MinGW/include/c++/3.3.1/bits/stl_list.h ****     iterator
 814:h:/6261A/11CW1352MP_BIRD61A_11C_V33_GPRS_MMI/Tools/MinGW/include/c++/3.3.1/bits/stl_list.h ****     insert(iterator __position) { return insert(__position, value_type()); }
 815:h:/6261A/11CW1352MP_BIRD61A_11C_V33_GPRS_MMI/Tools/MinGW/include/c++/3.3.1/bits/stl_list.h ****   #endif
 816:h:/6261A/11CW1352MP_BIRD61A_11C_V33_GPRS_MMI/Tools/MinGW/include/c++/3.3.1/bits/stl_list.h ****   
 817:h:/6261A/11CW1352MP_BIRD61A_11C_V33_GPRS_MMI/Tools/MinGW/include/c++/3.3.1/bits/stl_list.h ****     /**
 818:h:/6261A/11CW1352MP_BIRD61A_11C_V33_GPRS_MMI/Tools/MinGW/include/c++/3.3.1/bits/stl_list.h ****      *  @brief  Inserts a number of copies of given data into the %list.
 819:h:/6261A/11CW1352MP_BIRD61A_11C_V33_GPRS_MMI/Tools/MinGW/include/c++/3.3.1/bits/stl_list.h ****      *  @param  position  An iterator into the %list.
 820:h:/6261A/11CW1352MP_BIRD61A_11C_V33_GPRS_MMI/Tools/MinGW/include/c++/3.3.1/bits/stl_list.h ****      *  @param  n  Number of elements to be inserted.
 821:h:/6261A/11CW1352MP_BIRD61A_11C_V33_GPRS_MMI/Tools/MinGW/include/c++/3.3.1/bits/stl_list.h ****      *  @param  x  Data to be inserted.
 822:h:/6261A/11CW1352MP_BIRD61A_11C_V33_GPRS_MMI/Tools/MinGW/include/c++/3.3.1/bits/stl_list.h ****      *
 823:h:/6261A/11CW1352MP_BIRD61A_11C_V33_GPRS_MMI/Tools/MinGW/include/c++/3.3.1/bits/stl_list.h ****      *  This function will insert a specified number of copies of the given data
 824:h:/6261A/11CW1352MP_BIRD61A_11C_V33_GPRS_MMI/Tools/MinGW/include/c++/3.3.1/bits/stl_list.h ****      *  before the location specified by @a position.
 825:h:/6261A/11CW1352MP_BIRD61A_11C_V33_GPRS_MMI/Tools/MinGW/include/c++/3.3.1/bits/stl_list.h ****      *
 826:h:/6261A/11CW1352MP_BIRD61A_11C_V33_GPRS_MMI/Tools/MinGW/include/c++/3.3.1/bits/stl_list.h ****      *  Due to the nature of a %list this operation can be done in constant
 827:h:/6261A/11CW1352MP_BIRD61A_11C_V33_GPRS_MMI/Tools/MinGW/include/c++/3.3.1/bits/stl_list.h ****      *  time, and does not invalidate iterators and references.
 828:h:/6261A/11CW1352MP_BIRD61A_11C_V33_GPRS_MMI/Tools/MinGW/include/c++/3.3.1/bits/stl_list.h ****     */
 829:h:/6261A/11CW1352MP_BIRD61A_11C_V33_GPRS_MMI/Tools/MinGW/include/c++/3.3.1/bits/stl_list.h ****     void
 830:h:/6261A/11CW1352MP_BIRD61A_11C_V33_GPRS_MMI/Tools/MinGW/include/c++/3.3.1/bits/stl_list.h ****     insert(iterator __pos, size_type __n, const value_type& __x)
 831:h:/6261A/11CW1352MP_BIRD61A_11C_V33_GPRS_MMI/Tools/MinGW/include/c++/3.3.1/bits/stl_list.h ****     { _M_fill_insert(__pos, __n, __x); }
 832:h:/6261A/11CW1352MP_BIRD61A_11C_V33_GPRS_MMI/Tools/MinGW/include/c++/3.3.1/bits/stl_list.h ****   
 833:h:/6261A/11CW1352MP_BIRD61A_11C_V33_GPRS_MMI/Tools/MinGW/include/c++/3.3.1/bits/stl_list.h ****     /**
 834:h:/6261A/11CW1352MP_BIRD61A_11C_V33_GPRS_MMI/Tools/MinGW/include/c++/3.3.1/bits/stl_list.h ****      *  @brief  Inserts a range into the %list.
 835:h:/6261A/11CW1352MP_BIRD61A_11C_V33_GPRS_MMI/Tools/MinGW/include/c++/3.3.1/bits/stl_list.h ****      *  @param  pos  An iterator into the %list.
 836:h:/6261A/11CW1352MP_BIRD61A_11C_V33_GPRS_MMI/Tools/MinGW/include/c++/3.3.1/bits/stl_list.h ****      *  @param  first  An input iterator.
 837:h:/6261A/11CW1352MP_BIRD61A_11C_V33_GPRS_MMI/Tools/MinGW/include/c++/3.3.1/bits/stl_list.h ****      *  @param  last   An input iterator.
 838:h:/6261A/11CW1352MP_BIRD61A_11C_V33_GPRS_MMI/Tools/MinGW/include/c++/3.3.1/bits/stl_list.h ****      *
 839:h:/6261A/11CW1352MP_BIRD61A_11C_V33_GPRS_MMI/Tools/MinGW/include/c++/3.3.1/bits/stl_list.h ****      *  This function will insert copies of the data in the range [first,last)
 840:h:/6261A/11CW1352MP_BIRD61A_11C_V33_GPRS_MMI/Tools/MinGW/include/c++/3.3.1/bits/stl_list.h ****      *  into the %list before the location specified by @a pos.
 841:h:/6261A/11CW1352MP_BIRD61A_11C_V33_GPRS_MMI/Tools/MinGW/include/c++/3.3.1/bits/stl_list.h ****      *
 842:h:/6261A/11CW1352MP_BIRD61A_11C_V33_GPRS_MMI/Tools/MinGW/include/c++/3.3.1/bits/stl_list.h ****      *  Due to the nature of a %list this operation can be done in constant
 843:h:/6261A/11CW1352MP_BIRD61A_11C_V33_GPRS_MMI/Tools/MinGW/include/c++/3.3.1/bits/stl_list.h ****      *  time, and does not invalidate iterators and references.
 844:h:/6261A/11CW1352MP_BIRD61A_11C_V33_GPRS_MMI/Tools/MinGW/include/c++/3.3.1/bits/stl_list.h ****     */
 845:h:/6261A/11CW1352MP_BIRD61A_11C_V33_GPRS_MMI/Tools/MinGW/include/c++/3.3.1/bits/stl_list.h ****     template<typename _InputIterator>
 846:h:/6261A/11CW1352MP_BIRD61A_11C_V33_GPRS_MMI/Tools/MinGW/include/c++/3.3.1/bits/stl_list.h ****       void
 847:h:/6261A/11CW1352MP_BIRD61A_11C_V33_GPRS_MMI/Tools/MinGW/include/c++/3.3.1/bits/stl_list.h ****       insert(iterator __pos, _InputIterator __first, _InputIterator __last)
 848:h:/6261A/11CW1352MP_BIRD61A_11C_V33_GPRS_MMI/Tools/MinGW/include/c++/3.3.1/bits/stl_list.h ****       {
 849:h:/6261A/11CW1352MP_BIRD61A_11C_V33_GPRS_MMI/Tools/MinGW/include/c++/3.3.1/bits/stl_list.h ****         // Check whether it's an integral type.  If so, it's not an iterator.
 850:h:/6261A/11CW1352MP_BIRD61A_11C_V33_GPRS_MMI/Tools/MinGW/include/c++/3.3.1/bits/stl_list.h ****         typedef typename _Is_integer<_InputIterator>::_Integral _Integral;
 851:h:/6261A/11CW1352MP_BIRD61A_11C_V33_GPRS_MMI/Tools/MinGW/include/c++/3.3.1/bits/stl_list.h ****         _M_insert_dispatch(__pos, __first, __last, _Integral());
 852:h:/6261A/11CW1352MP_BIRD61A_11C_V33_GPRS_MMI/Tools/MinGW/include/c++/3.3.1/bits/stl_list.h ****       }
GAS LISTING h:/6261A/11CW1352MP_BIRD61A_11C_V33_GPRS_MMI/plutommi/Customer/ResGenerator/gcctmp/ccEHcaaa.s 			page 98


 853:h:/6261A/11CW1352MP_BIRD61A_11C_V33_GPRS_MMI/Tools/MinGW/include/c++/3.3.1/bits/stl_list.h ****   
 854:h:/6261A/11CW1352MP_BIRD61A_11C_V33_GPRS_MMI/Tools/MinGW/include/c++/3.3.1/bits/stl_list.h ****     /**
 855:h:/6261A/11CW1352MP_BIRD61A_11C_V33_GPRS_MMI/Tools/MinGW/include/c++/3.3.1/bits/stl_list.h ****      *  @brief  Remove element at given position.
 856:h:/6261A/11CW1352MP_BIRD61A_11C_V33_GPRS_MMI/Tools/MinGW/include/c++/3.3.1/bits/stl_list.h ****      *  @param  position  Iterator pointing to element to be erased.
 857:h:/6261A/11CW1352MP_BIRD61A_11C_V33_GPRS_MMI/Tools/MinGW/include/c++/3.3.1/bits/stl_list.h ****      *  @return  An iterator pointing to the next element (or end()).
 858:h:/6261A/11CW1352MP_BIRD61A_11C_V33_GPRS_MMI/Tools/MinGW/include/c++/3.3.1/bits/stl_list.h ****      *
 859:h:/6261A/11CW1352MP_BIRD61A_11C_V33_GPRS_MMI/Tools/MinGW/include/c++/3.3.1/bits/stl_list.h ****      *  This function will erase the element at the given position and thus
 860:h:/6261A/11CW1352MP_BIRD61A_11C_V33_GPRS_MMI/Tools/MinGW/include/c++/3.3.1/bits/stl_list.h ****      *  shorten the %list by one.
 861:h:/6261A/11CW1352MP_BIRD61A_11C_V33_GPRS_MMI/Tools/MinGW/include/c++/3.3.1/bits/stl_list.h ****      *
 862:h:/6261A/11CW1352MP_BIRD61A_11C_V33_GPRS_MMI/Tools/MinGW/include/c++/3.3.1/bits/stl_list.h ****      *  Due to the nature of a %list this operation can be done in constant
 863:h:/6261A/11CW1352MP_BIRD61A_11C_V33_GPRS_MMI/Tools/MinGW/include/c++/3.3.1/bits/stl_list.h ****      *  time, and only invalidates iterators/references to the element being
 864:h:/6261A/11CW1352MP_BIRD61A_11C_V33_GPRS_MMI/Tools/MinGW/include/c++/3.3.1/bits/stl_list.h ****      *  removed.
 865:h:/6261A/11CW1352MP_BIRD61A_11C_V33_GPRS_MMI/Tools/MinGW/include/c++/3.3.1/bits/stl_list.h ****      *  The user is also cautioned that
 866:h:/6261A/11CW1352MP_BIRD61A_11C_V33_GPRS_MMI/Tools/MinGW/include/c++/3.3.1/bits/stl_list.h ****      *  this function only erases the element, and that if the element is itself
 867:h:/6261A/11CW1352MP_BIRD61A_11C_V33_GPRS_MMI/Tools/MinGW/include/c++/3.3.1/bits/stl_list.h ****      *  a pointer, the pointed-to memory is not touched in any way.  Managing
 868:h:/6261A/11CW1352MP_BIRD61A_11C_V33_GPRS_MMI/Tools/MinGW/include/c++/3.3.1/bits/stl_list.h ****      *  the pointer is the user's responsibilty.
 869:h:/6261A/11CW1352MP_BIRD61A_11C_V33_GPRS_MMI/Tools/MinGW/include/c++/3.3.1/bits/stl_list.h ****     */
 870:h:/6261A/11CW1352MP_BIRD61A_11C_V33_GPRS_MMI/Tools/MinGW/include/c++/3.3.1/bits/stl_list.h ****     iterator
 871:h:/6261A/11CW1352MP_BIRD61A_11C_V33_GPRS_MMI/Tools/MinGW/include/c++/3.3.1/bits/stl_list.h ****     erase(iterator __position);
 872:h:/6261A/11CW1352MP_BIRD61A_11C_V33_GPRS_MMI/Tools/MinGW/include/c++/3.3.1/bits/stl_list.h ****   
 873:h:/6261A/11CW1352MP_BIRD61A_11C_V33_GPRS_MMI/Tools/MinGW/include/c++/3.3.1/bits/stl_list.h ****     /**
 874:h:/6261A/11CW1352MP_BIRD61A_11C_V33_GPRS_MMI/Tools/MinGW/include/c++/3.3.1/bits/stl_list.h ****      *  @brief  Remove a range of elements.
 875:h:/6261A/11CW1352MP_BIRD61A_11C_V33_GPRS_MMI/Tools/MinGW/include/c++/3.3.1/bits/stl_list.h ****      *  @param  first  Iterator pointing to the first element to be erased.
 876:h:/6261A/11CW1352MP_BIRD61A_11C_V33_GPRS_MMI/Tools/MinGW/include/c++/3.3.1/bits/stl_list.h ****      *  @param  last  Iterator pointing to one past the last element to be
 877:h:/6261A/11CW1352MP_BIRD61A_11C_V33_GPRS_MMI/Tools/MinGW/include/c++/3.3.1/bits/stl_list.h ****      *                erased.
 878:h:/6261A/11CW1352MP_BIRD61A_11C_V33_GPRS_MMI/Tools/MinGW/include/c++/3.3.1/bits/stl_list.h ****      *  @return  An iterator pointing to the element pointed to by @a last
 879:h:/6261A/11CW1352MP_BIRD61A_11C_V33_GPRS_MMI/Tools/MinGW/include/c++/3.3.1/bits/stl_list.h ****      *           prior to erasing (or end()).
 880:h:/6261A/11CW1352MP_BIRD61A_11C_V33_GPRS_MMI/Tools/MinGW/include/c++/3.3.1/bits/stl_list.h ****      *
 881:h:/6261A/11CW1352MP_BIRD61A_11C_V33_GPRS_MMI/Tools/MinGW/include/c++/3.3.1/bits/stl_list.h ****      *  This function will erase the elements in the range [first,last) and
 882:h:/6261A/11CW1352MP_BIRD61A_11C_V33_GPRS_MMI/Tools/MinGW/include/c++/3.3.1/bits/stl_list.h ****      *  shorten the %list accordingly.
 883:h:/6261A/11CW1352MP_BIRD61A_11C_V33_GPRS_MMI/Tools/MinGW/include/c++/3.3.1/bits/stl_list.h ****      *
 884:h:/6261A/11CW1352MP_BIRD61A_11C_V33_GPRS_MMI/Tools/MinGW/include/c++/3.3.1/bits/stl_list.h ****      *  Due to the nature of a %list this operation can be done in constant
 885:h:/6261A/11CW1352MP_BIRD61A_11C_V33_GPRS_MMI/Tools/MinGW/include/c++/3.3.1/bits/stl_list.h ****      *  time, and only invalidates iterators/references to the element being
 886:h:/6261A/11CW1352MP_BIRD61A_11C_V33_GPRS_MMI/Tools/MinGW/include/c++/3.3.1/bits/stl_list.h ****      *  removed.
 887:h:/6261A/11CW1352MP_BIRD61A_11C_V33_GPRS_MMI/Tools/MinGW/include/c++/3.3.1/bits/stl_list.h ****      *  The user is also cautioned that
 888:h:/6261A/11CW1352MP_BIRD61A_11C_V33_GPRS_MMI/Tools/MinGW/include/c++/3.3.1/bits/stl_list.h ****      *  this function only erases the elements, and that if the elements
 889:h:/6261A/11CW1352MP_BIRD61A_11C_V33_GPRS_MMI/Tools/MinGW/include/c++/3.3.1/bits/stl_list.h ****      *  themselves are pointers, the pointed-to memory is not touched in any
 890:h:/6261A/11CW1352MP_BIRD61A_11C_V33_GPRS_MMI/Tools/MinGW/include/c++/3.3.1/bits/stl_list.h ****      *  way.  Managing the pointer is the user's responsibilty.
 891:h:/6261A/11CW1352MP_BIRD61A_11C_V33_GPRS_MMI/Tools/MinGW/include/c++/3.3.1/bits/stl_list.h ****     */
 892:h:/6261A/11CW1352MP_BIRD61A_11C_V33_GPRS_MMI/Tools/MinGW/include/c++/3.3.1/bits/stl_list.h ****     iterator
 893:h:/6261A/11CW1352MP_BIRD61A_11C_V33_GPRS_MMI/Tools/MinGW/include/c++/3.3.1/bits/stl_list.h ****     erase(iterator __first, iterator __last)
 894:h:/6261A/11CW1352MP_BIRD61A_11C_V33_GPRS_MMI/Tools/MinGW/include/c++/3.3.1/bits/stl_list.h ****     {
 895:h:/6261A/11CW1352MP_BIRD61A_11C_V33_GPRS_MMI/Tools/MinGW/include/c++/3.3.1/bits/stl_list.h ****       while (__first != __last)
 896:h:/6261A/11CW1352MP_BIRD61A_11C_V33_GPRS_MMI/Tools/MinGW/include/c++/3.3.1/bits/stl_list.h ****         erase(__first++);
 897:h:/6261A/11CW1352MP_BIRD61A_11C_V33_GPRS_MMI/Tools/MinGW/include/c++/3.3.1/bits/stl_list.h ****       return __last;
 898:h:/6261A/11CW1352MP_BIRD61A_11C_V33_GPRS_MMI/Tools/MinGW/include/c++/3.3.1/bits/stl_list.h ****     }
 899:h:/6261A/11CW1352MP_BIRD61A_11C_V33_GPRS_MMI/Tools/MinGW/include/c++/3.3.1/bits/stl_list.h ****   
 900:h:/6261A/11CW1352MP_BIRD61A_11C_V33_GPRS_MMI/Tools/MinGW/include/c++/3.3.1/bits/stl_list.h ****     /**
 901:h:/6261A/11CW1352MP_BIRD61A_11C_V33_GPRS_MMI/Tools/MinGW/include/c++/3.3.1/bits/stl_list.h ****      *  @brief  Swaps data with another %list.
 902:h:/6261A/11CW1352MP_BIRD61A_11C_V33_GPRS_MMI/Tools/MinGW/include/c++/3.3.1/bits/stl_list.h ****      *  @param  x  A %list of the same element and allocator types.
 903:h:/6261A/11CW1352MP_BIRD61A_11C_V33_GPRS_MMI/Tools/MinGW/include/c++/3.3.1/bits/stl_list.h ****      *
 904:h:/6261A/11CW1352MP_BIRD61A_11C_V33_GPRS_MMI/Tools/MinGW/include/c++/3.3.1/bits/stl_list.h ****      *  This exchanges the elements between two lists in constant time.
 905:h:/6261A/11CW1352MP_BIRD61A_11C_V33_GPRS_MMI/Tools/MinGW/include/c++/3.3.1/bits/stl_list.h ****      *  (It is only swapping a single pointer, so it should be quite fast.)
 906:h:/6261A/11CW1352MP_BIRD61A_11C_V33_GPRS_MMI/Tools/MinGW/include/c++/3.3.1/bits/stl_list.h ****      *  Note that the global std::swap() function is specialized such that
 907:h:/6261A/11CW1352MP_BIRD61A_11C_V33_GPRS_MMI/Tools/MinGW/include/c++/3.3.1/bits/stl_list.h ****      *  std::swap(l1,l2) will feed to this function.
 908:h:/6261A/11CW1352MP_BIRD61A_11C_V33_GPRS_MMI/Tools/MinGW/include/c++/3.3.1/bits/stl_list.h ****     */
 909:h:/6261A/11CW1352MP_BIRD61A_11C_V33_GPRS_MMI/Tools/MinGW/include/c++/3.3.1/bits/stl_list.h ****     void
GAS LISTING h:/6261A/11CW1352MP_BIRD61A_11C_V33_GPRS_MMI/plutommi/Customer/ResGenerator/gcctmp/ccEHcaaa.s 			page 99


 910:h:/6261A/11CW1352MP_BIRD61A_11C_V33_GPRS_MMI/Tools/MinGW/include/c++/3.3.1/bits/stl_list.h ****     swap(list& __x) { std::swap(_M_node, __x._M_node); }
 911:h:/6261A/11CW1352MP_BIRD61A_11C_V33_GPRS_MMI/Tools/MinGW/include/c++/3.3.1/bits/stl_list.h ****   
 912:h:/6261A/11CW1352MP_BIRD61A_11C_V33_GPRS_MMI/Tools/MinGW/include/c++/3.3.1/bits/stl_list.h ****     /**
 913:h:/6261A/11CW1352MP_BIRD61A_11C_V33_GPRS_MMI/Tools/MinGW/include/c++/3.3.1/bits/stl_list.h ****      *  Erases all the elements.  Note that this function only erases the
 914:h:/6261A/11CW1352MP_BIRD61A_11C_V33_GPRS_MMI/Tools/MinGW/include/c++/3.3.1/bits/stl_list.h ****      *  elements, and that if the elements themselves are pointers, the
 915:h:/6261A/11CW1352MP_BIRD61A_11C_V33_GPRS_MMI/Tools/MinGW/include/c++/3.3.1/bits/stl_list.h ****      *  pointed-to memory is not touched in any way.  Managing the pointer is
 916:h:/6261A/11CW1352MP_BIRD61A_11C_V33_GPRS_MMI/Tools/MinGW/include/c++/3.3.1/bits/stl_list.h ****      *  the user's responsibilty.
 917:h:/6261A/11CW1352MP_BIRD61A_11C_V33_GPRS_MMI/Tools/MinGW/include/c++/3.3.1/bits/stl_list.h ****     */
 918:h:/6261A/11CW1352MP_BIRD61A_11C_V33_GPRS_MMI/Tools/MinGW/include/c++/3.3.1/bits/stl_list.h ****     void
 919:h:/6261A/11CW1352MP_BIRD61A_11C_V33_GPRS_MMI/Tools/MinGW/include/c++/3.3.1/bits/stl_list.h ****     clear() { _Base::__clear(); }
 6658              	LM195:
 6659 0000 55       		pushl	%ebp
 6660 0001 89E5     		movl	%esp, %ebp
 6661 0003 83EC08   		subl	$8, %esp
 6663              	LM196:
 6664              	LBB45:
 6665 0006 8B4508   		movl	8(%ebp), %eax
 6666 0009 890424   		movl	%eax, (%esp)
 6667 000c E8000000 		call	__ZNSt10_List_baseIN10ThreadPool7JobDataESaIS1_EE7__clearEv
 6667      00
 6668 0011 C9       		leave
 6669 0012 C3       		ret
 6670              	LBE45:
 6671              	Lscope28:
 6681 0013 90       		.section	.text$_ZNSt6vectorIN10ThreadPool10ThreadDataESaIS1_EE5clearEv,"x"
 6682              		.linkonce discard
 6683              		.align 2
 6686              	.globl __ZNSt6vectorIN10ThreadPool10ThreadDataESaIS1_EE5clearEv
 6688              	__ZNSt6vectorIN10ThreadPool10ThreadDataESaIS1_EE5clearEv:
 6690              	Ltext7:
 604:h:/6261A/11CW1352MP_BIRD61A_11C_V33_GPRS_MMI/Tools/MinGW/include/c++/3.3.1/bits/stl_vector.h ****       }
 605:h:/6261A/11CW1352MP_BIRD61A_11C_V33_GPRS_MMI/Tools/MinGW/include/c++/3.3.1/bits/stl_vector.h ****       
 606:h:/6261A/11CW1352MP_BIRD61A_11C_V33_GPRS_MMI/Tools/MinGW/include/c++/3.3.1/bits/stl_vector.h ****       /**
 607:h:/6261A/11CW1352MP_BIRD61A_11C_V33_GPRS_MMI/Tools/MinGW/include/c++/3.3.1/bits/stl_vector.h ****        *  @brief  Removes last element.
 608:h:/6261A/11CW1352MP_BIRD61A_11C_V33_GPRS_MMI/Tools/MinGW/include/c++/3.3.1/bits/stl_vector.h ****        *
 609:h:/6261A/11CW1352MP_BIRD61A_11C_V33_GPRS_MMI/Tools/MinGW/include/c++/3.3.1/bits/stl_vector.h ****        *  This is a typical stack operation. It shrinks the %vector by one.
 610:h:/6261A/11CW1352MP_BIRD61A_11C_V33_GPRS_MMI/Tools/MinGW/include/c++/3.3.1/bits/stl_vector.h ****        *
 611:h:/6261A/11CW1352MP_BIRD61A_11C_V33_GPRS_MMI/Tools/MinGW/include/c++/3.3.1/bits/stl_vector.h ****        *  Note that no data is returned, and if the last element's data is
 612:h:/6261A/11CW1352MP_BIRD61A_11C_V33_GPRS_MMI/Tools/MinGW/include/c++/3.3.1/bits/stl_vector.h ****        *  needed, it should be retrieved before pop_back() is called.
 613:h:/6261A/11CW1352MP_BIRD61A_11C_V33_GPRS_MMI/Tools/MinGW/include/c++/3.3.1/bits/stl_vector.h ****        */
 614:h:/6261A/11CW1352MP_BIRD61A_11C_V33_GPRS_MMI/Tools/MinGW/include/c++/3.3.1/bits/stl_vector.h ****       void
 615:h:/6261A/11CW1352MP_BIRD61A_11C_V33_GPRS_MMI/Tools/MinGW/include/c++/3.3.1/bits/stl_vector.h ****       pop_back()
 616:h:/6261A/11CW1352MP_BIRD61A_11C_V33_GPRS_MMI/Tools/MinGW/include/c++/3.3.1/bits/stl_vector.h ****       {
 617:h:/6261A/11CW1352MP_BIRD61A_11C_V33_GPRS_MMI/Tools/MinGW/include/c++/3.3.1/bits/stl_vector.h **** 	--_M_finish;
 618:h:/6261A/11CW1352MP_BIRD61A_11C_V33_GPRS_MMI/Tools/MinGW/include/c++/3.3.1/bits/stl_vector.h **** 	_Destroy(_M_finish);
 619:h:/6261A/11CW1352MP_BIRD61A_11C_V33_GPRS_MMI/Tools/MinGW/include/c++/3.3.1/bits/stl_vector.h ****       }
 620:h:/6261A/11CW1352MP_BIRD61A_11C_V33_GPRS_MMI/Tools/MinGW/include/c++/3.3.1/bits/stl_vector.h ****       
 621:h:/6261A/11CW1352MP_BIRD61A_11C_V33_GPRS_MMI/Tools/MinGW/include/c++/3.3.1/bits/stl_vector.h ****       /**
 622:h:/6261A/11CW1352MP_BIRD61A_11C_V33_GPRS_MMI/Tools/MinGW/include/c++/3.3.1/bits/stl_vector.h ****        *  @brief  Inserts given value into %vector before specified iterator.
 623:h:/6261A/11CW1352MP_BIRD61A_11C_V33_GPRS_MMI/Tools/MinGW/include/c++/3.3.1/bits/stl_vector.h ****        *  @param  position  An iterator into the %vector.
 624:h:/6261A/11CW1352MP_BIRD61A_11C_V33_GPRS_MMI/Tools/MinGW/include/c++/3.3.1/bits/stl_vector.h ****        *  @param  x  Data to be inserted.
 625:h:/6261A/11CW1352MP_BIRD61A_11C_V33_GPRS_MMI/Tools/MinGW/include/c++/3.3.1/bits/stl_vector.h ****        *  @return  An iterator that points to the inserted data.
 626:h:/6261A/11CW1352MP_BIRD61A_11C_V33_GPRS_MMI/Tools/MinGW/include/c++/3.3.1/bits/stl_vector.h ****        *
 627:h:/6261A/11CW1352MP_BIRD61A_11C_V33_GPRS_MMI/Tools/MinGW/include/c++/3.3.1/bits/stl_vector.h ****        *  This function will insert a copy of the given value before
 628:h:/6261A/11CW1352MP_BIRD61A_11C_V33_GPRS_MMI/Tools/MinGW/include/c++/3.3.1/bits/stl_vector.h ****        *  the specified location.  Note that this kind of operation
 629:h:/6261A/11CW1352MP_BIRD61A_11C_V33_GPRS_MMI/Tools/MinGW/include/c++/3.3.1/bits/stl_vector.h ****        *  could be expensive for a %vector and if it is frequently
 630:h:/6261A/11CW1352MP_BIRD61A_11C_V33_GPRS_MMI/Tools/MinGW/include/c++/3.3.1/bits/stl_vector.h ****        *  used the user should consider using std::list.
GAS LISTING h:/6261A/11CW1352MP_BIRD61A_11C_V33_GPRS_MMI/plutommi/Customer/ResGenerator/gcctmp/ccEHcaaa.s 			page 100


 631:h:/6261A/11CW1352MP_BIRD61A_11C_V33_GPRS_MMI/Tools/MinGW/include/c++/3.3.1/bits/stl_vector.h ****        */
 632:h:/6261A/11CW1352MP_BIRD61A_11C_V33_GPRS_MMI/Tools/MinGW/include/c++/3.3.1/bits/stl_vector.h ****       iterator
 633:h:/6261A/11CW1352MP_BIRD61A_11C_V33_GPRS_MMI/Tools/MinGW/include/c++/3.3.1/bits/stl_vector.h ****       insert(iterator __position, const value_type& __x);
 634:h:/6261A/11CW1352MP_BIRD61A_11C_V33_GPRS_MMI/Tools/MinGW/include/c++/3.3.1/bits/stl_vector.h ****   
 635:h:/6261A/11CW1352MP_BIRD61A_11C_V33_GPRS_MMI/Tools/MinGW/include/c++/3.3.1/bits/stl_vector.h **** #ifdef _GLIBCPP_DEPRECATED
 636:h:/6261A/11CW1352MP_BIRD61A_11C_V33_GPRS_MMI/Tools/MinGW/include/c++/3.3.1/bits/stl_vector.h ****       /**
 637:h:/6261A/11CW1352MP_BIRD61A_11C_V33_GPRS_MMI/Tools/MinGW/include/c++/3.3.1/bits/stl_vector.h ****        *  @brief  Inserts an element into the %vector.
 638:h:/6261A/11CW1352MP_BIRD61A_11C_V33_GPRS_MMI/Tools/MinGW/include/c++/3.3.1/bits/stl_vector.h ****        *  @param  position  An iterator into the %vector.
 639:h:/6261A/11CW1352MP_BIRD61A_11C_V33_GPRS_MMI/Tools/MinGW/include/c++/3.3.1/bits/stl_vector.h ****        *  @return  An iterator that points to the inserted element.
 640:h:/6261A/11CW1352MP_BIRD61A_11C_V33_GPRS_MMI/Tools/MinGW/include/c++/3.3.1/bits/stl_vector.h ****        *
 641:h:/6261A/11CW1352MP_BIRD61A_11C_V33_GPRS_MMI/Tools/MinGW/include/c++/3.3.1/bits/stl_vector.h ****        *  This function will insert a default-constructed element
 642:h:/6261A/11CW1352MP_BIRD61A_11C_V33_GPRS_MMI/Tools/MinGW/include/c++/3.3.1/bits/stl_vector.h ****        *  before the specified location.  You should consider using
 643:h:/6261A/11CW1352MP_BIRD61A_11C_V33_GPRS_MMI/Tools/MinGW/include/c++/3.3.1/bits/stl_vector.h ****        *  insert(position,value_type()) instead.  Note that this kind
 644:h:/6261A/11CW1352MP_BIRD61A_11C_V33_GPRS_MMI/Tools/MinGW/include/c++/3.3.1/bits/stl_vector.h ****        *  of operation could be expensive for a vector and if it is
 645:h:/6261A/11CW1352MP_BIRD61A_11C_V33_GPRS_MMI/Tools/MinGW/include/c++/3.3.1/bits/stl_vector.h ****        *  frequently used the user should consider using std::list.
 646:h:/6261A/11CW1352MP_BIRD61A_11C_V33_GPRS_MMI/Tools/MinGW/include/c++/3.3.1/bits/stl_vector.h ****        *
 647:h:/6261A/11CW1352MP_BIRD61A_11C_V33_GPRS_MMI/Tools/MinGW/include/c++/3.3.1/bits/stl_vector.h ****        *  @note This was deprecated in 3.2 and will be removed in 3.4.
 648:h:/6261A/11CW1352MP_BIRD61A_11C_V33_GPRS_MMI/Tools/MinGW/include/c++/3.3.1/bits/stl_vector.h ****        *  You must define @c _GLIBCPP_DEPRECATED to make this visible
 649:h:/6261A/11CW1352MP_BIRD61A_11C_V33_GPRS_MMI/Tools/MinGW/include/c++/3.3.1/bits/stl_vector.h ****        *  in 3.2; see c++config.h.
 650:h:/6261A/11CW1352MP_BIRD61A_11C_V33_GPRS_MMI/Tools/MinGW/include/c++/3.3.1/bits/stl_vector.h ****        */
 651:h:/6261A/11CW1352MP_BIRD61A_11C_V33_GPRS_MMI/Tools/MinGW/include/c++/3.3.1/bits/stl_vector.h ****       iterator
 652:h:/6261A/11CW1352MP_BIRD61A_11C_V33_GPRS_MMI/Tools/MinGW/include/c++/3.3.1/bits/stl_vector.h ****       insert(iterator __position)
 653:h:/6261A/11CW1352MP_BIRD61A_11C_V33_GPRS_MMI/Tools/MinGW/include/c++/3.3.1/bits/stl_vector.h ****       { return insert(__position, value_type()); }
 654:h:/6261A/11CW1352MP_BIRD61A_11C_V33_GPRS_MMI/Tools/MinGW/include/c++/3.3.1/bits/stl_vector.h **** #endif
 655:h:/6261A/11CW1352MP_BIRD61A_11C_V33_GPRS_MMI/Tools/MinGW/include/c++/3.3.1/bits/stl_vector.h ****       
 656:h:/6261A/11CW1352MP_BIRD61A_11C_V33_GPRS_MMI/Tools/MinGW/include/c++/3.3.1/bits/stl_vector.h ****       /**
 657:h:/6261A/11CW1352MP_BIRD61A_11C_V33_GPRS_MMI/Tools/MinGW/include/c++/3.3.1/bits/stl_vector.h ****        *  @brief  Inserts a number of copies of given data into the %vector.
 658:h:/6261A/11CW1352MP_BIRD61A_11C_V33_GPRS_MMI/Tools/MinGW/include/c++/3.3.1/bits/stl_vector.h ****        *  @param  position  An iterator into the %vector.
 659:h:/6261A/11CW1352MP_BIRD61A_11C_V33_GPRS_MMI/Tools/MinGW/include/c++/3.3.1/bits/stl_vector.h ****        *  @param  n  Number of elements to be inserted.
 660:h:/6261A/11CW1352MP_BIRD61A_11C_V33_GPRS_MMI/Tools/MinGW/include/c++/3.3.1/bits/stl_vector.h ****        *  @param  x  Data to be inserted.
 661:h:/6261A/11CW1352MP_BIRD61A_11C_V33_GPRS_MMI/Tools/MinGW/include/c++/3.3.1/bits/stl_vector.h ****        *
 662:h:/6261A/11CW1352MP_BIRD61A_11C_V33_GPRS_MMI/Tools/MinGW/include/c++/3.3.1/bits/stl_vector.h ****        *  This function will insert a specified number of copies of
 663:h:/6261A/11CW1352MP_BIRD61A_11C_V33_GPRS_MMI/Tools/MinGW/include/c++/3.3.1/bits/stl_vector.h ****        *  the given data before the location specified by @a position.
 664:h:/6261A/11CW1352MP_BIRD61A_11C_V33_GPRS_MMI/Tools/MinGW/include/c++/3.3.1/bits/stl_vector.h ****        *
 665:h:/6261A/11CW1352MP_BIRD61A_11C_V33_GPRS_MMI/Tools/MinGW/include/c++/3.3.1/bits/stl_vector.h ****        *  Note that this kind of operation could be expensive for a
 666:h:/6261A/11CW1352MP_BIRD61A_11C_V33_GPRS_MMI/Tools/MinGW/include/c++/3.3.1/bits/stl_vector.h ****        *  %vector and if it is frequently used the user should
 667:h:/6261A/11CW1352MP_BIRD61A_11C_V33_GPRS_MMI/Tools/MinGW/include/c++/3.3.1/bits/stl_vector.h ****        *  consider using std::list.
 668:h:/6261A/11CW1352MP_BIRD61A_11C_V33_GPRS_MMI/Tools/MinGW/include/c++/3.3.1/bits/stl_vector.h ****        */
 669:h:/6261A/11CW1352MP_BIRD61A_11C_V33_GPRS_MMI/Tools/MinGW/include/c++/3.3.1/bits/stl_vector.h ****       void
 670:h:/6261A/11CW1352MP_BIRD61A_11C_V33_GPRS_MMI/Tools/MinGW/include/c++/3.3.1/bits/stl_vector.h ****       insert(iterator __pos, size_type __n, const value_type& __x)
 671:h:/6261A/11CW1352MP_BIRD61A_11C_V33_GPRS_MMI/Tools/MinGW/include/c++/3.3.1/bits/stl_vector.h ****       { _M_fill_insert(__pos, __n, __x); }
 672:h:/6261A/11CW1352MP_BIRD61A_11C_V33_GPRS_MMI/Tools/MinGW/include/c++/3.3.1/bits/stl_vector.h ****       
 673:h:/6261A/11CW1352MP_BIRD61A_11C_V33_GPRS_MMI/Tools/MinGW/include/c++/3.3.1/bits/stl_vector.h ****       /**
 674:h:/6261A/11CW1352MP_BIRD61A_11C_V33_GPRS_MMI/Tools/MinGW/include/c++/3.3.1/bits/stl_vector.h ****        *  @brief  Inserts a range into the %vector.
 675:h:/6261A/11CW1352MP_BIRD61A_11C_V33_GPRS_MMI/Tools/MinGW/include/c++/3.3.1/bits/stl_vector.h ****        *  @param  pos  An iterator into the %vector.
 676:h:/6261A/11CW1352MP_BIRD61A_11C_V33_GPRS_MMI/Tools/MinGW/include/c++/3.3.1/bits/stl_vector.h ****        *  @param  first  An input iterator.
 677:h:/6261A/11CW1352MP_BIRD61A_11C_V33_GPRS_MMI/Tools/MinGW/include/c++/3.3.1/bits/stl_vector.h ****        *  @param  last   An input iterator.
 678:h:/6261A/11CW1352MP_BIRD61A_11C_V33_GPRS_MMI/Tools/MinGW/include/c++/3.3.1/bits/stl_vector.h ****        *
 679:h:/6261A/11CW1352MP_BIRD61A_11C_V33_GPRS_MMI/Tools/MinGW/include/c++/3.3.1/bits/stl_vector.h ****        *  This function will insert copies of the data in the range
 680:h:/6261A/11CW1352MP_BIRD61A_11C_V33_GPRS_MMI/Tools/MinGW/include/c++/3.3.1/bits/stl_vector.h ****        *  [first,last) into the %vector before the location specified
 681:h:/6261A/11CW1352MP_BIRD61A_11C_V33_GPRS_MMI/Tools/MinGW/include/c++/3.3.1/bits/stl_vector.h ****        *  by @a pos.
 682:h:/6261A/11CW1352MP_BIRD61A_11C_V33_GPRS_MMI/Tools/MinGW/include/c++/3.3.1/bits/stl_vector.h ****        *
 683:h:/6261A/11CW1352MP_BIRD61A_11C_V33_GPRS_MMI/Tools/MinGW/include/c++/3.3.1/bits/stl_vector.h ****        *  Note that this kind of operation could be expensive for a
 684:h:/6261A/11CW1352MP_BIRD61A_11C_V33_GPRS_MMI/Tools/MinGW/include/c++/3.3.1/bits/stl_vector.h ****        *  %vector and if it is frequently used the user should
 685:h:/6261A/11CW1352MP_BIRD61A_11C_V33_GPRS_MMI/Tools/MinGW/include/c++/3.3.1/bits/stl_vector.h ****        *  consider using std::list.
 686:h:/6261A/11CW1352MP_BIRD61A_11C_V33_GPRS_MMI/Tools/MinGW/include/c++/3.3.1/bits/stl_vector.h ****        */
 687:h:/6261A/11CW1352MP_BIRD61A_11C_V33_GPRS_MMI/Tools/MinGW/include/c++/3.3.1/bits/stl_vector.h ****       template<typename _InputIterator>
GAS LISTING h:/6261A/11CW1352MP_BIRD61A_11C_V33_GPRS_MMI/plutommi/Customer/ResGenerator/gcctmp/ccEHcaaa.s 			page 101


 688:h:/6261A/11CW1352MP_BIRD61A_11C_V33_GPRS_MMI/Tools/MinGW/include/c++/3.3.1/bits/stl_vector.h ****         void
 689:h:/6261A/11CW1352MP_BIRD61A_11C_V33_GPRS_MMI/Tools/MinGW/include/c++/3.3.1/bits/stl_vector.h ****         insert(iterator __pos, _InputIterator __first, _InputIterator __last)
 690:h:/6261A/11CW1352MP_BIRD61A_11C_V33_GPRS_MMI/Tools/MinGW/include/c++/3.3.1/bits/stl_vector.h ****         {
 691:h:/6261A/11CW1352MP_BIRD61A_11C_V33_GPRS_MMI/Tools/MinGW/include/c++/3.3.1/bits/stl_vector.h **** 	  // Check whether it's an integral type.  If so, it's not an iterator.
 692:h:/6261A/11CW1352MP_BIRD61A_11C_V33_GPRS_MMI/Tools/MinGW/include/c++/3.3.1/bits/stl_vector.h **** 	  typedef typename _Is_integer<_InputIterator>::_Integral _Integral;
 693:h:/6261A/11CW1352MP_BIRD61A_11C_V33_GPRS_MMI/Tools/MinGW/include/c++/3.3.1/bits/stl_vector.h **** 	  _M_insert_dispatch(__pos, __first, __last, _Integral());
 694:h:/6261A/11CW1352MP_BIRD61A_11C_V33_GPRS_MMI/Tools/MinGW/include/c++/3.3.1/bits/stl_vector.h **** 	}
 695:h:/6261A/11CW1352MP_BIRD61A_11C_V33_GPRS_MMI/Tools/MinGW/include/c++/3.3.1/bits/stl_vector.h ****       
 696:h:/6261A/11CW1352MP_BIRD61A_11C_V33_GPRS_MMI/Tools/MinGW/include/c++/3.3.1/bits/stl_vector.h ****       /**
 697:h:/6261A/11CW1352MP_BIRD61A_11C_V33_GPRS_MMI/Tools/MinGW/include/c++/3.3.1/bits/stl_vector.h ****        *  @brief  Remove element at given position.
 698:h:/6261A/11CW1352MP_BIRD61A_11C_V33_GPRS_MMI/Tools/MinGW/include/c++/3.3.1/bits/stl_vector.h ****        *  @param  position  Iterator pointing to element to be erased.
 699:h:/6261A/11CW1352MP_BIRD61A_11C_V33_GPRS_MMI/Tools/MinGW/include/c++/3.3.1/bits/stl_vector.h ****        *  @return  An iterator pointing to the next element (or end()).
 700:h:/6261A/11CW1352MP_BIRD61A_11C_V33_GPRS_MMI/Tools/MinGW/include/c++/3.3.1/bits/stl_vector.h ****        *
 701:h:/6261A/11CW1352MP_BIRD61A_11C_V33_GPRS_MMI/Tools/MinGW/include/c++/3.3.1/bits/stl_vector.h ****        *  This function will erase the element at the given position and thus
 702:h:/6261A/11CW1352MP_BIRD61A_11C_V33_GPRS_MMI/Tools/MinGW/include/c++/3.3.1/bits/stl_vector.h ****        *  shorten the %vector by one.
 703:h:/6261A/11CW1352MP_BIRD61A_11C_V33_GPRS_MMI/Tools/MinGW/include/c++/3.3.1/bits/stl_vector.h ****        *
 704:h:/6261A/11CW1352MP_BIRD61A_11C_V33_GPRS_MMI/Tools/MinGW/include/c++/3.3.1/bits/stl_vector.h ****        *  Note This operation could be expensive and if it is
 705:h:/6261A/11CW1352MP_BIRD61A_11C_V33_GPRS_MMI/Tools/MinGW/include/c++/3.3.1/bits/stl_vector.h ****        *  frequently used the user should consider using std::list.
 706:h:/6261A/11CW1352MP_BIRD61A_11C_V33_GPRS_MMI/Tools/MinGW/include/c++/3.3.1/bits/stl_vector.h ****        *  The user is also cautioned that this function only erases
 707:h:/6261A/11CW1352MP_BIRD61A_11C_V33_GPRS_MMI/Tools/MinGW/include/c++/3.3.1/bits/stl_vector.h ****        *  the element, and that if the element is itself a pointer,
 708:h:/6261A/11CW1352MP_BIRD61A_11C_V33_GPRS_MMI/Tools/MinGW/include/c++/3.3.1/bits/stl_vector.h ****        *  the pointed-to memory is not touched in any way.  Managing
 709:h:/6261A/11CW1352MP_BIRD61A_11C_V33_GPRS_MMI/Tools/MinGW/include/c++/3.3.1/bits/stl_vector.h ****        *  the pointer is the user's responsibilty.
 710:h:/6261A/11CW1352MP_BIRD61A_11C_V33_GPRS_MMI/Tools/MinGW/include/c++/3.3.1/bits/stl_vector.h ****        */
 711:h:/6261A/11CW1352MP_BIRD61A_11C_V33_GPRS_MMI/Tools/MinGW/include/c++/3.3.1/bits/stl_vector.h ****       iterator
 712:h:/6261A/11CW1352MP_BIRD61A_11C_V33_GPRS_MMI/Tools/MinGW/include/c++/3.3.1/bits/stl_vector.h ****       erase(iterator __position);
 713:h:/6261A/11CW1352MP_BIRD61A_11C_V33_GPRS_MMI/Tools/MinGW/include/c++/3.3.1/bits/stl_vector.h ****   
 714:h:/6261A/11CW1352MP_BIRD61A_11C_V33_GPRS_MMI/Tools/MinGW/include/c++/3.3.1/bits/stl_vector.h ****       /**
 715:h:/6261A/11CW1352MP_BIRD61A_11C_V33_GPRS_MMI/Tools/MinGW/include/c++/3.3.1/bits/stl_vector.h ****        *  @brief  Remove a range of elements.
 716:h:/6261A/11CW1352MP_BIRD61A_11C_V33_GPRS_MMI/Tools/MinGW/include/c++/3.3.1/bits/stl_vector.h ****        *  @param  first  Iterator pointing to the first element to be erased.
 717:h:/6261A/11CW1352MP_BIRD61A_11C_V33_GPRS_MMI/Tools/MinGW/include/c++/3.3.1/bits/stl_vector.h ****        *  @param  last  Iterator pointing to one past the last element to be
 718:h:/6261A/11CW1352MP_BIRD61A_11C_V33_GPRS_MMI/Tools/MinGW/include/c++/3.3.1/bits/stl_vector.h ****        *                erased.
 719:h:/6261A/11CW1352MP_BIRD61A_11C_V33_GPRS_MMI/Tools/MinGW/include/c++/3.3.1/bits/stl_vector.h ****        *  @return  An iterator pointing to the element pointed to by @a last
 720:h:/6261A/11CW1352MP_BIRD61A_11C_V33_GPRS_MMI/Tools/MinGW/include/c++/3.3.1/bits/stl_vector.h ****        *           prior to erasing (or end()).
 721:h:/6261A/11CW1352MP_BIRD61A_11C_V33_GPRS_MMI/Tools/MinGW/include/c++/3.3.1/bits/stl_vector.h ****        *
 722:h:/6261A/11CW1352MP_BIRD61A_11C_V33_GPRS_MMI/Tools/MinGW/include/c++/3.3.1/bits/stl_vector.h ****        *  This function will erase the elements in the range [first,last) and
 723:h:/6261A/11CW1352MP_BIRD61A_11C_V33_GPRS_MMI/Tools/MinGW/include/c++/3.3.1/bits/stl_vector.h ****        *  shorten the %vector accordingly.
 724:h:/6261A/11CW1352MP_BIRD61A_11C_V33_GPRS_MMI/Tools/MinGW/include/c++/3.3.1/bits/stl_vector.h ****        *
 725:h:/6261A/11CW1352MP_BIRD61A_11C_V33_GPRS_MMI/Tools/MinGW/include/c++/3.3.1/bits/stl_vector.h ****        *  Note This operation could be expensive and if it is
 726:h:/6261A/11CW1352MP_BIRD61A_11C_V33_GPRS_MMI/Tools/MinGW/include/c++/3.3.1/bits/stl_vector.h ****        *  frequently used the user should consider using std::list.
 727:h:/6261A/11CW1352MP_BIRD61A_11C_V33_GPRS_MMI/Tools/MinGW/include/c++/3.3.1/bits/stl_vector.h ****        *  The user is also cautioned that this function only erases
 728:h:/6261A/11CW1352MP_BIRD61A_11C_V33_GPRS_MMI/Tools/MinGW/include/c++/3.3.1/bits/stl_vector.h ****        *  the elements, and that if the elements themselves are
 729:h:/6261A/11CW1352MP_BIRD61A_11C_V33_GPRS_MMI/Tools/MinGW/include/c++/3.3.1/bits/stl_vector.h ****        *  pointers, the pointed-to memory is not touched in any way.
 730:h:/6261A/11CW1352MP_BIRD61A_11C_V33_GPRS_MMI/Tools/MinGW/include/c++/3.3.1/bits/stl_vector.h ****        *  Managing the pointer is the user's responsibilty.
 731:h:/6261A/11CW1352MP_BIRD61A_11C_V33_GPRS_MMI/Tools/MinGW/include/c++/3.3.1/bits/stl_vector.h ****        */
 732:h:/6261A/11CW1352MP_BIRD61A_11C_V33_GPRS_MMI/Tools/MinGW/include/c++/3.3.1/bits/stl_vector.h ****       iterator
 733:h:/6261A/11CW1352MP_BIRD61A_11C_V33_GPRS_MMI/Tools/MinGW/include/c++/3.3.1/bits/stl_vector.h ****       erase(iterator __first, iterator __last);
 734:h:/6261A/11CW1352MP_BIRD61A_11C_V33_GPRS_MMI/Tools/MinGW/include/c++/3.3.1/bits/stl_vector.h ****       
 735:h:/6261A/11CW1352MP_BIRD61A_11C_V33_GPRS_MMI/Tools/MinGW/include/c++/3.3.1/bits/stl_vector.h ****       /**
 736:h:/6261A/11CW1352MP_BIRD61A_11C_V33_GPRS_MMI/Tools/MinGW/include/c++/3.3.1/bits/stl_vector.h ****        *  @brief  Swaps data with another %vector.
 737:h:/6261A/11CW1352MP_BIRD61A_11C_V33_GPRS_MMI/Tools/MinGW/include/c++/3.3.1/bits/stl_vector.h ****        *  @param  x  A %vector of the same element and allocator types.
 738:h:/6261A/11CW1352MP_BIRD61A_11C_V33_GPRS_MMI/Tools/MinGW/include/c++/3.3.1/bits/stl_vector.h ****        *
 739:h:/6261A/11CW1352MP_BIRD61A_11C_V33_GPRS_MMI/Tools/MinGW/include/c++/3.3.1/bits/stl_vector.h ****        *  This exchanges the elements between two vectors in constant time.
 740:h:/6261A/11CW1352MP_BIRD61A_11C_V33_GPRS_MMI/Tools/MinGW/include/c++/3.3.1/bits/stl_vector.h ****        *  (Three pointers, so it should be quite fast.)
 741:h:/6261A/11CW1352MP_BIRD61A_11C_V33_GPRS_MMI/Tools/MinGW/include/c++/3.3.1/bits/stl_vector.h ****        *  Note that the global std::swap() function is specialized such that
 742:h:/6261A/11CW1352MP_BIRD61A_11C_V33_GPRS_MMI/Tools/MinGW/include/c++/3.3.1/bits/stl_vector.h ****        *  std::swap(v1,v2) will feed to this function.
 743:h:/6261A/11CW1352MP_BIRD61A_11C_V33_GPRS_MMI/Tools/MinGW/include/c++/3.3.1/bits/stl_vector.h ****        */
 744:h:/6261A/11CW1352MP_BIRD61A_11C_V33_GPRS_MMI/Tools/MinGW/include/c++/3.3.1/bits/stl_vector.h ****       void
GAS LISTING h:/6261A/11CW1352MP_BIRD61A_11C_V33_GPRS_MMI/plutommi/Customer/ResGenerator/gcctmp/ccEHcaaa.s 			page 102


 745:h:/6261A/11CW1352MP_BIRD61A_11C_V33_GPRS_MMI/Tools/MinGW/include/c++/3.3.1/bits/stl_vector.h ****       swap(vector& __x)
 746:h:/6261A/11CW1352MP_BIRD61A_11C_V33_GPRS_MMI/Tools/MinGW/include/c++/3.3.1/bits/stl_vector.h ****       {
 747:h:/6261A/11CW1352MP_BIRD61A_11C_V33_GPRS_MMI/Tools/MinGW/include/c++/3.3.1/bits/stl_vector.h **** 	std::swap(_M_start, __x._M_start);
 748:h:/6261A/11CW1352MP_BIRD61A_11C_V33_GPRS_MMI/Tools/MinGW/include/c++/3.3.1/bits/stl_vector.h **** 	std::swap(_M_finish, __x._M_finish);
 749:h:/6261A/11CW1352MP_BIRD61A_11C_V33_GPRS_MMI/Tools/MinGW/include/c++/3.3.1/bits/stl_vector.h **** 	std::swap(_M_end_of_storage, __x._M_end_of_storage);
 750:h:/6261A/11CW1352MP_BIRD61A_11C_V33_GPRS_MMI/Tools/MinGW/include/c++/3.3.1/bits/stl_vector.h ****       }
 751:h:/6261A/11CW1352MP_BIRD61A_11C_V33_GPRS_MMI/Tools/MinGW/include/c++/3.3.1/bits/stl_vector.h ****       
 752:h:/6261A/11CW1352MP_BIRD61A_11C_V33_GPRS_MMI/Tools/MinGW/include/c++/3.3.1/bits/stl_vector.h ****       /**
 753:h:/6261A/11CW1352MP_BIRD61A_11C_V33_GPRS_MMI/Tools/MinGW/include/c++/3.3.1/bits/stl_vector.h ****        *  Erases all the elements.  Note that this function only erases the
 754:h:/6261A/11CW1352MP_BIRD61A_11C_V33_GPRS_MMI/Tools/MinGW/include/c++/3.3.1/bits/stl_vector.h ****        *  elements, and that if the elements themselves are pointers, the
 755:h:/6261A/11CW1352MP_BIRD61A_11C_V33_GPRS_MMI/Tools/MinGW/include/c++/3.3.1/bits/stl_vector.h ****        *  pointed-to memory is not touched in any way.  Managing the pointer is
 756:h:/6261A/11CW1352MP_BIRD61A_11C_V33_GPRS_MMI/Tools/MinGW/include/c++/3.3.1/bits/stl_vector.h ****        *  the user's responsibilty.
 757:h:/6261A/11CW1352MP_BIRD61A_11C_V33_GPRS_MMI/Tools/MinGW/include/c++/3.3.1/bits/stl_vector.h ****        */
 758:h:/6261A/11CW1352MP_BIRD61A_11C_V33_GPRS_MMI/Tools/MinGW/include/c++/3.3.1/bits/stl_vector.h ****       void
 759:h:/6261A/11CW1352MP_BIRD61A_11C_V33_GPRS_MMI/Tools/MinGW/include/c++/3.3.1/bits/stl_vector.h ****       clear() { erase(begin(), end()); }
 6692              	LM197:
 6693 0000 55       		pushl	%ebp
 6694 0001 89E5     		movl	%esp, %ebp
 6695 0003 83EC18   		subl	$24, %esp
 6697              	LM198:
 6698              	LBB46:
 6699 0006 8B4508   		movl	8(%ebp), %eax
 6700 0009 890424   		movl	%eax, (%esp)
 6701 000c E8000000 		call	__ZNSt6vectorIN10ThreadPool10ThreadDataESaIS1_EE3endEv
 6701      00
 6702 0011 8945FC   		movl	%eax, -4(%ebp)
 6703 0014 8B4508   		movl	8(%ebp), %eax
 6704 0017 890424   		movl	%eax, (%esp)
 6705 001a E8000000 		call	__ZNSt6vectorIN10ThreadPool10ThreadDataESaIS1_EE5beginEv
 6705      00
 6706 001f 8945F8   		movl	%eax, -8(%ebp)
 6707 0022 8B45FC   		movl	-4(%ebp), %eax
 6708 0025 89442408 		movl	%eax, 8(%esp)
 6709 0029 8B45F8   		movl	-8(%ebp), %eax
 6710 002c 89442404 		movl	%eax, 4(%esp)
 6711 0030 8B4508   		movl	8(%ebp), %eax
 6712 0033 890424   		movl	%eax, (%esp)
 6713 0036 E8000000 		call	__ZNSt6vectorIN10ThreadPool10ThreadDataESaIS1_EE5eraseEN9__gnu_cxx17__normal_iteratorIPS1_S3_
 6713      00
 6714 003b C9       		leave
 6715 003c C3       		ret
 6716              	LBE46:
 6717              	Lscope29:
 6719 003d 909090   		.section	.text$_ZNSt4listIN10ThreadPool7JobDataESaIS1_EE9push_backERKS1_,"x"
 6720              		.linkonce discard
 6721              		.align 2
 6725              	.globl __ZNSt4listIN10ThreadPool7JobDataESaIS1_EE9push_backERKS1_
 6727              	__ZNSt4listIN10ThreadPool7JobDataESaIS1_EE9push_backERKS1_:
 6729              	Ltext8:
 6731              	LM199:
 6732 0000 55       		pushl	%ebp
 6733 0001 89E5     		movl	%esp, %ebp
 6734 0003 53       		pushl	%ebx
 6735 0004 83EC34   		subl	$52, %esp
 6737              	LM200:
 6738              	LBB47:
 6739 0007 8D5DE8   		leal	-24(%ebp), %ebx
GAS LISTING h:/6261A/11CW1352MP_BIRD61A_11C_V33_GPRS_MMI/plutommi/Customer/ResGenerator/gcctmp/ccEHcaaa.s 			page 103


 6740 000a 8D55D8   		leal	-40(%ebp), %edx
 6741 000d 8B4508   		movl	8(%ebp), %eax
 6742 0010 89442404 		movl	%eax, 4(%esp)
 6743 0014 891424   		movl	%edx, (%esp)
 6744 0017 E8000000 		call	__ZNSt4listIN10ThreadPool7JobDataESaIS1_EE3endEv
 6744      00
 6745 001c 83EC04   		subl	$4, %esp
 6746 001f 8D55D8   		leal	-40(%ebp), %edx
 6747 0022 8B450C   		movl	12(%ebp), %eax
 6748 0025 8944240C 		movl	%eax, 12(%esp)
 6749 0029 89542408 		movl	%edx, 8(%esp)
 6750 002d 8B4508   		movl	8(%ebp), %eax
 6751 0030 89442404 		movl	%eax, 4(%esp)
 6752 0034 891C24   		movl	%ebx, (%esp)
 6753 0037 E8000000 		call	__ZNSt4listIN10ThreadPool7JobDataESaIS1_EE6insertESt14_List_iteratorIS1_RS1_PS1_ERKS1_
 6753      00
 6754 003c 83EC04   		subl	$4, %esp
 6755 003f 8B5DFC   		movl	-4(%ebp), %ebx
 6756 0042 C9       		leave
 6757 0043 C3       		ret
 6758              	LBE47:
 6759              	Lscope30:
 6761              		.section	.text$_ZNSt4listIN10ThreadPool7JobDataESaIS1_EE10push_frontERKS1_,"x"
 6762              		.linkonce discard
 6763              		.align 2
 6767              	.globl __ZNSt4listIN10ThreadPool7JobDataESaIS1_EE10push_frontERKS1_
 6769              	__ZNSt4listIN10ThreadPool7JobDataESaIS1_EE10push_frontERKS1_:
 6771              	LM201:
 6772 0000 55       		pushl	%ebp
 6773 0001 89E5     		movl	%esp, %ebp
 6774 0003 53       		pushl	%ebx
 6775 0004 83EC34   		subl	$52, %esp
 6777              	LM202:
 6778              	LBB48:
 6779 0007 8D5DE8   		leal	-24(%ebp), %ebx
 6780 000a 8D55D8   		leal	-40(%ebp), %edx
 6781 000d 8B4508   		movl	8(%ebp), %eax
 6782 0010 89442404 		movl	%eax, 4(%esp)
 6783 0014 891424   		movl	%edx, (%esp)
 6784 0017 E8000000 		call	__ZNSt4listIN10ThreadPool7JobDataESaIS1_EE5beginEv
 6784      00
 6785 001c 83EC04   		subl	$4, %esp
 6786 001f 8D55D8   		leal	-40(%ebp), %edx
 6787 0022 8B450C   		movl	12(%ebp), %eax
 6788 0025 8944240C 		movl	%eax, 12(%esp)
 6789 0029 89542408 		movl	%edx, 8(%esp)
 6790 002d 8B4508   		movl	8(%ebp), %eax
 6791 0030 89442404 		movl	%eax, 4(%esp)
 6792 0034 891C24   		movl	%ebx, (%esp)
 6793 0037 E8000000 		call	__ZNSt4listIN10ThreadPool7JobDataESaIS1_EE6insertESt14_List_iteratorIS1_RS1_PS1_ERKS1_
 6793      00
 6794 003c 83EC04   		subl	$4, %esp
 6795 003f 8B5DFC   		movl	-4(%ebp), %ebx
 6796 0042 C9       		leave
 6797 0043 C3       		ret
 6798              	LBE48:
 6799              	Lscope31:
GAS LISTING h:/6261A/11CW1352MP_BIRD61A_11C_V33_GPRS_MMI/plutommi/Customer/ResGenerator/gcctmp/ccEHcaaa.s 			page 104


 6801              		.section	.text$_ZNSt4listIN10ThreadPool7JobDataESaIS1_EE9pop_frontEv,"x"
 6802              		.linkonce discard
 6803              		.align 2
 6806              	.globl __ZNSt4listIN10ThreadPool7JobDataESaIS1_EE9pop_frontEv
 6808              	__ZNSt4listIN10ThreadPool7JobDataESaIS1_EE9pop_frontEv:
 6810              	LM203:
 6811 0000 55       		pushl	%ebp
 6812 0001 89E5     		movl	%esp, %ebp
 6813 0003 53       		pushl	%ebx
 6814 0004 83EC34   		subl	$52, %esp
 6816              	LM204:
 6817              	LBB49:
 6818 0007 8D5DE8   		leal	-24(%ebp), %ebx
 6819 000a 8D55D8   		leal	-40(%ebp), %edx
 6820 000d 8B4508   		movl	8(%ebp), %eax
 6821 0010 89442404 		movl	%eax, 4(%esp)
 6822 0014 891424   		movl	%edx, (%esp)
 6823 0017 E8000000 		call	__ZNSt4listIN10ThreadPool7JobDataESaIS1_EE5beginEv
 6823      00
 6824 001c 83EC04   		subl	$4, %esp
 6825 001f 8D45D8   		leal	-40(%ebp), %eax
 6826 0022 89442408 		movl	%eax, 8(%esp)
 6827 0026 8B4508   		movl	8(%ebp), %eax
 6828 0029 89442404 		movl	%eax, 4(%esp)
 6829 002d 891C24   		movl	%ebx, (%esp)
 6830 0030 E8000000 		call	__ZNSt4listIN10ThreadPool7JobDataESaIS1_EE5eraseESt14_List_iteratorIS1_RS1_PS1_E
 6830      00
 6831 0035 83EC04   		subl	$4, %esp
 6832 0038 8B5DFC   		movl	-4(%ebp), %ebx
 6833 003b C9       		leave
 6834 003c C3       		ret
 6835              	LBE49:
 6836              	Lscope32:
 6840 003d 909090   		.section	.text$_ZSt8_DestroyIPN10ThreadPool10ThreadDataEEvT_S3_,"x"
 6841              		.linkonce discard
 6842              		.align 2
 6846              	.globl __ZSt8_DestroyIPN10ThreadPool10ThreadDataEEvT_S3_
 6848              	__ZSt8_DestroyIPN10ThreadPool10ThreadDataEEvT_S3_:
 6850              	Ltext9:
   1:h:/6261A/11CW1352MP_BIRD61A_11C_V33_GPRS_MMI/Tools/MinGW/include/c++/3.3.1/bits/stl_construct.h **** // nonstandard construct and destroy functions -*- C++ -*-
   2:h:/6261A/11CW1352MP_BIRD61A_11C_V33_GPRS_MMI/Tools/MinGW/include/c++/3.3.1/bits/stl_construct.h **** 
   3:h:/6261A/11CW1352MP_BIRD61A_11C_V33_GPRS_MMI/Tools/MinGW/include/c++/3.3.1/bits/stl_construct.h **** // Copyright (C) 2001, 2002 Free Software Foundation, Inc.
   4:h:/6261A/11CW1352MP_BIRD61A_11C_V33_GPRS_MMI/Tools/MinGW/include/c++/3.3.1/bits/stl_construct.h **** //
   5:h:/6261A/11CW1352MP_BIRD61A_11C_V33_GPRS_MMI/Tools/MinGW/include/c++/3.3.1/bits/stl_construct.h **** // This file is part of the GNU ISO C++ Library.  This library is free
   6:h:/6261A/11CW1352MP_BIRD61A_11C_V33_GPRS_MMI/Tools/MinGW/include/c++/3.3.1/bits/stl_construct.h **** // software; you can redistribute it and/or modify it under the
   7:h:/6261A/11CW1352MP_BIRD61A_11C_V33_GPRS_MMI/Tools/MinGW/include/c++/3.3.1/bits/stl_construct.h **** // terms of the GNU General Public License as published by the
   8:h:/6261A/11CW1352MP_BIRD61A_11C_V33_GPRS_MMI/Tools/MinGW/include/c++/3.3.1/bits/stl_construct.h **** // Free Software Foundation; either version 2, or (at your option)
   9:h:/6261A/11CW1352MP_BIRD61A_11C_V33_GPRS_MMI/Tools/MinGW/include/c++/3.3.1/bits/stl_construct.h **** // any later version.
  10:h:/6261A/11CW1352MP_BIRD61A_11C_V33_GPRS_MMI/Tools/MinGW/include/c++/3.3.1/bits/stl_construct.h **** 
  11:h:/6261A/11CW1352MP_BIRD61A_11C_V33_GPRS_MMI/Tools/MinGW/include/c++/3.3.1/bits/stl_construct.h **** // This library is distributed in the hope that it will be useful,
  12:h:/6261A/11CW1352MP_BIRD61A_11C_V33_GPRS_MMI/Tools/MinGW/include/c++/3.3.1/bits/stl_construct.h **** // but WITHOUT ANY WARRANTY; without even the implied warranty of
  13:h:/6261A/11CW1352MP_BIRD61A_11C_V33_GPRS_MMI/Tools/MinGW/include/c++/3.3.1/bits/stl_construct.h **** // MERCHANTABILITY or FITNESS FOR A PARTICULAR PURPOSE.  See the
  14:h:/6261A/11CW1352MP_BIRD61A_11C_V33_GPRS_MMI/Tools/MinGW/include/c++/3.3.1/bits/stl_construct.h **** // GNU General Public License for more details.
  15:h:/6261A/11CW1352MP_BIRD61A_11C_V33_GPRS_MMI/Tools/MinGW/include/c++/3.3.1/bits/stl_construct.h **** 
  16:h:/6261A/11CW1352MP_BIRD61A_11C_V33_GPRS_MMI/Tools/MinGW/include/c++/3.3.1/bits/stl_construct.h **** // You should have received a copy of the GNU General Public License along
  17:h:/6261A/11CW1352MP_BIRD61A_11C_V33_GPRS_MMI/Tools/MinGW/include/c++/3.3.1/bits/stl_construct.h **** // with this library; see the file COPYING.  If not, write to the Free
  18:h:/6261A/11CW1352MP_BIRD61A_11C_V33_GPRS_MMI/Tools/MinGW/include/c++/3.3.1/bits/stl_construct.h **** // Software Foundation, 59 Temple Place - Suite 330, Boston, MA 02111-1307,
GAS LISTING h:/6261A/11CW1352MP_BIRD61A_11C_V33_GPRS_MMI/plutommi/Customer/ResGenerator/gcctmp/ccEHcaaa.s 			page 105


  19:h:/6261A/11CW1352MP_BIRD61A_11C_V33_GPRS_MMI/Tools/MinGW/include/c++/3.3.1/bits/stl_construct.h **** // USA.
  20:h:/6261A/11CW1352MP_BIRD61A_11C_V33_GPRS_MMI/Tools/MinGW/include/c++/3.3.1/bits/stl_construct.h **** 
  21:h:/6261A/11CW1352MP_BIRD61A_11C_V33_GPRS_MMI/Tools/MinGW/include/c++/3.3.1/bits/stl_construct.h **** // As a special exception, you may use this file as part of a free software
  22:h:/6261A/11CW1352MP_BIRD61A_11C_V33_GPRS_MMI/Tools/MinGW/include/c++/3.3.1/bits/stl_construct.h **** // library without restriction.  Specifically, if other files instantiate
  23:h:/6261A/11CW1352MP_BIRD61A_11C_V33_GPRS_MMI/Tools/MinGW/include/c++/3.3.1/bits/stl_construct.h **** // templates or use macros or inline functions from this file, or you compile
  24:h:/6261A/11CW1352MP_BIRD61A_11C_V33_GPRS_MMI/Tools/MinGW/include/c++/3.3.1/bits/stl_construct.h **** // this file and link it with other files to produce an executable, this
  25:h:/6261A/11CW1352MP_BIRD61A_11C_V33_GPRS_MMI/Tools/MinGW/include/c++/3.3.1/bits/stl_construct.h **** // file does not by itself cause the resulting executable to be covered by
  26:h:/6261A/11CW1352MP_BIRD61A_11C_V33_GPRS_MMI/Tools/MinGW/include/c++/3.3.1/bits/stl_construct.h **** // the GNU General Public License.  This exception does not however
  27:h:/6261A/11CW1352MP_BIRD61A_11C_V33_GPRS_MMI/Tools/MinGW/include/c++/3.3.1/bits/stl_construct.h **** // invalidate any other reasons why the executable file might be covered by
  28:h:/6261A/11CW1352MP_BIRD61A_11C_V33_GPRS_MMI/Tools/MinGW/include/c++/3.3.1/bits/stl_construct.h **** // the GNU General Public License.
  29:h:/6261A/11CW1352MP_BIRD61A_11C_V33_GPRS_MMI/Tools/MinGW/include/c++/3.3.1/bits/stl_construct.h **** 
  30:h:/6261A/11CW1352MP_BIRD61A_11C_V33_GPRS_MMI/Tools/MinGW/include/c++/3.3.1/bits/stl_construct.h **** /*
  31:h:/6261A/11CW1352MP_BIRD61A_11C_V33_GPRS_MMI/Tools/MinGW/include/c++/3.3.1/bits/stl_construct.h ****  *
  32:h:/6261A/11CW1352MP_BIRD61A_11C_V33_GPRS_MMI/Tools/MinGW/include/c++/3.3.1/bits/stl_construct.h ****  * Copyright (c) 1994
  33:h:/6261A/11CW1352MP_BIRD61A_11C_V33_GPRS_MMI/Tools/MinGW/include/c++/3.3.1/bits/stl_construct.h ****  * Hewlett-Packard Company
  34:h:/6261A/11CW1352MP_BIRD61A_11C_V33_GPRS_MMI/Tools/MinGW/include/c++/3.3.1/bits/stl_construct.h ****  *
  35:h:/6261A/11CW1352MP_BIRD61A_11C_V33_GPRS_MMI/Tools/MinGW/include/c++/3.3.1/bits/stl_construct.h ****  * Permission to use, copy, modify, distribute and sell this software
  36:h:/6261A/11CW1352MP_BIRD61A_11C_V33_GPRS_MMI/Tools/MinGW/include/c++/3.3.1/bits/stl_construct.h ****  * and its documentation for any purpose is hereby granted without fee,
  37:h:/6261A/11CW1352MP_BIRD61A_11C_V33_GPRS_MMI/Tools/MinGW/include/c++/3.3.1/bits/stl_construct.h ****  * provided that the above copyright notice appear in all copies and
  38:h:/6261A/11CW1352MP_BIRD61A_11C_V33_GPRS_MMI/Tools/MinGW/include/c++/3.3.1/bits/stl_construct.h ****  * that both that copyright notice and this permission notice appear
  39:h:/6261A/11CW1352MP_BIRD61A_11C_V33_GPRS_MMI/Tools/MinGW/include/c++/3.3.1/bits/stl_construct.h ****  * in supporting documentation.  Hewlett-Packard Company makes no
  40:h:/6261A/11CW1352MP_BIRD61A_11C_V33_GPRS_MMI/Tools/MinGW/include/c++/3.3.1/bits/stl_construct.h ****  * representations about the suitability of this software for any
  41:h:/6261A/11CW1352MP_BIRD61A_11C_V33_GPRS_MMI/Tools/MinGW/include/c++/3.3.1/bits/stl_construct.h ****  * purpose.  It is provided "as is" without express or implied warranty.
  42:h:/6261A/11CW1352MP_BIRD61A_11C_V33_GPRS_MMI/Tools/MinGW/include/c++/3.3.1/bits/stl_construct.h ****  *
  43:h:/6261A/11CW1352MP_BIRD61A_11C_V33_GPRS_MMI/Tools/MinGW/include/c++/3.3.1/bits/stl_construct.h ****  *
  44:h:/6261A/11CW1352MP_BIRD61A_11C_V33_GPRS_MMI/Tools/MinGW/include/c++/3.3.1/bits/stl_construct.h ****  * Copyright (c) 1996,1997
  45:h:/6261A/11CW1352MP_BIRD61A_11C_V33_GPRS_MMI/Tools/MinGW/include/c++/3.3.1/bits/stl_construct.h ****  * Silicon Graphics Computer Systems, Inc.
  46:h:/6261A/11CW1352MP_BIRD61A_11C_V33_GPRS_MMI/Tools/MinGW/include/c++/3.3.1/bits/stl_construct.h ****  *
  47:h:/6261A/11CW1352MP_BIRD61A_11C_V33_GPRS_MMI/Tools/MinGW/include/c++/3.3.1/bits/stl_construct.h ****  * Permission to use, copy, modify, distribute and sell this software
  48:h:/6261A/11CW1352MP_BIRD61A_11C_V33_GPRS_MMI/Tools/MinGW/include/c++/3.3.1/bits/stl_construct.h ****  * and its documentation for any purpose is hereby granted without fee,
  49:h:/6261A/11CW1352MP_BIRD61A_11C_V33_GPRS_MMI/Tools/MinGW/include/c++/3.3.1/bits/stl_construct.h ****  * provided that the above copyright notice appear in all copies and
  50:h:/6261A/11CW1352MP_BIRD61A_11C_V33_GPRS_MMI/Tools/MinGW/include/c++/3.3.1/bits/stl_construct.h ****  * that both that copyright notice and this permission notice appear
  51:h:/6261A/11CW1352MP_BIRD61A_11C_V33_GPRS_MMI/Tools/MinGW/include/c++/3.3.1/bits/stl_construct.h ****  * in supporting documentation.  Silicon Graphics makes no
  52:h:/6261A/11CW1352MP_BIRD61A_11C_V33_GPRS_MMI/Tools/MinGW/include/c++/3.3.1/bits/stl_construct.h ****  * representations about the suitability of this software for any
  53:h:/6261A/11CW1352MP_BIRD61A_11C_V33_GPRS_MMI/Tools/MinGW/include/c++/3.3.1/bits/stl_construct.h ****  * purpose.  It is provided "as is" without express or implied warranty.
  54:h:/6261A/11CW1352MP_BIRD61A_11C_V33_GPRS_MMI/Tools/MinGW/include/c++/3.3.1/bits/stl_construct.h ****  */
  55:h:/6261A/11CW1352MP_BIRD61A_11C_V33_GPRS_MMI/Tools/MinGW/include/c++/3.3.1/bits/stl_construct.h **** 
  56:h:/6261A/11CW1352MP_BIRD61A_11C_V33_GPRS_MMI/Tools/MinGW/include/c++/3.3.1/bits/stl_construct.h **** /** @file stl_construct.h
  57:h:/6261A/11CW1352MP_BIRD61A_11C_V33_GPRS_MMI/Tools/MinGW/include/c++/3.3.1/bits/stl_construct.h ****  *  This is an internal header file, included by other library headers.
  58:h:/6261A/11CW1352MP_BIRD61A_11C_V33_GPRS_MMI/Tools/MinGW/include/c++/3.3.1/bits/stl_construct.h ****  *  You should not attempt to use it directly.
  59:h:/6261A/11CW1352MP_BIRD61A_11C_V33_GPRS_MMI/Tools/MinGW/include/c++/3.3.1/bits/stl_construct.h ****  */
  60:h:/6261A/11CW1352MP_BIRD61A_11C_V33_GPRS_MMI/Tools/MinGW/include/c++/3.3.1/bits/stl_construct.h **** 
  61:h:/6261A/11CW1352MP_BIRD61A_11C_V33_GPRS_MMI/Tools/MinGW/include/c++/3.3.1/bits/stl_construct.h **** #ifndef _CPP_BITS_STL_CONSTRUCT_H
  62:h:/6261A/11CW1352MP_BIRD61A_11C_V33_GPRS_MMI/Tools/MinGW/include/c++/3.3.1/bits/stl_construct.h **** #define _CPP_BITS_STL_CONSTRUCT_H 1
  63:h:/6261A/11CW1352MP_BIRD61A_11C_V33_GPRS_MMI/Tools/MinGW/include/c++/3.3.1/bits/stl_construct.h **** 
  64:h:/6261A/11CW1352MP_BIRD61A_11C_V33_GPRS_MMI/Tools/MinGW/include/c++/3.3.1/bits/stl_construct.h **** #include <bits/type_traits.h>
  65:h:/6261A/11CW1352MP_BIRD61A_11C_V33_GPRS_MMI/Tools/MinGW/include/c++/3.3.1/bits/stl_construct.h **** #include <new>
  66:h:/6261A/11CW1352MP_BIRD61A_11C_V33_GPRS_MMI/Tools/MinGW/include/c++/3.3.1/bits/stl_construct.h **** 
  67:h:/6261A/11CW1352MP_BIRD61A_11C_V33_GPRS_MMI/Tools/MinGW/include/c++/3.3.1/bits/stl_construct.h **** namespace std
  68:h:/6261A/11CW1352MP_BIRD61A_11C_V33_GPRS_MMI/Tools/MinGW/include/c++/3.3.1/bits/stl_construct.h **** {
  69:h:/6261A/11CW1352MP_BIRD61A_11C_V33_GPRS_MMI/Tools/MinGW/include/c++/3.3.1/bits/stl_construct.h ****   /**
  70:h:/6261A/11CW1352MP_BIRD61A_11C_V33_GPRS_MMI/Tools/MinGW/include/c++/3.3.1/bits/stl_construct.h ****    * @if maint
  71:h:/6261A/11CW1352MP_BIRD61A_11C_V33_GPRS_MMI/Tools/MinGW/include/c++/3.3.1/bits/stl_construct.h ****    * Constructs an object in existing memory by invoking an allocated
  72:h:/6261A/11CW1352MP_BIRD61A_11C_V33_GPRS_MMI/Tools/MinGW/include/c++/3.3.1/bits/stl_construct.h ****    * object's constructor with an initializer.
  73:h:/6261A/11CW1352MP_BIRD61A_11C_V33_GPRS_MMI/Tools/MinGW/include/c++/3.3.1/bits/stl_construct.h ****    * @endif
  74:h:/6261A/11CW1352MP_BIRD61A_11C_V33_GPRS_MMI/Tools/MinGW/include/c++/3.3.1/bits/stl_construct.h ****    */
  75:h:/6261A/11CW1352MP_BIRD61A_11C_V33_GPRS_MMI/Tools/MinGW/include/c++/3.3.1/bits/stl_construct.h ****   template <class _T1, class _T2>
GAS LISTING h:/6261A/11CW1352MP_BIRD61A_11C_V33_GPRS_MMI/plutommi/Customer/ResGenerator/gcctmp/ccEHcaaa.s 			page 106


  76:h:/6261A/11CW1352MP_BIRD61A_11C_V33_GPRS_MMI/Tools/MinGW/include/c++/3.3.1/bits/stl_construct.h ****     inline void
  77:h:/6261A/11CW1352MP_BIRD61A_11C_V33_GPRS_MMI/Tools/MinGW/include/c++/3.3.1/bits/stl_construct.h ****     _Construct(_T1* __p, const _T2& __value)
  78:h:/6261A/11CW1352MP_BIRD61A_11C_V33_GPRS_MMI/Tools/MinGW/include/c++/3.3.1/bits/stl_construct.h ****     { new (static_cast<void*>(__p)) _T1(__value); }
  79:h:/6261A/11CW1352MP_BIRD61A_11C_V33_GPRS_MMI/Tools/MinGW/include/c++/3.3.1/bits/stl_construct.h ****   
  80:h:/6261A/11CW1352MP_BIRD61A_11C_V33_GPRS_MMI/Tools/MinGW/include/c++/3.3.1/bits/stl_construct.h ****   /**
  81:h:/6261A/11CW1352MP_BIRD61A_11C_V33_GPRS_MMI/Tools/MinGW/include/c++/3.3.1/bits/stl_construct.h ****    * @if maint
  82:h:/6261A/11CW1352MP_BIRD61A_11C_V33_GPRS_MMI/Tools/MinGW/include/c++/3.3.1/bits/stl_construct.h ****    * Constructs an object in existing memory by invoking an allocated
  83:h:/6261A/11CW1352MP_BIRD61A_11C_V33_GPRS_MMI/Tools/MinGW/include/c++/3.3.1/bits/stl_construct.h ****    * object's default constructor (no initializers).
  84:h:/6261A/11CW1352MP_BIRD61A_11C_V33_GPRS_MMI/Tools/MinGW/include/c++/3.3.1/bits/stl_construct.h ****    * @endif
  85:h:/6261A/11CW1352MP_BIRD61A_11C_V33_GPRS_MMI/Tools/MinGW/include/c++/3.3.1/bits/stl_construct.h ****    */
  86:h:/6261A/11CW1352MP_BIRD61A_11C_V33_GPRS_MMI/Tools/MinGW/include/c++/3.3.1/bits/stl_construct.h ****   template <class _T1>
  87:h:/6261A/11CW1352MP_BIRD61A_11C_V33_GPRS_MMI/Tools/MinGW/include/c++/3.3.1/bits/stl_construct.h ****     inline void
  88:h:/6261A/11CW1352MP_BIRD61A_11C_V33_GPRS_MMI/Tools/MinGW/include/c++/3.3.1/bits/stl_construct.h ****     _Construct(_T1* __p)
  89:h:/6261A/11CW1352MP_BIRD61A_11C_V33_GPRS_MMI/Tools/MinGW/include/c++/3.3.1/bits/stl_construct.h ****     { new (static_cast<void*>(__p)) _T1(); }
  90:h:/6261A/11CW1352MP_BIRD61A_11C_V33_GPRS_MMI/Tools/MinGW/include/c++/3.3.1/bits/stl_construct.h **** 
  91:h:/6261A/11CW1352MP_BIRD61A_11C_V33_GPRS_MMI/Tools/MinGW/include/c++/3.3.1/bits/stl_construct.h ****   /**
  92:h:/6261A/11CW1352MP_BIRD61A_11C_V33_GPRS_MMI/Tools/MinGW/include/c++/3.3.1/bits/stl_construct.h ****    * @if maint
  93:h:/6261A/11CW1352MP_BIRD61A_11C_V33_GPRS_MMI/Tools/MinGW/include/c++/3.3.1/bits/stl_construct.h ****    * Destroy a range of objects with nontrivial destructors.  
  94:h:/6261A/11CW1352MP_BIRD61A_11C_V33_GPRS_MMI/Tools/MinGW/include/c++/3.3.1/bits/stl_construct.h ****    *
  95:h:/6261A/11CW1352MP_BIRD61A_11C_V33_GPRS_MMI/Tools/MinGW/include/c++/3.3.1/bits/stl_construct.h ****    * This is a helper function used only by _Destroy().
  96:h:/6261A/11CW1352MP_BIRD61A_11C_V33_GPRS_MMI/Tools/MinGW/include/c++/3.3.1/bits/stl_construct.h ****    * @endif
  97:h:/6261A/11CW1352MP_BIRD61A_11C_V33_GPRS_MMI/Tools/MinGW/include/c++/3.3.1/bits/stl_construct.h ****    */
  98:h:/6261A/11CW1352MP_BIRD61A_11C_V33_GPRS_MMI/Tools/MinGW/include/c++/3.3.1/bits/stl_construct.h ****   template <class _ForwardIterator>
  99:h:/6261A/11CW1352MP_BIRD61A_11C_V33_GPRS_MMI/Tools/MinGW/include/c++/3.3.1/bits/stl_construct.h ****     inline void
 100:h:/6261A/11CW1352MP_BIRD61A_11C_V33_GPRS_MMI/Tools/MinGW/include/c++/3.3.1/bits/stl_construct.h ****     __destroy_aux(_ForwardIterator __first, _ForwardIterator __last, __false_type)
 101:h:/6261A/11CW1352MP_BIRD61A_11C_V33_GPRS_MMI/Tools/MinGW/include/c++/3.3.1/bits/stl_construct.h ****     { for ( ; __first != __last; ++__first) _Destroy(&*__first); }
 102:h:/6261A/11CW1352MP_BIRD61A_11C_V33_GPRS_MMI/Tools/MinGW/include/c++/3.3.1/bits/stl_construct.h **** 
 103:h:/6261A/11CW1352MP_BIRD61A_11C_V33_GPRS_MMI/Tools/MinGW/include/c++/3.3.1/bits/stl_construct.h ****   /**
 104:h:/6261A/11CW1352MP_BIRD61A_11C_V33_GPRS_MMI/Tools/MinGW/include/c++/3.3.1/bits/stl_construct.h ****    * @if maint
 105:h:/6261A/11CW1352MP_BIRD61A_11C_V33_GPRS_MMI/Tools/MinGW/include/c++/3.3.1/bits/stl_construct.h ****    * Destroy a range of objects with trivial destructors.  Since the destructors
 106:h:/6261A/11CW1352MP_BIRD61A_11C_V33_GPRS_MMI/Tools/MinGW/include/c++/3.3.1/bits/stl_construct.h ****    * are trivial, there's nothing to do and hopefully this function will be
 107:h:/6261A/11CW1352MP_BIRD61A_11C_V33_GPRS_MMI/Tools/MinGW/include/c++/3.3.1/bits/stl_construct.h ****    * entirely optimized away.
 108:h:/6261A/11CW1352MP_BIRD61A_11C_V33_GPRS_MMI/Tools/MinGW/include/c++/3.3.1/bits/stl_construct.h ****    *
 109:h:/6261A/11CW1352MP_BIRD61A_11C_V33_GPRS_MMI/Tools/MinGW/include/c++/3.3.1/bits/stl_construct.h ****    * This is a helper function used only by _Destroy().
 110:h:/6261A/11CW1352MP_BIRD61A_11C_V33_GPRS_MMI/Tools/MinGW/include/c++/3.3.1/bits/stl_construct.h ****    * @endif
 111:h:/6261A/11CW1352MP_BIRD61A_11C_V33_GPRS_MMI/Tools/MinGW/include/c++/3.3.1/bits/stl_construct.h ****    */
 112:h:/6261A/11CW1352MP_BIRD61A_11C_V33_GPRS_MMI/Tools/MinGW/include/c++/3.3.1/bits/stl_construct.h ****   template <class _ForwardIterator> 
 113:h:/6261A/11CW1352MP_BIRD61A_11C_V33_GPRS_MMI/Tools/MinGW/include/c++/3.3.1/bits/stl_construct.h ****     inline void
 114:h:/6261A/11CW1352MP_BIRD61A_11C_V33_GPRS_MMI/Tools/MinGW/include/c++/3.3.1/bits/stl_construct.h ****     __destroy_aux(_ForwardIterator, _ForwardIterator, __true_type)
 115:h:/6261A/11CW1352MP_BIRD61A_11C_V33_GPRS_MMI/Tools/MinGW/include/c++/3.3.1/bits/stl_construct.h ****     { }
 116:h:/6261A/11CW1352MP_BIRD61A_11C_V33_GPRS_MMI/Tools/MinGW/include/c++/3.3.1/bits/stl_construct.h **** 
 117:h:/6261A/11CW1352MP_BIRD61A_11C_V33_GPRS_MMI/Tools/MinGW/include/c++/3.3.1/bits/stl_construct.h ****   /**
 118:h:/6261A/11CW1352MP_BIRD61A_11C_V33_GPRS_MMI/Tools/MinGW/include/c++/3.3.1/bits/stl_construct.h ****    * @if maint
 119:h:/6261A/11CW1352MP_BIRD61A_11C_V33_GPRS_MMI/Tools/MinGW/include/c++/3.3.1/bits/stl_construct.h ****    * Destroy the object pointed to by a pointer type.
 120:h:/6261A/11CW1352MP_BIRD61A_11C_V33_GPRS_MMI/Tools/MinGW/include/c++/3.3.1/bits/stl_construct.h ****    * @endif
 121:h:/6261A/11CW1352MP_BIRD61A_11C_V33_GPRS_MMI/Tools/MinGW/include/c++/3.3.1/bits/stl_construct.h ****    */
 122:h:/6261A/11CW1352MP_BIRD61A_11C_V33_GPRS_MMI/Tools/MinGW/include/c++/3.3.1/bits/stl_construct.h ****   template <class _Tp>
 123:h:/6261A/11CW1352MP_BIRD61A_11C_V33_GPRS_MMI/Tools/MinGW/include/c++/3.3.1/bits/stl_construct.h ****     inline void
 124:h:/6261A/11CW1352MP_BIRD61A_11C_V33_GPRS_MMI/Tools/MinGW/include/c++/3.3.1/bits/stl_construct.h ****     _Destroy(_Tp* __pointer)
 125:h:/6261A/11CW1352MP_BIRD61A_11C_V33_GPRS_MMI/Tools/MinGW/include/c++/3.3.1/bits/stl_construct.h ****     { __pointer->~_Tp(); }
 126:h:/6261A/11CW1352MP_BIRD61A_11C_V33_GPRS_MMI/Tools/MinGW/include/c++/3.3.1/bits/stl_construct.h ****   
 127:h:/6261A/11CW1352MP_BIRD61A_11C_V33_GPRS_MMI/Tools/MinGW/include/c++/3.3.1/bits/stl_construct.h ****   /**
 128:h:/6261A/11CW1352MP_BIRD61A_11C_V33_GPRS_MMI/Tools/MinGW/include/c++/3.3.1/bits/stl_construct.h ****    * @if maint
 129:h:/6261A/11CW1352MP_BIRD61A_11C_V33_GPRS_MMI/Tools/MinGW/include/c++/3.3.1/bits/stl_construct.h ****    * Destroy a range of objects.  If the value_type of the object has
 130:h:/6261A/11CW1352MP_BIRD61A_11C_V33_GPRS_MMI/Tools/MinGW/include/c++/3.3.1/bits/stl_construct.h ****    * a trivial destructor, the compiler should optimize all of this
 131:h:/6261A/11CW1352MP_BIRD61A_11C_V33_GPRS_MMI/Tools/MinGW/include/c++/3.3.1/bits/stl_construct.h ****    * away, otherwise the objects' destructors must be invoked.
 132:h:/6261A/11CW1352MP_BIRD61A_11C_V33_GPRS_MMI/Tools/MinGW/include/c++/3.3.1/bits/stl_construct.h ****    * @endif
GAS LISTING h:/6261A/11CW1352MP_BIRD61A_11C_V33_GPRS_MMI/plutommi/Customer/ResGenerator/gcctmp/ccEHcaaa.s 			page 107


 133:h:/6261A/11CW1352MP_BIRD61A_11C_V33_GPRS_MMI/Tools/MinGW/include/c++/3.3.1/bits/stl_construct.h ****    */
 134:h:/6261A/11CW1352MP_BIRD61A_11C_V33_GPRS_MMI/Tools/MinGW/include/c++/3.3.1/bits/stl_construct.h ****   template <class _ForwardIterator>
 135:h:/6261A/11CW1352MP_BIRD61A_11C_V33_GPRS_MMI/Tools/MinGW/include/c++/3.3.1/bits/stl_construct.h ****     inline void
 136:h:/6261A/11CW1352MP_BIRD61A_11C_V33_GPRS_MMI/Tools/MinGW/include/c++/3.3.1/bits/stl_construct.h ****     _Destroy(_ForwardIterator __first, _ForwardIterator __last)
 137:h:/6261A/11CW1352MP_BIRD61A_11C_V33_GPRS_MMI/Tools/MinGW/include/c++/3.3.1/bits/stl_construct.h ****     {
 6852              	LM205:
 6853 0000 55       		pushl	%ebp
 6854 0001 89E5     		movl	%esp, %ebp
 6855 0003 83EC18   		subl	$24, %esp
 138:h:/6261A/11CW1352MP_BIRD61A_11C_V33_GPRS_MMI/Tools/MinGW/include/c++/3.3.1/bits/stl_construct.h ****       typedef typename iterator_traits<_ForwardIterator>::value_type
 139:h:/6261A/11CW1352MP_BIRD61A_11C_V33_GPRS_MMI/Tools/MinGW/include/c++/3.3.1/bits/stl_construct.h ****                        _Value_type;
 140:h:/6261A/11CW1352MP_BIRD61A_11C_V33_GPRS_MMI/Tools/MinGW/include/c++/3.3.1/bits/stl_construct.h ****       typedef typename __type_traits<_Value_type>::has_trivial_destructor
 141:h:/6261A/11CW1352MP_BIRD61A_11C_V33_GPRS_MMI/Tools/MinGW/include/c++/3.3.1/bits/stl_construct.h ****                        _Has_trivial_destructor;
 142:h:/6261A/11CW1352MP_BIRD61A_11C_V33_GPRS_MMI/Tools/MinGW/include/c++/3.3.1/bits/stl_construct.h **** 
 143:h:/6261A/11CW1352MP_BIRD61A_11C_V33_GPRS_MMI/Tools/MinGW/include/c++/3.3.1/bits/stl_construct.h ****       __destroy_aux(__first, __last, _Has_trivial_destructor());
 6857              	LM206:
 6858              	LBB50:
 6859 0006 C6442408 		movb	$0, 8(%esp)
 6859      00
 6860 000b 8B450C   		movl	12(%ebp), %eax
 6861 000e 89442404 		movl	%eax, 4(%esp)
 6862 0012 8B4508   		movl	8(%ebp), %eax
 6863 0015 890424   		movl	%eax, (%esp)
 6864 0018 E8000000 		call	__ZSt13__destroy_auxIPN10ThreadPool10ThreadDataEEvT_S3_12__false_type
 6864      00
 6865 001d C9       		leave
 6866 001e C3       		ret
 6867              	LBE50:
 6868              	Lscope33:
 6872              	.globl __ZTV10ThreadPool
 6873 001f 90       		.section	.rdata$_ZTV10ThreadPool,""
 6874              		.linkonce same_size
 6875              		.align 8
 6876              	__ZTV10ThreadPool:
 6877 0000 00000000 		.long	0
 6878 0004 00000000 		.long	__ZTI10ThreadPool
 6879 0008 90050000 		.long	__ZN10ThreadPoolD1Ev
 6880 000c B0060000 		.long	__ZN10ThreadPoolD0Ev
 6882              		.section	.text$_ZNSt19_List_iterator_base7_M_incrEv,"x"
 6883              		.linkonce discard
 6884              		.align 2
 6887              	.globl __ZNSt19_List_iterator_base7_M_incrEv
 6889              	__ZNSt19_List_iterator_base7_M_incrEv:
 6891              	Ltext10:
 6893              	LM207:
 6894 0000 55       		pushl	%ebp
 6895 0001 89E5     		movl	%esp, %ebp
 6897              	LM208:
 6898              	LBB51:
 6899 0003 8B5508   		movl	8(%ebp), %edx
 6900 0006 8B4508   		movl	8(%ebp), %eax
 6901 0009 8B00     		movl	(%eax), %eax
 6902 000b 8B00     		movl	(%eax), %eax
 6903 000d 8902     		movl	%eax, (%edx)
 6904 000f 5D       		popl	%ebp
 6905 0010 C3       		ret
 6906              	LBE51:
GAS LISTING h:/6261A/11CW1352MP_BIRD61A_11C_V33_GPRS_MMI/plutommi/Customer/ResGenerator/gcctmp/ccEHcaaa.s 			page 108


 6907              	Lscope34:
 6909 0011 909090   		.section	.text$_ZNKSt19_List_iterator_baseeqERKS_,"x"
 6910              		.linkonce discard
 6911              		.align 2
 6915              	.globl __ZNKSt19_List_iterator_baseeqERKS_
 6917              	__ZNKSt19_List_iterator_baseeqERKS_:
 6919              	LM209:
 6920 0000 55       		pushl	%ebp
 6921 0001 89E5     		movl	%esp, %ebp
 6923              	LM210:
 6924              	LBB52:
 6925 0003 8B4508   		movl	8(%ebp), %eax
 6926 0006 8B550C   		movl	12(%ebp), %edx
 6927 0009 8B00     		movl	(%eax), %eax
 6928 000b 3B02     		cmpl	(%edx), %eax
 6929 000d 0F94C0   		sete	%al
 6930 0010 0FB6C0   		movzbl	%al, %eax
 6931 0013 5D       		popl	%ebp
 6932 0014 C3       		ret
 6933              	LBE52:
 6934              	Lscope35:
 6936 0015 909090   		.section	.text$_ZNKSt19_List_iterator_baseneERKS_,"x"
 6937              		.linkonce discard
 6938              		.align 2
 6942              	.globl __ZNKSt19_List_iterator_baseneERKS_
 6944              	__ZNKSt19_List_iterator_baseneERKS_:
 6946              	LM211:
 6947 0000 55       		pushl	%ebp
 6948 0001 89E5     		movl	%esp, %ebp
 6950              	LM212:
 6951              	LBB53:
 6952 0003 8B4508   		movl	8(%ebp), %eax
 6953 0006 8B550C   		movl	12(%ebp), %edx
 6954 0009 8B00     		movl	(%eax), %eax
 6955 000b 3B02     		cmpl	(%edx), %eax
 6956 000d 0F95C0   		setne	%al
 6957 0010 0FB6C0   		movzbl	%al, %eax
 6958 0013 5D       		popl	%ebp
 6959 0014 C3       		ret
 6960              	LBE53:
 6961              	Lscope36:
 6963 0015 909090   		.section	.text$_ZN10ThreadPool15CheckThreadStopEv,"x"
 6964              		.linkonce discard
 6965              		.align 2
 6968              	.globl __ZN10ThreadPool15CheckThreadStopEv
 6970              	__ZN10ThreadPool15CheckThreadStopEv:
 6972              	Ltext11:
   1:../../mmi/resource/inc/ThreadPool.h **** #pragma once
   2:../../mmi/resource/inc/ThreadPool.h **** // Filename     : ThreadPool.h
   3:../../mmi/resource/inc/ThreadPool.h **** // Author       : Siddharth Barman
   4:../../mmi/resource/inc/ThreadPool.h **** // Date         : 18 Sept 2005
   5:../../mmi/resource/inc/ThreadPool.h **** // Refactored   : 29 Sept 2010 by Greg Labute
   6:../../mmi/resource/inc/ThreadPool.h **** /* Description  : Defines ThreadPool class. How to use the Thread Pool. First
   7:../../mmi/resource/inc/ThreadPool.h ****                 create a ThreadPool object. The default constructor will
   8:../../mmi/resource/inc/ThreadPool.h ****                 create 10 threads in the pool. To defer creation of the pool
   9:../../mmi/resource/inc/ThreadPool.h ****                 pass a pool size of 0 to the constructor.
  10:../../mmi/resource/inc/ThreadPool.h **** 
GAS LISTING h:/6261A/11CW1352MP_BIRD61A_11C_V33_GPRS_MMI/plutommi/Customer/ResGenerator/gcctmp/ccEHcaaa.s 			page 109


  11:../../mmi/resource/inc/ThreadPool.h ****                 You can use two approaches while working with the thread
  12:../../mmi/resource/inc/ThreadPool.h ****                 pool.
  13:../../mmi/resource/inc/ThreadPool.h **** 
  14:../../mmi/resource/inc/ThreadPool.h ****                 1. To make use of the thread pool, you will need to first
  15:../../mmi/resource/inc/ThreadPool.h ****                 create a function having the following signature
  16:../../mmi/resource/inc/ThreadPool.h ****                 DWORD WINAPI ThreadProc(LPVOID); Check the CreateThread
  17:../../mmi/resource/inc/ThreadPool.h ****                 documentation in MSDN to get details. Add this function to
  18:../../mmi/resource/inc/ThreadPool.h ****                 the pool by calling the Run() method and pass in the function
  19:../../mmi/resource/inc/ThreadPool.h ****                 name and a void* pointer to any object you want. The pool will
  20:../../mmi/resource/inc/ThreadPool.h ****                 pick up the function passed into Run() method and execute as
  21:../../mmi/resource/inc/ThreadPool.h ****                 threads in the pool become free.
  22:../../mmi/resource/inc/ThreadPool.h **** 
  23:../../mmi/resource/inc/ThreadPool.h ****                 2. Instead of using a function pointer, you can use an object
  24:../../mmi/resource/inc/ThreadPool.h ****                 of a class which derives from IRunObject. Pass a pointer to
  25:../../mmi/resource/inc/ThreadPool.h ****                 this object in the Run() method of the thread pool. As threads
  26:../../mmi/resource/inc/ThreadPool.h ****                 become free, the thread pool will call the Run() method of you
  27:../../mmi/resource/inc/ThreadPool.h ****                 r class. You will also need to write a body for AutoDelete() f
  28:../../mmi/resource/inc/ThreadPool.h ****                 unction. If the return value is true, the thread pool will use
  29:../../mmi/resource/inc/ThreadPool.h ****                 'delete' to free the object you pass in. If it returns false,
  30:../../mmi/resource/inc/ThreadPool.h ****                 the thread pool will not do anything else to the object after
  31:../../mmi/resource/inc/ThreadPool.h ****                 calling the Run() function.
  32:../../mmi/resource/inc/ThreadPool.h **** 
  33:../../mmi/resource/inc/ThreadPool.h ****                 It is possible to destroy the pool whenever you want by
  34:../../mmi/resource/inc/ThreadPool.h ****                 calling the Destroy() method. If you want to create a new pool
  35:../../mmi/resource/inc/ThreadPool.h ****                 call the Create() method.
  36:../../mmi/resource/inc/ThreadPool.h **** 
  37:../../mmi/resource/inc/ThreadPool.h ****                 If this code works, it was written by Siddharth Barman, email
  38:../../mmi/resource/inc/ThreadPool.h ****                 siddharth_b@yahoo.com.
  39:../../mmi/resource/inc/ThreadPool.h ****                 _____ _                        _  ______           _
  40:../../mmi/resource/inc/ThreadPool.h ****                 |_   _| |                      | | | ___ \         | |
  41:../../mmi/resource/inc/ThreadPool.h ****                 | | | |__  _ __ ___  __ _  __| | | |_/ /__   ___ | |
  42:../../mmi/resource/inc/ThreadPool.h ****                 | | | '_ \| '__/ _ \/ _` |/ _` | |  __/ _ \ / _ \| |
  43:../../mmi/resource/inc/ThreadPool.h ****                 | | | | | | | |  __/ (_| | (_| | | | | (_) | (_) | |
  44:../../mmi/resource/inc/ThreadPool.h ****                 \_/ |_| |_|_|  \___|\__,_|\__,_| \_|  \___/ \___/|_|
  45:../../mmi/resource/inc/ThreadPool.h **** ------------------------------------------------------------------------------*/
  46:../../mmi/resource/inc/ThreadPool.h **** 
  47:../../mmi/resource/inc/ThreadPool.h **** #include <list>
  48:../../mmi/resource/inc/ThreadPool.h **** #include <vector>
  49:../../mmi/resource/inc/ThreadPool.h **** 
  50:../../mmi/resource/inc/ThreadPool.h **** class ThreadPool
  51:../../mmi/resource/inc/ThreadPool.h **** {
  52:../../mmi/resource/inc/ThreadPool.h **** public:
  53:../../mmi/resource/inc/ThreadPool.h ****     // PoolSize is the number of worker threads that will be created.
  54:../../mmi/resource/inc/ThreadPool.h ****     ThreadPool(int poolSize = 10, int waitTimeForThreadsToCompleteMS = 5000);
  55:../../mmi/resource/inc/ThreadPool.h ****     virtual ~ThreadPool();
  56:../../mmi/resource/inc/ThreadPool.h **** 
  57:../../mmi/resource/inc/ThreadPool.h ****     // Use this method to create the worker threads if you specified a poolSize
  58:../../mmi/resource/inc/ThreadPool.h ****     // of 0 in the constructor, or if you want to change the number of worker threads.
  59:../../mmi/resource/inc/ThreadPool.h ****     // Returns: true if no error.
  60:../../mmi/resource/inc/ThreadPool.h ****     bool Create(int poolSize);
  61:../../mmi/resource/inc/ThreadPool.h **** 
  62:../../mmi/resource/inc/ThreadPool.h ****     // Use this method to destroy the worker threads. The destructor of
  63:../../mmi/resource/inc/ThreadPool.h ****     // this class will destroy the threads automatically.
  64:../../mmi/resource/inc/ThreadPool.h ****     void Destroy();
  65:../../mmi/resource/inc/ThreadPool.h **** 
  66:../../mmi/resource/inc/ThreadPool.h ****     // How many worker threads are in the pool?
  67:../../mmi/resource/inc/ThreadPool.h ****     int GetPoolSize() { return m_threads.size(); }
GAS LISTING h:/6261A/11CW1352MP_BIRD61A_11C_V33_GPRS_MMI/plutommi/Customer/ResGenerator/gcctmp/ccEHcaaa.s 			page 110


  68:../../mmi/resource/inc/ThreadPool.h **** 
  69:../../mmi/resource/inc/ThreadPool.h ****     // This decides whether a job is added to the front or back of the queue.
  70:../../mmi/resource/inc/ThreadPool.h ****     enum ThreadPriority { High, Low };
  71:../../mmi/resource/inc/ThreadPool.h **** 
  72:../../mmi/resource/inc/ThreadPool.h ****     // Run a job
  73:../../mmi/resource/inc/ThreadPool.h ****     void Run(LPTHREAD_START_ROUTINE pFunc, LPVOID pData, ThreadPriority priority = Low)
  74:../../mmi/resource/inc/ThreadPool.h ****         { AddJobToQueue(pFunc, pData, NULL, priority); }
  75:../../mmi/resource/inc/ThreadPool.h ****     struct IRunObject
  76:../../mmi/resource/inc/ThreadPool.h ****     {
  77:../../mmi/resource/inc/ThreadPool.h ****         virtual ~IRunObject() {}
  78:../../mmi/resource/inc/ThreadPool.h ****         virtual void Run() = 0;
  79:../../mmi/resource/inc/ThreadPool.h ****         virtual bool AutoDelete() = 0;
  80:../../mmi/resource/inc/ThreadPool.h ****     };
  81:../../mmi/resource/inc/ThreadPool.h ****     void Run(IRunObject* job, ThreadPriority priority = Low)
  82:../../mmi/resource/inc/ThreadPool.h ****         { AddJobToQueue(NULL, NULL, job, priority); }
  83:../../mmi/resource/inc/ThreadPool.h **** 
  84:../../mmi/resource/inc/ThreadPool.h ****     // This is function expected to be called by thread functions or IRunObject
  85:../../mmi/resource/inc/ThreadPool.h ****     // derived. The expectation is that the code will check this 'property' of
  86:../../mmi/resource/inc/ThreadPool.h ****     // the pool and stop its processing as soon as possible.
  87:../../mmi/resource/inc/ThreadPool.h ****     bool CheckThreadStop()
  88:../../mmi/resource/inc/ThreadPool.h ****     { return WaitForSingleObject(m_hNotifyShutdown, 0) != WAIT_TIMEOUT; }
 6974              	LM213:
 6975 0000 55       		pushl	%ebp
 6976 0001 89E5     		movl	%esp, %ebp
 6977 0003 83EC18   		subl	$24, %esp
 6979              	LM214:
 6980              	LBB54:
 6981 0006 C7442404 		movl	$0, 4(%esp)
 6981      00000000 
 6982 000e 8B4508   		movl	8(%ebp), %eax
 6983 0011 8B4018   		movl	24(%eax), %eax
 6984 0014 890424   		movl	%eax, (%esp)
 6985 0017 E8000000 		call	_WaitForSingleObject@8
 6985      00
 6986 001c 83EC08   		subl	$8, %esp
 6987 001f 8945FC   		movl	%eax, -4(%ebp)
 6988 0022 817DFC02 		cmpl	$258, -4(%ebp)
 6988      010000
 6989 0029 0F95C0   		setne	%al
 6990 002c 0FB6C0   		movzbl	%al, %eax
 6991 002f 8945FC   		movl	%eax, -4(%ebp)
 6992 0032 8B45FC   		movl	-4(%ebp), %eax
 6993 0035 C9       		leave
 6994 0036 C3       		ret
 6995              	LBE54:
 6996              	Lscope37:
 6998 0037 90       		.section	.text$_ZNSt4listIN10ThreadPool7JobDataESaIS1_EEC1ERKS2_,"x"
 6999              		.linkonce discard
 7000              		.align 2
 7004              	.globl __ZNSt4listIN10ThreadPool7JobDataESaIS1_EEC1ERKS2_
 7006              	__ZNSt4listIN10ThreadPool7JobDataESaIS1_EEC1ERKS2_:
 7008              	Ltext12:
 7010              	LM215:
 7011 0000 55       		pushl	%ebp
 7012 0001 89E5     		movl	%esp, %ebp
 7013 0003 83EC08   		subl	$8, %esp
 7015              	LM216:
GAS LISTING h:/6261A/11CW1352MP_BIRD61A_11C_V33_GPRS_MMI/plutommi/Customer/ResGenerator/gcctmp/ccEHcaaa.s 			page 111


 7016              	LBB55:
 7017 0006 8B450C   		movl	12(%ebp), %eax
 7018 0009 89442404 		movl	%eax, 4(%esp)
 7019 000d 8B4508   		movl	8(%ebp), %eax
 7020 0010 890424   		movl	%eax, (%esp)
 7021 0013 E8000000 		call	__ZNSt10_List_baseIN10ThreadPool7JobDataESaIS1_EEC2ERKS2_
 7021      00
 7022 0018 C9       		leave
 7023 0019 C3       		ret
 7024              	L212:
 7025              	L211:
 7026              	LBE55:
 7027              	Lscope38:
 7029 001a 9090     		.section	.text$_ZNSt10_List_baseIN10ThreadPool7JobDataESaIS1_EEC2ERKS2_,"x"
 7030              		.linkonce discard
 7031              		.align 2
 7035              	.globl __ZNSt10_List_baseIN10ThreadPool7JobDataESaIS1_EEC2ERKS2_
 7037              	__ZNSt10_List_baseIN10ThreadPool7JobDataESaIS1_EEC2ERKS2_:
 7039              	LM217:
 7040 0000 55       		pushl	%ebp
 7041 0001 89E5     		movl	%esp, %ebp
 7042 0003 53       		pushl	%ebx
 7043 0004 83EC14   		subl	$20, %esp
 7045              	LM218:
 7046              	LBB56:
 7047 0007 8B450C   		movl	12(%ebp), %eax
 7048 000a 89442404 		movl	%eax, 4(%esp)
 7049 000e 8B4508   		movl	8(%ebp), %eax
 7050 0011 890424   		movl	%eax, (%esp)
 7051 0014 E8000000 		call	__ZNSt16_List_alloc_baseIN10ThreadPool7JobDataESaIS1_ELb1EEC2ERKS2_
 7051      00
 7053              	LM219:
 7054 0019 8B5D08   		movl	8(%ebp), %ebx
 7055 001c 8B4508   		movl	8(%ebp), %eax
 7056 001f 890424   		movl	%eax, (%esp)
 7057 0022 E8000000 		call	__ZNSt16_List_alloc_baseIN10ThreadPool7JobDataESaIS1_ELb1EE11_M_get_nodeEv
 7057      00
 7058 0027 8903     		movl	%eax, (%ebx)
 7060              	LM220:
 7061 0029 8B4508   		movl	8(%ebp), %eax
 7062 002c 8B10     		movl	(%eax), %edx
 7063 002e 8B4508   		movl	8(%ebp), %eax
 7064 0031 8B00     		movl	(%eax), %eax
 7065 0033 8902     		movl	%eax, (%edx)
 7067              	LM221:
 7068 0035 8B4508   		movl	8(%ebp), %eax
 7069 0038 8B10     		movl	(%eax), %edx
 7070 003a 8B4508   		movl	8(%ebp), %eax
 7071 003d 8B00     		movl	(%eax), %eax
 7072 003f 894204   		movl	%eax, 4(%edx)
 7073 0042 83C414   		addl	$20, %esp
 7074 0045 5B       		popl	%ebx
 7075 0046 5D       		popl	%ebp
 7076 0047 C3       		ret
 7077              	LBE56:
 7078              	Lscope39:
 7080              		.section	.text$_ZNSt16_List_alloc_baseIN10ThreadPool7JobDataESaIS1_ELb1EEC2ERKS2_,"x"
GAS LISTING h:/6261A/11CW1352MP_BIRD61A_11C_V33_GPRS_MMI/plutommi/Customer/ResGenerator/gcctmp/ccEHcaaa.s 			page 112


 7081              		.linkonce discard
 7082              		.align 2
 7085              	.globl __ZNSt16_List_alloc_baseIN10ThreadPool7JobDataESaIS1_ELb1EEC2ERKS2_
 7087              	__ZNSt16_List_alloc_baseIN10ThreadPool7JobDataESaIS1_ELb1EEC2ERKS2_:
 7089              	LM222:
 7090 0000 55       		pushl	%ebp
 7091 0001 89E5     		movl	%esp, %ebp
 7093              	LM223:
 7094 0003 5D       		popl	%ebp
 7095 0004 C3       		ret
 7096              	Lscope40:
 7098 0005 909090   		.section	.text$_ZNSt16_List_alloc_baseIN10ThreadPool7JobDataESaIS1_ELb1EE11_M_get_nodeEv,"x"
 7099              		.linkonce discard
 7100              		.align 2
 7103              	.globl __ZNSt16_List_alloc_baseIN10ThreadPool7JobDataESaIS1_ELb1EE11_M_get_nodeEv
 7105              	__ZNSt16_List_alloc_baseIN10ThreadPool7JobDataESaIS1_ELb1EE11_M_get_nodeEv:
 7107              	LM224:
 7108 0000 55       		pushl	%ebp
 7109 0001 89E5     		movl	%esp, %ebp
 7110 0003 83EC08   		subl	$8, %esp
 7112              	LM225:
 7113              	LBB57:
 7114 0006 C7042401 		movl	$1, (%esp)
 7114      000000
 7115 000d E8000000 		call	__ZNSt14__simple_allocISt10_List_nodeIN10ThreadPool7JobDataEESt24__default_alloc_templateILb1
 7115      00
 7116 0012 C9       		leave
 7117 0013 C3       		ret
 7118              	LBE57:
 7119              	Lscope41:
 7121              		.section	.text$_ZNSt14__simple_allocISt10_List_nodeIN10ThreadPool7JobDataEESt24__default_alloc_tem
 7122              		.linkonce discard
 7123              		.align 2
 7126              	.globl __ZNSt14__simple_allocISt10_List_nodeIN10ThreadPool7JobDataEESt24__default_alloc_templateILb
 7128              	__ZNSt14__simple_allocISt10_List_nodeIN10ThreadPool7JobDataEESt24__default_alloc_templateILb1ELi0EE
 7130              	Ltext13:
 7132              	LM226:
 7133 0000 55       		pushl	%ebp
 7134 0001 89E5     		movl	%esp, %ebp
 7135 0003 83EC08   		subl	$8, %esp
 7137              	LM227:
 7138              	LBB58:
 7139 0006 C745FC00 		movl	$0, -4(%ebp)
 7139      000000
 7141              	LM228:
 7142 000d 837D0800 		cmpl	$0, 8(%ebp)
 7143 0011 741C     		je	L218
 7145              	LM229:
 7146 0013 8B4508   		movl	8(%ebp), %eax
 7147 0016 89C2     		movl	%eax, %edx
 7148 0018 C1E202   		sall	$2, %edx
 7149 001b 01C2     		addl	%eax, %edx
 7150 001d 8D049500 		leal	0(,%edx,4), %eax
 7150      000000
 7151 0024 890424   		movl	%eax, (%esp)
 7152 0027 E8000000 		call	__ZNSt24__default_alloc_templateILb1ELi0EE8allocateEj
 7152      00
GAS LISTING h:/6261A/11CW1352MP_BIRD61A_11C_V33_GPRS_MMI/plutommi/Customer/ResGenerator/gcctmp/ccEHcaaa.s 			page 113


 7153 002c 8945FC   		movl	%eax, -4(%ebp)
 7154              	L218:
 7156              	LM230:
 7157 002f 8B45FC   		movl	-4(%ebp), %eax
 7158 0032 C9       		leave
 7159 0033 C3       		ret
 7160              	LBE58:
 7164              	Lscope42:
 7166              		.section	.text$_ZNSt10_List_baseIN10ThreadPool7JobDataESaIS1_EED2Ev,"x"
 7167              		.linkonce discard
 7168              		.align 2
 7171              	.globl __ZNSt10_List_baseIN10ThreadPool7JobDataESaIS1_EED2Ev
 7173              	__ZNSt10_List_baseIN10ThreadPool7JobDataESaIS1_EED2Ev:
 7175              	Ltext14:
 7177              	LM231:
 7178 0000 55       		pushl	%ebp
 7179 0001 89E5     		movl	%esp, %ebp
 7180 0003 83EC08   		subl	$8, %esp
 7182              	LM232:
 7183              	LBB59:
 7184 0006 8B4508   		movl	8(%ebp), %eax
 7185 0009 890424   		movl	%eax, (%esp)
 7186 000c E8000000 		call	__ZNSt10_List_baseIN10ThreadPool7JobDataESaIS1_EE7__clearEv
 7186      00
 7188              	LM233:
 7189 0011 8B4508   		movl	8(%ebp), %eax
 7190 0014 8B00     		movl	(%eax), %eax
 7191 0016 89442404 		movl	%eax, 4(%esp)
 7192 001a 8B4508   		movl	8(%ebp), %eax
 7193 001d 890424   		movl	%eax, (%esp)
 7194 0020 E8000000 		call	__ZNSt16_List_alloc_baseIN10ThreadPool7JobDataESaIS1_ELb1EE11_M_put_nodeEPSt10_List_nodeIS1_E
 7194      00
 7195 0025 C9       		leave
 7196 0026 C3       		ret
 7197              	LBE59:
 7198              	Lscope43:
 7200 0027 90       		.section	.text$_ZNSt16_List_alloc_baseIN10ThreadPool7JobDataESaIS1_ELb1EE11_M_put_nodeEPSt10_List_
 7201              		.linkonce discard
 7202              		.align 2
 7206              	.globl __ZNSt16_List_alloc_baseIN10ThreadPool7JobDataESaIS1_ELb1EE11_M_put_nodeEPSt10_List_nodeIS1_
 7208              	__ZNSt16_List_alloc_baseIN10ThreadPool7JobDataESaIS1_ELb1EE11_M_put_nodeEPSt10_List_nodeIS1_E:
 7210              	LM234:
 7211 0000 55       		pushl	%ebp
 7212 0001 89E5     		movl	%esp, %ebp
 7213 0003 83EC08   		subl	$8, %esp
 7215              	LM235:
 7216              	LBB60:
 7217 0006 C7442404 		movl	$1, 4(%esp)
 7217      01000000 
 7218 000e 8B450C   		movl	12(%ebp), %eax
 7219 0011 890424   		movl	%eax, (%esp)
 7220 0014 E8000000 		call	__ZNSt14__simple_allocISt10_List_nodeIN10ThreadPool7JobDataEESt24__default_alloc_templateILb1
 7220      00
 7221 0019 C9       		leave
 7222 001a C3       		ret
 7223              	LBE60:
 7224              	Lscope44:
GAS LISTING h:/6261A/11CW1352MP_BIRD61A_11C_V33_GPRS_MMI/plutommi/Customer/ResGenerator/gcctmp/ccEHcaaa.s 			page 114


 7226 001b 90       		.section	.text$_ZNSt14__simple_allocISt10_List_nodeIN10ThreadPool7JobDataEESt24__default_alloc_tem
 7227              		.linkonce discard
 7228              		.align 2
 7232              	.globl __ZNSt14__simple_allocISt10_List_nodeIN10ThreadPool7JobDataEESt24__default_alloc_templateILb
 7234              	__ZNSt14__simple_allocISt10_List_nodeIN10ThreadPool7JobDataEESt24__default_alloc_templateILb1ELi0EE
 7236              	Ltext15:
 7238              	LM236:
 7239 0000 55       		pushl	%ebp
 7240 0001 89E5     		movl	%esp, %ebp
 7241 0003 83EC08   		subl	$8, %esp
 7243              	LM237:
 7244              	LBB61:
 7245 0006 837D0C00 		cmpl	$0, 12(%ebp)
 7246 000a 741C     		je	L223
 7247 000c 8B550C   		movl	12(%ebp), %edx
 7248 000f 89D0     		movl	%edx, %eax
 7249 0011 C1E002   		sall	$2, %eax
 7250 0014 01D0     		addl	%edx, %eax
 7251 0016 C1E002   		sall	$2, %eax
 7252 0019 89442404 		movl	%eax, 4(%esp)
 7253 001d 8B4508   		movl	8(%ebp), %eax
 7254 0020 890424   		movl	%eax, (%esp)
 7255 0023 E8000000 		call	__ZNSt24__default_alloc_templateILb1ELi0EE10deallocateEPvj
 7255      00
 7256              	L223:
 7257 0028 C9       		leave
 7258 0029 C3       		ret
 7259              	LBE61:
 7260              	Lscope45:
 7262 002a 9090     		.section	.text$_ZNSt10_List_baseIN10ThreadPool7JobDataESaIS1_EE7__clearEv,"x"
 7263              		.linkonce discard
 7264              		.align 2
 7267              	.globl __ZNSt10_List_baseIN10ThreadPool7JobDataESaIS1_EE7__clearEv
 7269              	__ZNSt10_List_baseIN10ThreadPool7JobDataESaIS1_EE7__clearEv:
 7271              	Ltext16:
   1:h:/6261A/11CW1352MP_BIRD61A_11C_V33_GPRS_MMI/Tools/MinGW/include/c++/3.3.1/bits/list.tcc **** // List implementation (out of line) -*- C++ -*-
   2:h:/6261A/11CW1352MP_BIRD61A_11C_V33_GPRS_MMI/Tools/MinGW/include/c++/3.3.1/bits/list.tcc **** 
   3:h:/6261A/11CW1352MP_BIRD61A_11C_V33_GPRS_MMI/Tools/MinGW/include/c++/3.3.1/bits/list.tcc **** // Copyright (C) 2001, 2002 Free Software Foundation, Inc.
   4:h:/6261A/11CW1352MP_BIRD61A_11C_V33_GPRS_MMI/Tools/MinGW/include/c++/3.3.1/bits/list.tcc **** //
   5:h:/6261A/11CW1352MP_BIRD61A_11C_V33_GPRS_MMI/Tools/MinGW/include/c++/3.3.1/bits/list.tcc **** // This file is part of the GNU ISO C++ Library.  This library is free
   6:h:/6261A/11CW1352MP_BIRD61A_11C_V33_GPRS_MMI/Tools/MinGW/include/c++/3.3.1/bits/list.tcc **** // software; you can redistribute it and/or modify it under the
   7:h:/6261A/11CW1352MP_BIRD61A_11C_V33_GPRS_MMI/Tools/MinGW/include/c++/3.3.1/bits/list.tcc **** // terms of the GNU General Public License as published by the
   8:h:/6261A/11CW1352MP_BIRD61A_11C_V33_GPRS_MMI/Tools/MinGW/include/c++/3.3.1/bits/list.tcc **** // Free Software Foundation; either version 2, or (at your option)
   9:h:/6261A/11CW1352MP_BIRD61A_11C_V33_GPRS_MMI/Tools/MinGW/include/c++/3.3.1/bits/list.tcc **** // any later version.
  10:h:/6261A/11CW1352MP_BIRD61A_11C_V33_GPRS_MMI/Tools/MinGW/include/c++/3.3.1/bits/list.tcc **** 
  11:h:/6261A/11CW1352MP_BIRD61A_11C_V33_GPRS_MMI/Tools/MinGW/include/c++/3.3.1/bits/list.tcc **** // This library is distributed in the hope that it will be useful,
  12:h:/6261A/11CW1352MP_BIRD61A_11C_V33_GPRS_MMI/Tools/MinGW/include/c++/3.3.1/bits/list.tcc **** // but WITHOUT ANY WARRANTY; without even the implied warranty of
  13:h:/6261A/11CW1352MP_BIRD61A_11C_V33_GPRS_MMI/Tools/MinGW/include/c++/3.3.1/bits/list.tcc **** // MERCHANTABILITY or FITNESS FOR A PARTICULAR PURPOSE.  See the
  14:h:/6261A/11CW1352MP_BIRD61A_11C_V33_GPRS_MMI/Tools/MinGW/include/c++/3.3.1/bits/list.tcc **** // GNU General Public License for more details.
  15:h:/6261A/11CW1352MP_BIRD61A_11C_V33_GPRS_MMI/Tools/MinGW/include/c++/3.3.1/bits/list.tcc **** 
  16:h:/6261A/11CW1352MP_BIRD61A_11C_V33_GPRS_MMI/Tools/MinGW/include/c++/3.3.1/bits/list.tcc **** // You should have received a copy of the GNU General Public License along
  17:h:/6261A/11CW1352MP_BIRD61A_11C_V33_GPRS_MMI/Tools/MinGW/include/c++/3.3.1/bits/list.tcc **** // with this library; see the file COPYING.  If not, write to the Free
  18:h:/6261A/11CW1352MP_BIRD61A_11C_V33_GPRS_MMI/Tools/MinGW/include/c++/3.3.1/bits/list.tcc **** // Software Foundation, 59 Temple Place - Suite 330, Boston, MA 02111-1307,
  19:h:/6261A/11CW1352MP_BIRD61A_11C_V33_GPRS_MMI/Tools/MinGW/include/c++/3.3.1/bits/list.tcc **** // USA.
  20:h:/6261A/11CW1352MP_BIRD61A_11C_V33_GPRS_MMI/Tools/MinGW/include/c++/3.3.1/bits/list.tcc **** 
  21:h:/6261A/11CW1352MP_BIRD61A_11C_V33_GPRS_MMI/Tools/MinGW/include/c++/3.3.1/bits/list.tcc **** // As a special exception, you may use this file as part of a free software
  22:h:/6261A/11CW1352MP_BIRD61A_11C_V33_GPRS_MMI/Tools/MinGW/include/c++/3.3.1/bits/list.tcc **** // library without restriction.  Specifically, if other files instantiate
GAS LISTING h:/6261A/11CW1352MP_BIRD61A_11C_V33_GPRS_MMI/plutommi/Customer/ResGenerator/gcctmp/ccEHcaaa.s 			page 115


  23:h:/6261A/11CW1352MP_BIRD61A_11C_V33_GPRS_MMI/Tools/MinGW/include/c++/3.3.1/bits/list.tcc **** // templates or use macros or inline functions from this file, or you compile
  24:h:/6261A/11CW1352MP_BIRD61A_11C_V33_GPRS_MMI/Tools/MinGW/include/c++/3.3.1/bits/list.tcc **** // this file and link it with other files to produce an executable, this
  25:h:/6261A/11CW1352MP_BIRD61A_11C_V33_GPRS_MMI/Tools/MinGW/include/c++/3.3.1/bits/list.tcc **** // file does not by itself cause the resulting executable to be covered by
  26:h:/6261A/11CW1352MP_BIRD61A_11C_V33_GPRS_MMI/Tools/MinGW/include/c++/3.3.1/bits/list.tcc **** // the GNU General Public License.  This exception does not however
  27:h:/6261A/11CW1352MP_BIRD61A_11C_V33_GPRS_MMI/Tools/MinGW/include/c++/3.3.1/bits/list.tcc **** // invalidate any other reasons why the executable file might be covered by
  28:h:/6261A/11CW1352MP_BIRD61A_11C_V33_GPRS_MMI/Tools/MinGW/include/c++/3.3.1/bits/list.tcc **** // the GNU General Public License.
  29:h:/6261A/11CW1352MP_BIRD61A_11C_V33_GPRS_MMI/Tools/MinGW/include/c++/3.3.1/bits/list.tcc **** 
  30:h:/6261A/11CW1352MP_BIRD61A_11C_V33_GPRS_MMI/Tools/MinGW/include/c++/3.3.1/bits/list.tcc **** /*
  31:h:/6261A/11CW1352MP_BIRD61A_11C_V33_GPRS_MMI/Tools/MinGW/include/c++/3.3.1/bits/list.tcc ****  *
  32:h:/6261A/11CW1352MP_BIRD61A_11C_V33_GPRS_MMI/Tools/MinGW/include/c++/3.3.1/bits/list.tcc ****  * Copyright (c) 1994
  33:h:/6261A/11CW1352MP_BIRD61A_11C_V33_GPRS_MMI/Tools/MinGW/include/c++/3.3.1/bits/list.tcc ****  * Hewlett-Packard Company
  34:h:/6261A/11CW1352MP_BIRD61A_11C_V33_GPRS_MMI/Tools/MinGW/include/c++/3.3.1/bits/list.tcc ****  *
  35:h:/6261A/11CW1352MP_BIRD61A_11C_V33_GPRS_MMI/Tools/MinGW/include/c++/3.3.1/bits/list.tcc ****  * Permission to use, copy, modify, distribute and sell this software
  36:h:/6261A/11CW1352MP_BIRD61A_11C_V33_GPRS_MMI/Tools/MinGW/include/c++/3.3.1/bits/list.tcc ****  * and its documentation for any purpose is hereby granted without fee,
  37:h:/6261A/11CW1352MP_BIRD61A_11C_V33_GPRS_MMI/Tools/MinGW/include/c++/3.3.1/bits/list.tcc ****  * provided that the above copyright notice appear in all copies and
  38:h:/6261A/11CW1352MP_BIRD61A_11C_V33_GPRS_MMI/Tools/MinGW/include/c++/3.3.1/bits/list.tcc ****  * that both that copyright notice and this permission notice appear
  39:h:/6261A/11CW1352MP_BIRD61A_11C_V33_GPRS_MMI/Tools/MinGW/include/c++/3.3.1/bits/list.tcc ****  * in supporting documentation.  Hewlett-Packard Company makes no
  40:h:/6261A/11CW1352MP_BIRD61A_11C_V33_GPRS_MMI/Tools/MinGW/include/c++/3.3.1/bits/list.tcc ****  * representations about the suitability of this software for any
  41:h:/6261A/11CW1352MP_BIRD61A_11C_V33_GPRS_MMI/Tools/MinGW/include/c++/3.3.1/bits/list.tcc ****  * purpose.  It is provided "as is" without express or implied warranty.
  42:h:/6261A/11CW1352MP_BIRD61A_11C_V33_GPRS_MMI/Tools/MinGW/include/c++/3.3.1/bits/list.tcc ****  *
  43:h:/6261A/11CW1352MP_BIRD61A_11C_V33_GPRS_MMI/Tools/MinGW/include/c++/3.3.1/bits/list.tcc ****  *
  44:h:/6261A/11CW1352MP_BIRD61A_11C_V33_GPRS_MMI/Tools/MinGW/include/c++/3.3.1/bits/list.tcc ****  * Copyright (c) 1996,1997
  45:h:/6261A/11CW1352MP_BIRD61A_11C_V33_GPRS_MMI/Tools/MinGW/include/c++/3.3.1/bits/list.tcc ****  * Silicon Graphics Computer Systems, Inc.
  46:h:/6261A/11CW1352MP_BIRD61A_11C_V33_GPRS_MMI/Tools/MinGW/include/c++/3.3.1/bits/list.tcc ****  *
  47:h:/6261A/11CW1352MP_BIRD61A_11C_V33_GPRS_MMI/Tools/MinGW/include/c++/3.3.1/bits/list.tcc ****  * Permission to use, copy, modify, distribute and sell this software
  48:h:/6261A/11CW1352MP_BIRD61A_11C_V33_GPRS_MMI/Tools/MinGW/include/c++/3.3.1/bits/list.tcc ****  * and its documentation for any purpose is hereby granted without fee,
  49:h:/6261A/11CW1352MP_BIRD61A_11C_V33_GPRS_MMI/Tools/MinGW/include/c++/3.3.1/bits/list.tcc ****  * provided that the above copyright notice appear in all copies and
  50:h:/6261A/11CW1352MP_BIRD61A_11C_V33_GPRS_MMI/Tools/MinGW/include/c++/3.3.1/bits/list.tcc ****  * that both that copyright notice and this permission notice appear
  51:h:/6261A/11CW1352MP_BIRD61A_11C_V33_GPRS_MMI/Tools/MinGW/include/c++/3.3.1/bits/list.tcc ****  * in supporting documentation.  Silicon Graphics makes no
  52:h:/6261A/11CW1352MP_BIRD61A_11C_V33_GPRS_MMI/Tools/MinGW/include/c++/3.3.1/bits/list.tcc ****  * representations about the suitability of this software for any
  53:h:/6261A/11CW1352MP_BIRD61A_11C_V33_GPRS_MMI/Tools/MinGW/include/c++/3.3.1/bits/list.tcc ****  * purpose.  It is provided "as is" without express or implied warranty.
  54:h:/6261A/11CW1352MP_BIRD61A_11C_V33_GPRS_MMI/Tools/MinGW/include/c++/3.3.1/bits/list.tcc ****  */
  55:h:/6261A/11CW1352MP_BIRD61A_11C_V33_GPRS_MMI/Tools/MinGW/include/c++/3.3.1/bits/list.tcc **** 
  56:h:/6261A/11CW1352MP_BIRD61A_11C_V33_GPRS_MMI/Tools/MinGW/include/c++/3.3.1/bits/list.tcc **** /** @file list.tcc
  57:h:/6261A/11CW1352MP_BIRD61A_11C_V33_GPRS_MMI/Tools/MinGW/include/c++/3.3.1/bits/list.tcc ****  *  This is an internal header file, included by other library headers.
  58:h:/6261A/11CW1352MP_BIRD61A_11C_V33_GPRS_MMI/Tools/MinGW/include/c++/3.3.1/bits/list.tcc ****  *  You should not attempt to use it directly.
  59:h:/6261A/11CW1352MP_BIRD61A_11C_V33_GPRS_MMI/Tools/MinGW/include/c++/3.3.1/bits/list.tcc ****  */
  60:h:/6261A/11CW1352MP_BIRD61A_11C_V33_GPRS_MMI/Tools/MinGW/include/c++/3.3.1/bits/list.tcc **** 
  61:h:/6261A/11CW1352MP_BIRD61A_11C_V33_GPRS_MMI/Tools/MinGW/include/c++/3.3.1/bits/list.tcc **** #ifndef __GLIBCPP_INTERNAL_LIST_TCC
  62:h:/6261A/11CW1352MP_BIRD61A_11C_V33_GPRS_MMI/Tools/MinGW/include/c++/3.3.1/bits/list.tcc **** #define __GLIBCPP_INTERNAL_LIST_TCC
  63:h:/6261A/11CW1352MP_BIRD61A_11C_V33_GPRS_MMI/Tools/MinGW/include/c++/3.3.1/bits/list.tcc **** 
  64:h:/6261A/11CW1352MP_BIRD61A_11C_V33_GPRS_MMI/Tools/MinGW/include/c++/3.3.1/bits/list.tcc **** namespace std
  65:h:/6261A/11CW1352MP_BIRD61A_11C_V33_GPRS_MMI/Tools/MinGW/include/c++/3.3.1/bits/list.tcc **** {
  66:h:/6261A/11CW1352MP_BIRD61A_11C_V33_GPRS_MMI/Tools/MinGW/include/c++/3.3.1/bits/list.tcc ****   template<typename _Tp, typename _Alloc>
  67:h:/6261A/11CW1352MP_BIRD61A_11C_V33_GPRS_MMI/Tools/MinGW/include/c++/3.3.1/bits/list.tcc ****     void
  68:h:/6261A/11CW1352MP_BIRD61A_11C_V33_GPRS_MMI/Tools/MinGW/include/c++/3.3.1/bits/list.tcc ****     _List_base<_Tp,_Alloc>::
  69:h:/6261A/11CW1352MP_BIRD61A_11C_V33_GPRS_MMI/Tools/MinGW/include/c++/3.3.1/bits/list.tcc ****     __clear()
  70:h:/6261A/11CW1352MP_BIRD61A_11C_V33_GPRS_MMI/Tools/MinGW/include/c++/3.3.1/bits/list.tcc ****     {
 7273              	LM238:
 7274 0000 55       		pushl	%ebp
 7275 0001 89E5     		movl	%esp, %ebp
 7276 0003 83EC18   		subl	$24, %esp
  71:h:/6261A/11CW1352MP_BIRD61A_11C_V33_GPRS_MMI/Tools/MinGW/include/c++/3.3.1/bits/list.tcc ****       typedef _List_node<_Tp>  _Node;
  72:h:/6261A/11CW1352MP_BIRD61A_11C_V33_GPRS_MMI/Tools/MinGW/include/c++/3.3.1/bits/list.tcc ****       _Node* __cur = static_cast<_Node*>(_M_node->_M_next);
 7278              	LM239:
 7279              	LBB62:
 7280 0006 8B4508   		movl	8(%ebp), %eax
GAS LISTING h:/6261A/11CW1352MP_BIRD61A_11C_V33_GPRS_MMI/plutommi/Customer/ResGenerator/gcctmp/ccEHcaaa.s 			page 116


 7281 0009 8B00     		movl	(%eax), %eax
 7282 000b 8B00     		movl	(%eax), %eax
 7283 000d 8945FC   		movl	%eax, -4(%ebp)
  73:h:/6261A/11CW1352MP_BIRD61A_11C_V33_GPRS_MMI/Tools/MinGW/include/c++/3.3.1/bits/list.tcc ****       while (__cur != _M_node)
 7285              	LM240:
 7286              	L226:
 7287 0010 8B5508   		movl	8(%ebp), %edx
 7288 0013 8B45FC   		movl	-4(%ebp), %eax
 7289 0016 3B02     		cmpl	(%edx), %eax
 7290 0018 7502     		jne	L228
 7291 001a EB30     		jmp	L227
 7292              	L228:
  74:h:/6261A/11CW1352MP_BIRD61A_11C_V33_GPRS_MMI/Tools/MinGW/include/c++/3.3.1/bits/list.tcc ****       {
  75:h:/6261A/11CW1352MP_BIRD61A_11C_V33_GPRS_MMI/Tools/MinGW/include/c++/3.3.1/bits/list.tcc ****         _Node* __tmp = __cur;
 7294              	LM241:
 7295              	LBB63:
 7296              	LBB64:
 7297 001c 8B45FC   		movl	-4(%ebp), %eax
 7298 001f 8945F8   		movl	%eax, -8(%ebp)
  76:h:/6261A/11CW1352MP_BIRD61A_11C_V33_GPRS_MMI/Tools/MinGW/include/c++/3.3.1/bits/list.tcc ****         __cur = static_cast<_Node*>(__cur->_M_next);
 7300              	LM242:
 7301 0022 8B45FC   		movl	-4(%ebp), %eax
 7302 0025 8B00     		movl	(%eax), %eax
 7303 0027 8945FC   		movl	%eax, -4(%ebp)
  77:h:/6261A/11CW1352MP_BIRD61A_11C_V33_GPRS_MMI/Tools/MinGW/include/c++/3.3.1/bits/list.tcc ****         _Destroy(&__tmp->_M_data);
 7305              	LM243:
 7306 002a 8B45F8   		movl	-8(%ebp), %eax
 7307 002d 83C008   		addl	$8, %eax
 7308 0030 890424   		movl	%eax, (%esp)
 7309 0033 E8000000 		call	__ZSt8_DestroyIN10ThreadPool7JobDataEEvPT_
 7309      00
  78:h:/6261A/11CW1352MP_BIRD61A_11C_V33_GPRS_MMI/Tools/MinGW/include/c++/3.3.1/bits/list.tcc ****         _M_put_node(__tmp);
 7311              	LM244:
 7312 0038 8B45F8   		movl	-8(%ebp), %eax
 7313 003b 89442404 		movl	%eax, 4(%esp)
 7314 003f 8B4508   		movl	8(%ebp), %eax
 7315 0042 890424   		movl	%eax, (%esp)
 7316 0045 E8000000 		call	__ZNSt16_List_alloc_baseIN10ThreadPool7JobDataESaIS1_ELb1EE11_M_put_nodeEPSt10_List_nodeIS1_E
 7316      00
 7317              	LBE64:
 7318              	LBE63:
 7319 004a EBC4     		jmp	L226
 7320              	L227:
  79:h:/6261A/11CW1352MP_BIRD61A_11C_V33_GPRS_MMI/Tools/MinGW/include/c++/3.3.1/bits/list.tcc ****       }
  80:h:/6261A/11CW1352MP_BIRD61A_11C_V33_GPRS_MMI/Tools/MinGW/include/c++/3.3.1/bits/list.tcc ****       _M_node->_M_next = _M_node;
 7322              	LM245:
 7323 004c 8B4508   		movl	8(%ebp), %eax
 7324 004f 8B10     		movl	(%eax), %edx
 7325 0051 8B4508   		movl	8(%ebp), %eax
 7326 0054 8B00     		movl	(%eax), %eax
 7327 0056 8902     		movl	%eax, (%edx)
  81:h:/6261A/11CW1352MP_BIRD61A_11C_V33_GPRS_MMI/Tools/MinGW/include/c++/3.3.1/bits/list.tcc ****       _M_node->_M_prev = _M_node;
 7329              	LM246:
 7330 0058 8B4508   		movl	8(%ebp), %eax
 7331 005b 8B10     		movl	(%eax), %edx
 7332 005d 8B4508   		movl	8(%ebp), %eax
 7333 0060 8B00     		movl	(%eax), %eax
GAS LISTING h:/6261A/11CW1352MP_BIRD61A_11C_V33_GPRS_MMI/plutommi/Customer/ResGenerator/gcctmp/ccEHcaaa.s 			page 117


 7334 0062 894204   		movl	%eax, 4(%edx)
 7335 0065 C9       		leave
 7336 0066 C3       		ret
 7337              	LBE62:
 7344              	Lscope46:
 7346 0067 90       		.section	.text$_ZNSt14_List_iteratorIN10ThreadPool7JobDataERS1_PS1_EC1ERKS4_,"x"
 7347              		.linkonce discard
 7348              		.align 2
 7352              	.globl __ZNSt14_List_iteratorIN10ThreadPool7JobDataERS1_PS1_EC1ERKS4_
 7354              	__ZNSt14_List_iteratorIN10ThreadPool7JobDataERS1_PS1_EC1ERKS4_:
 7356              	Ltext17:
 7358              	LM247:
 7359 0000 55       		pushl	%ebp
 7360 0001 89E5     		movl	%esp, %ebp
 7361 0003 83EC08   		subl	$8, %esp
 7363              	LM248:
 7364              	LBB65:
 7365 0006 8B450C   		movl	12(%ebp), %eax
 7366 0009 8B00     		movl	(%eax), %eax
 7367 000b 89442404 		movl	%eax, 4(%esp)
 7368 000f 8B4508   		movl	8(%ebp), %eax
 7369 0012 890424   		movl	%eax, (%esp)
 7370 0015 E8000000 		call	__ZNSt19_List_iterator_baseC2EPSt15_List_node_base
 7370      00
 7371 001a C9       		leave
 7372 001b C3       		ret
 7373              	LBE65:
 7374              	Lscope47:
 7376              		.section	.text$_ZNSt12_Vector_baseIN10ThreadPool10ThreadDataESaIS1_EEC2ERKS2_,"x"
 7377              		.linkonce discard
 7378              		.align 2
 7382              	.globl __ZNSt12_Vector_baseIN10ThreadPool10ThreadDataESaIS1_EEC2ERKS2_
 7384              	__ZNSt12_Vector_baseIN10ThreadPool10ThreadDataESaIS1_EEC2ERKS2_:
 7386              	Ltext18:
 7388              	LM249:
 7389 0000 55       		pushl	%ebp
 7390 0001 89E5     		movl	%esp, %ebp
 7391 0003 83EC08   		subl	$8, %esp
 7393              	LM250:
 7394              	LBB66:
 7395 0006 8B450C   		movl	12(%ebp), %eax
 7396 0009 89442404 		movl	%eax, 4(%esp)
 7397 000d 8B4508   		movl	8(%ebp), %eax
 7398 0010 890424   		movl	%eax, (%esp)
 7399 0013 E8000000 		call	__ZNSt18_Vector_alloc_baseIN10ThreadPool10ThreadDataESaIS1_ELb1EEC2ERKS2_
 7399      00
 7400 0018 C9       		leave
 7401 0019 C3       		ret
 7402              	LBE66:
 7403              	Lscope48:
 7405 001a 9090     		.section	.text$_ZNSt18_Vector_alloc_baseIN10ThreadPool10ThreadDataESaIS1_ELb1EEC2ERKS2_,"x"
 7406              		.linkonce discard
 7407              		.align 2
 7410              	.globl __ZNSt18_Vector_alloc_baseIN10ThreadPool10ThreadDataESaIS1_ELb1EEC2ERKS2_
 7412              	__ZNSt18_Vector_alloc_baseIN10ThreadPool10ThreadDataESaIS1_ELb1EEC2ERKS2_:
 7414              	LM251:
 7415 0000 55       		pushl	%ebp
GAS LISTING h:/6261A/11CW1352MP_BIRD61A_11C_V33_GPRS_MMI/plutommi/Customer/ResGenerator/gcctmp/ccEHcaaa.s 			page 118


 7416 0001 89E5     		movl	%esp, %ebp
 7418              	LM252:
 7419              	LBB67:
 7420 0003 8B4508   		movl	8(%ebp), %eax
 7421 0006 C7000000 		movl	$0, (%eax)
 7421      0000
 7422 000c 8B4508   		movl	8(%ebp), %eax
 7423 000f C7400400 		movl	$0, 4(%eax)
 7423      000000
 7424 0016 8B4508   		movl	8(%ebp), %eax
 7425 0019 C7400800 		movl	$0, 8(%eax)
 7425      000000
 7426 0020 5D       		popl	%ebp
 7427 0021 C3       		ret
 7428              	LBE67:
 7429              	Lscope49:
 7431 0022 9090     		.section	.text$_ZNSt12_Vector_baseIN10ThreadPool10ThreadDataESaIS1_EED2Ev,"x"
 7432              		.linkonce discard
 7433              		.align 2
 7436              	.globl __ZNSt12_Vector_baseIN10ThreadPool10ThreadDataESaIS1_EED2Ev
 7438              	__ZNSt12_Vector_baseIN10ThreadPool10ThreadDataESaIS1_EED2Ev:
 7440              	LM253:
 7441 0000 55       		pushl	%ebp
 7442 0001 89E5     		movl	%esp, %ebp
 7443 0003 83EC18   		subl	$24, %esp
 7445              	LM254:
 7446              	LBB68:
 7447 0006 8B4D08   		movl	8(%ebp), %ecx
 7448 0009 8B4508   		movl	8(%ebp), %eax
 7449 000c 8B10     		movl	(%eax), %edx
 7450 000e 8B4108   		movl	8(%ecx), %eax
 7451 0011 29D0     		subl	%edx, %eax
 7452 0013 C1F802   		sarl	$2, %eax
 7453 0016 69C0ABAA 		imull	$-1431655765, %eax, %eax
 7453      AAAA
 7454 001c 89442408 		movl	%eax, 8(%esp)
 7455 0020 8B4508   		movl	8(%ebp), %eax
 7456 0023 8B00     		movl	(%eax), %eax
 7457 0025 89442404 		movl	%eax, 4(%esp)
 7458 0029 8B4508   		movl	8(%ebp), %eax
 7459 002c 890424   		movl	%eax, (%esp)
 7460 002f E8000000 		call	__ZNSt18_Vector_alloc_baseIN10ThreadPool10ThreadDataESaIS1_ELb1EE13_M_deallocateEPS1_j
 7460      00
 7461 0034 C9       		leave
 7462 0035 C3       		ret
 7463              	LBE68:
 7464              	Lscope50:
 7466 0036 9090     		.section	.text$_ZNSt18_Vector_alloc_baseIN10ThreadPool10ThreadDataESaIS1_ELb1EE13_M_deallocateEPS1
 7467              		.linkonce discard
 7468              		.align 2
 7473              	.globl __ZNSt18_Vector_alloc_baseIN10ThreadPool10ThreadDataESaIS1_ELb1EE13_M_deallocateEPS1_j
 7475              	__ZNSt18_Vector_alloc_baseIN10ThreadPool10ThreadDataESaIS1_ELb1EE13_M_deallocateEPS1_j:
 7477              	LM255:
 7478 0000 55       		pushl	%ebp
 7479 0001 89E5     		movl	%esp, %ebp
 7480 0003 83EC08   		subl	$8, %esp
 7482              	LM256:
GAS LISTING h:/6261A/11CW1352MP_BIRD61A_11C_V33_GPRS_MMI/plutommi/Customer/ResGenerator/gcctmp/ccEHcaaa.s 			page 119


 7483              	LBB69:
 7484 0006 8B4510   		movl	16(%ebp), %eax
 7485 0009 89442404 		movl	%eax, 4(%esp)
 7486 000d 8B450C   		movl	12(%ebp), %eax
 7487 0010 890424   		movl	%eax, (%esp)
 7488 0013 E8000000 		call	__ZNSt14__simple_allocIN10ThreadPool10ThreadDataESt24__default_alloc_templateILb1ELi0EEE10dea
 7488      00
 7489 0018 C9       		leave
 7490 0019 C3       		ret
 7491              	LBE69:
 7492              	Lscope51:
 7494 001a 9090     		.section	.text$_ZNSt14__simple_allocIN10ThreadPool10ThreadDataESt24__default_alloc_templateILb1ELi
 7495              		.linkonce discard
 7496              		.align 2
 7500              	.globl __ZNSt14__simple_allocIN10ThreadPool10ThreadDataESt24__default_alloc_templateILb1ELi0EEE10de
 7502              	__ZNSt14__simple_allocIN10ThreadPool10ThreadDataESt24__default_alloc_templateILb1ELi0EEE10deallocat
 7504              	Ltext19:
 7506              	LM257:
 7507 0000 55       		pushl	%ebp
 7508 0001 89E5     		movl	%esp, %ebp
 7509 0003 83EC08   		subl	$8, %esp
 7511              	LM258:
 7512              	LBB70:
 7513 0006 837D0C00 		cmpl	$0, 12(%ebp)
 7514 000a 741B     		je	L236
 7515 000c 8B550C   		movl	12(%ebp), %edx
 7516 000f 89D0     		movl	%edx, %eax
 7517 0011 01C0     		addl	%eax, %eax
 7518 0013 01D0     		addl	%edx, %eax
 7519 0015 C1E002   		sall	$2, %eax
 7520 0018 89442404 		movl	%eax, 4(%esp)
 7521 001c 8B4508   		movl	8(%ebp), %eax
 7522 001f 890424   		movl	%eax, (%esp)
 7523 0022 E8000000 		call	__ZNSt24__default_alloc_templateILb1ELi0EE10deallocateEPvj
 7523      00
 7524              	L236:
 7525 0027 C9       		leave
 7526 0028 C3       		ret
 7527              	LBE70:
 7528              	Lscope52:
 7530 0029 909090   		.section	.text$_ZSt10_ConstructIN10ThreadPool10ThreadDataES1_EvPT_RKT0_,"x"
 7531              		.linkonce discard
 7532              		.align 2
 7536              	.globl __ZSt10_ConstructIN10ThreadPool10ThreadDataES1_EvPT_RKT0_
 7538              	__ZSt10_ConstructIN10ThreadPool10ThreadDataES1_EvPT_RKT0_:
 7540              	Ltext20:
 7542              	LM259:
 7543 0000 55       		pushl	%ebp
 7544 0001 89E5     		movl	%esp, %ebp
 7545 0003 83EC18   		subl	$24, %esp
 7547              	LM260:
 7548              	LBB71:
 7549 0006 8B4508   		movl	8(%ebp), %eax
 7550 0009 89442404 		movl	%eax, 4(%esp)
 7551 000d C704240C 		movl	$12, (%esp)
 7551      000000
 7552 0014 E8000000 		call	__ZnwjPv
GAS LISTING h:/6261A/11CW1352MP_BIRD61A_11C_V33_GPRS_MMI/plutommi/Customer/ResGenerator/gcctmp/ccEHcaaa.s 			page 120


 7552      00
 7553 0019 8945FC   		movl	%eax, -4(%ebp)
 7554 001c 837DFC00 		cmpl	$0, -4(%ebp)
 7555 0020 741C     		je	L238
 7556 0022 8B550C   		movl	12(%ebp), %edx
 7557 0025 8B02     		movl	(%edx), %eax
 7558 0027 8B4DFC   		movl	-4(%ebp), %ecx
 7559 002a 8901     		movl	%eax, (%ecx)
 7560 002c 8B4204   		movl	4(%edx), %eax
 7561 002f 8B4DFC   		movl	-4(%ebp), %ecx
 7562 0032 894104   		movl	%eax, 4(%ecx)
 7563 0035 8B4208   		movl	8(%edx), %eax
 7564 0038 8B55FC   		movl	-4(%ebp), %edx
 7565 003b 894208   		movl	%eax, 8(%edx)
 7566              	L241:
 7567              	L238:
 7568 003e C9       		leave
 7569 003f C3       		ret
 7570              	LBE71:
 7571              	Lscope53:
 7573              		.section	.text$_ZN9__gnu_cxx17__normal_iteratorIPN10ThreadPool10ThreadDataESt6vectorIS2_SaIS2_EEEC
 7574              		.linkonce discard
 7575              		.align 2
 7579              	.globl __ZN9__gnu_cxx17__normal_iteratorIPN10ThreadPool10ThreadDataESt6vectorIS2_SaIS2_EEEC1ERKS3_
 7581              	__ZN9__gnu_cxx17__normal_iteratorIPN10ThreadPool10ThreadDataESt6vectorIS2_SaIS2_EEEC1ERKS3_:
 7583              	Ltext21:
 7585              	LM261:
 7586 0000 55       		pushl	%ebp
 7587 0001 89E5     		movl	%esp, %ebp
 7588 0003 83EC08   		subl	$8, %esp
 7590              	LM262:
 7591              	LBB72:
 7592 0006 8B4508   		movl	8(%ebp), %eax
 7593 0009 890424   		movl	%eax, (%esp)
 7594 000c E8000000 		call	__ZNSt8iteratorISt26random_access_iterator_tagN10ThreadPool10ThreadDataEiPS2_RS2_EC2Ev
 7594      00
 7595 0011 8B5508   		movl	8(%ebp), %edx
 7596 0014 8B450C   		movl	12(%ebp), %eax
 7597 0017 8B00     		movl	(%eax), %eax
 7598 0019 8902     		movl	%eax, (%edx)
 7599 001b C9       		leave
 7600 001c C3       		ret
 7601              	LBE72:
 7602              	Lscope54:
 7604 001d 909090   		.section	.text$_ZNK9__gnu_cxx17__normal_iteratorIPN10ThreadPool10ThreadDataESt6vectorIS2_SaIS2_EEE
 7605              		.linkonce discard
 7606              		.align 2
 7609              	.globl __ZNK9__gnu_cxx17__normal_iteratorIPN10ThreadPool10ThreadDataESt6vectorIS2_SaIS2_EEE4baseEv
 7611              	__ZNK9__gnu_cxx17__normal_iteratorIPN10ThreadPool10ThreadDataESt6vectorIS2_SaIS2_EEE4baseEv:
 7613              	LM263:
 7614 0000 55       		pushl	%ebp
 7615 0001 89E5     		movl	%esp, %ebp
 7617              	LM264:
 7618              	LBB73:
 7619 0003 8B4508   		movl	8(%ebp), %eax
 7620 0006 5D       		popl	%ebp
 7621 0007 C3       		ret
GAS LISTING h:/6261A/11CW1352MP_BIRD61A_11C_V33_GPRS_MMI/plutommi/Customer/ResGenerator/gcctmp/ccEHcaaa.s 			page 121


 7622              	LBE73:
 7623              	Lscope55:
 7625              		.section	.text$_ZNSt6vectorIN10ThreadPool10ThreadDataESaIS1_EE13_M_insert_auxEN9__gnu_cxx17__norma
 7626              		.linkonce discard
 7627              		.align 2
 7632              	.globl __ZNSt6vectorIN10ThreadPool10ThreadDataESaIS1_EE13_M_insert_auxEN9__gnu_cxx17__normal_iterat
 7634              	__ZNSt6vectorIN10ThreadPool10ThreadDataESaIS1_EE13_M_insert_auxEN9__gnu_cxx17__normal_iteratorIPS1_
 7636              	Ltext22:
   1:h:/6261A/11CW1352MP_BIRD61A_11C_V33_GPRS_MMI/Tools/MinGW/include/c++/3.3.1/bits/vector.tcc **** // Vector implementation (out of line) -*- C++ -*-
   2:h:/6261A/11CW1352MP_BIRD61A_11C_V33_GPRS_MMI/Tools/MinGW/include/c++/3.3.1/bits/vector.tcc **** 
   3:h:/6261A/11CW1352MP_BIRD61A_11C_V33_GPRS_MMI/Tools/MinGW/include/c++/3.3.1/bits/vector.tcc **** // Copyright (C) 2001, 2002 Free Software Foundation, Inc.
   4:h:/6261A/11CW1352MP_BIRD61A_11C_V33_GPRS_MMI/Tools/MinGW/include/c++/3.3.1/bits/vector.tcc **** //
   5:h:/6261A/11CW1352MP_BIRD61A_11C_V33_GPRS_MMI/Tools/MinGW/include/c++/3.3.1/bits/vector.tcc **** // This file is part of the GNU ISO C++ Library.  This library is free
   6:h:/6261A/11CW1352MP_BIRD61A_11C_V33_GPRS_MMI/Tools/MinGW/include/c++/3.3.1/bits/vector.tcc **** // software; you can redistribute it and/or modify it under the
   7:h:/6261A/11CW1352MP_BIRD61A_11C_V33_GPRS_MMI/Tools/MinGW/include/c++/3.3.1/bits/vector.tcc **** // terms of the GNU General Public License as published by the
   8:h:/6261A/11CW1352MP_BIRD61A_11C_V33_GPRS_MMI/Tools/MinGW/include/c++/3.3.1/bits/vector.tcc **** // Free Software Foundation; either version 2, or (at your option)
   9:h:/6261A/11CW1352MP_BIRD61A_11C_V33_GPRS_MMI/Tools/MinGW/include/c++/3.3.1/bits/vector.tcc **** // any later version.
  10:h:/6261A/11CW1352MP_BIRD61A_11C_V33_GPRS_MMI/Tools/MinGW/include/c++/3.3.1/bits/vector.tcc **** 
  11:h:/6261A/11CW1352MP_BIRD61A_11C_V33_GPRS_MMI/Tools/MinGW/include/c++/3.3.1/bits/vector.tcc **** // This library is distributed in the hope that it will be useful,
  12:h:/6261A/11CW1352MP_BIRD61A_11C_V33_GPRS_MMI/Tools/MinGW/include/c++/3.3.1/bits/vector.tcc **** // but WITHOUT ANY WARRANTY; without even the implied warranty of
  13:h:/6261A/11CW1352MP_BIRD61A_11C_V33_GPRS_MMI/Tools/MinGW/include/c++/3.3.1/bits/vector.tcc **** // MERCHANTABILITY or FITNESS FOR A PARTICULAR PURPOSE.  See the
  14:h:/6261A/11CW1352MP_BIRD61A_11C_V33_GPRS_MMI/Tools/MinGW/include/c++/3.3.1/bits/vector.tcc **** // GNU General Public License for more details.
  15:h:/6261A/11CW1352MP_BIRD61A_11C_V33_GPRS_MMI/Tools/MinGW/include/c++/3.3.1/bits/vector.tcc **** 
  16:h:/6261A/11CW1352MP_BIRD61A_11C_V33_GPRS_MMI/Tools/MinGW/include/c++/3.3.1/bits/vector.tcc **** // You should have received a copy of the GNU General Public License along
  17:h:/6261A/11CW1352MP_BIRD61A_11C_V33_GPRS_MMI/Tools/MinGW/include/c++/3.3.1/bits/vector.tcc **** // with this library; see the file COPYING.  If not, write to the Free
  18:h:/6261A/11CW1352MP_BIRD61A_11C_V33_GPRS_MMI/Tools/MinGW/include/c++/3.3.1/bits/vector.tcc **** // Software Foundation, 59 Temple Place - Suite 330, Boston, MA 02111-1307,
  19:h:/6261A/11CW1352MP_BIRD61A_11C_V33_GPRS_MMI/Tools/MinGW/include/c++/3.3.1/bits/vector.tcc **** // USA.
  20:h:/6261A/11CW1352MP_BIRD61A_11C_V33_GPRS_MMI/Tools/MinGW/include/c++/3.3.1/bits/vector.tcc **** 
  21:h:/6261A/11CW1352MP_BIRD61A_11C_V33_GPRS_MMI/Tools/MinGW/include/c++/3.3.1/bits/vector.tcc **** // As a special exception, you may use this file as part of a free software
  22:h:/6261A/11CW1352MP_BIRD61A_11C_V33_GPRS_MMI/Tools/MinGW/include/c++/3.3.1/bits/vector.tcc **** // library without restriction.  Specifically, if other files instantiate
  23:h:/6261A/11CW1352MP_BIRD61A_11C_V33_GPRS_MMI/Tools/MinGW/include/c++/3.3.1/bits/vector.tcc **** // templates or use macros or inline functions from this file, or you compile
  24:h:/6261A/11CW1352MP_BIRD61A_11C_V33_GPRS_MMI/Tools/MinGW/include/c++/3.3.1/bits/vector.tcc **** // this file and link it with other files to produce an executable, this
  25:h:/6261A/11CW1352MP_BIRD61A_11C_V33_GPRS_MMI/Tools/MinGW/include/c++/3.3.1/bits/vector.tcc **** // file does not by itself cause the resulting executable to be covered by
  26:h:/6261A/11CW1352MP_BIRD61A_11C_V33_GPRS_MMI/Tools/MinGW/include/c++/3.3.1/bits/vector.tcc **** // the GNU General Public License.  This exception does not however
  27:h:/6261A/11CW1352MP_BIRD61A_11C_V33_GPRS_MMI/Tools/MinGW/include/c++/3.3.1/bits/vector.tcc **** // invalidate any other reasons why the executable file might be covered by
  28:h:/6261A/11CW1352MP_BIRD61A_11C_V33_GPRS_MMI/Tools/MinGW/include/c++/3.3.1/bits/vector.tcc **** // the GNU General Public License.
  29:h:/6261A/11CW1352MP_BIRD61A_11C_V33_GPRS_MMI/Tools/MinGW/include/c++/3.3.1/bits/vector.tcc **** 
  30:h:/6261A/11CW1352MP_BIRD61A_11C_V33_GPRS_MMI/Tools/MinGW/include/c++/3.3.1/bits/vector.tcc **** /*
  31:h:/6261A/11CW1352MP_BIRD61A_11C_V33_GPRS_MMI/Tools/MinGW/include/c++/3.3.1/bits/vector.tcc ****  *
  32:h:/6261A/11CW1352MP_BIRD61A_11C_V33_GPRS_MMI/Tools/MinGW/include/c++/3.3.1/bits/vector.tcc ****  * Copyright (c) 1994
  33:h:/6261A/11CW1352MP_BIRD61A_11C_V33_GPRS_MMI/Tools/MinGW/include/c++/3.3.1/bits/vector.tcc ****  * Hewlett-Packard Company
  34:h:/6261A/11CW1352MP_BIRD61A_11C_V33_GPRS_MMI/Tools/MinGW/include/c++/3.3.1/bits/vector.tcc ****  *
  35:h:/6261A/11CW1352MP_BIRD61A_11C_V33_GPRS_MMI/Tools/MinGW/include/c++/3.3.1/bits/vector.tcc ****  * Permission to use, copy, modify, distribute and sell this software
  36:h:/6261A/11CW1352MP_BIRD61A_11C_V33_GPRS_MMI/Tools/MinGW/include/c++/3.3.1/bits/vector.tcc ****  * and its documentation for any purpose is hereby granted without fee,
  37:h:/6261A/11CW1352MP_BIRD61A_11C_V33_GPRS_MMI/Tools/MinGW/include/c++/3.3.1/bits/vector.tcc ****  * provided that the above copyright notice appear in all copies and
  38:h:/6261A/11CW1352MP_BIRD61A_11C_V33_GPRS_MMI/Tools/MinGW/include/c++/3.3.1/bits/vector.tcc ****  * that both that copyright notice and this permission notice appear
  39:h:/6261A/11CW1352MP_BIRD61A_11C_V33_GPRS_MMI/Tools/MinGW/include/c++/3.3.1/bits/vector.tcc ****  * in supporting documentation.  Hewlett-Packard Company makes no
  40:h:/6261A/11CW1352MP_BIRD61A_11C_V33_GPRS_MMI/Tools/MinGW/include/c++/3.3.1/bits/vector.tcc ****  * representations about the suitability of this software for any
  41:h:/6261A/11CW1352MP_BIRD61A_11C_V33_GPRS_MMI/Tools/MinGW/include/c++/3.3.1/bits/vector.tcc ****  * purpose.  It is provided "as is" without express or implied warranty.
  42:h:/6261A/11CW1352MP_BIRD61A_11C_V33_GPRS_MMI/Tools/MinGW/include/c++/3.3.1/bits/vector.tcc ****  *
  43:h:/6261A/11CW1352MP_BIRD61A_11C_V33_GPRS_MMI/Tools/MinGW/include/c++/3.3.1/bits/vector.tcc ****  *
  44:h:/6261A/11CW1352MP_BIRD61A_11C_V33_GPRS_MMI/Tools/MinGW/include/c++/3.3.1/bits/vector.tcc ****  * Copyright (c) 1996
  45:h:/6261A/11CW1352MP_BIRD61A_11C_V33_GPRS_MMI/Tools/MinGW/include/c++/3.3.1/bits/vector.tcc ****  * Silicon Graphics Computer Systems, Inc.
  46:h:/6261A/11CW1352MP_BIRD61A_11C_V33_GPRS_MMI/Tools/MinGW/include/c++/3.3.1/bits/vector.tcc ****  *
  47:h:/6261A/11CW1352MP_BIRD61A_11C_V33_GPRS_MMI/Tools/MinGW/include/c++/3.3.1/bits/vector.tcc ****  * Permission to use, copy, modify, distribute and sell this software
  48:h:/6261A/11CW1352MP_BIRD61A_11C_V33_GPRS_MMI/Tools/MinGW/include/c++/3.3.1/bits/vector.tcc ****  * and its documentation for any purpose is hereby granted without fee,
  49:h:/6261A/11CW1352MP_BIRD61A_11C_V33_GPRS_MMI/Tools/MinGW/include/c++/3.3.1/bits/vector.tcc ****  * provided that the above copyright notice appear in all copies and
GAS LISTING h:/6261A/11CW1352MP_BIRD61A_11C_V33_GPRS_MMI/plutommi/Customer/ResGenerator/gcctmp/ccEHcaaa.s 			page 122


  50:h:/6261A/11CW1352MP_BIRD61A_11C_V33_GPRS_MMI/Tools/MinGW/include/c++/3.3.1/bits/vector.tcc ****  * that both that copyright notice and this permission notice appear
  51:h:/6261A/11CW1352MP_BIRD61A_11C_V33_GPRS_MMI/Tools/MinGW/include/c++/3.3.1/bits/vector.tcc ****  * in supporting documentation.  Silicon Graphics makes no
  52:h:/6261A/11CW1352MP_BIRD61A_11C_V33_GPRS_MMI/Tools/MinGW/include/c++/3.3.1/bits/vector.tcc ****  * representations about the suitability of this  software for any
  53:h:/6261A/11CW1352MP_BIRD61A_11C_V33_GPRS_MMI/Tools/MinGW/include/c++/3.3.1/bits/vector.tcc ****  * purpose.  It is provided "as is" without express or implied warranty.
  54:h:/6261A/11CW1352MP_BIRD61A_11C_V33_GPRS_MMI/Tools/MinGW/include/c++/3.3.1/bits/vector.tcc ****  */
  55:h:/6261A/11CW1352MP_BIRD61A_11C_V33_GPRS_MMI/Tools/MinGW/include/c++/3.3.1/bits/vector.tcc **** 
  56:h:/6261A/11CW1352MP_BIRD61A_11C_V33_GPRS_MMI/Tools/MinGW/include/c++/3.3.1/bits/vector.tcc **** /** @file vector.tcc
  57:h:/6261A/11CW1352MP_BIRD61A_11C_V33_GPRS_MMI/Tools/MinGW/include/c++/3.3.1/bits/vector.tcc ****  *  This is an internal header file, included by other library headers.
  58:h:/6261A/11CW1352MP_BIRD61A_11C_V33_GPRS_MMI/Tools/MinGW/include/c++/3.3.1/bits/vector.tcc ****  *  You should not attempt to use it directly.
  59:h:/6261A/11CW1352MP_BIRD61A_11C_V33_GPRS_MMI/Tools/MinGW/include/c++/3.3.1/bits/vector.tcc ****  */
  60:h:/6261A/11CW1352MP_BIRD61A_11C_V33_GPRS_MMI/Tools/MinGW/include/c++/3.3.1/bits/vector.tcc **** 
  61:h:/6261A/11CW1352MP_BIRD61A_11C_V33_GPRS_MMI/Tools/MinGW/include/c++/3.3.1/bits/vector.tcc **** #ifndef __GLIBCPP_INTERNAL_VECTOR_TCC
  62:h:/6261A/11CW1352MP_BIRD61A_11C_V33_GPRS_MMI/Tools/MinGW/include/c++/3.3.1/bits/vector.tcc **** #define __GLIBCPP_INTERNAL_VECTOR_TCC
  63:h:/6261A/11CW1352MP_BIRD61A_11C_V33_GPRS_MMI/Tools/MinGW/include/c++/3.3.1/bits/vector.tcc **** 
  64:h:/6261A/11CW1352MP_BIRD61A_11C_V33_GPRS_MMI/Tools/MinGW/include/c++/3.3.1/bits/vector.tcc **** namespace std
  65:h:/6261A/11CW1352MP_BIRD61A_11C_V33_GPRS_MMI/Tools/MinGW/include/c++/3.3.1/bits/vector.tcc **** {
  66:h:/6261A/11CW1352MP_BIRD61A_11C_V33_GPRS_MMI/Tools/MinGW/include/c++/3.3.1/bits/vector.tcc ****   template<typename _Tp, typename _Alloc>
  67:h:/6261A/11CW1352MP_BIRD61A_11C_V33_GPRS_MMI/Tools/MinGW/include/c++/3.3.1/bits/vector.tcc ****     void
  68:h:/6261A/11CW1352MP_BIRD61A_11C_V33_GPRS_MMI/Tools/MinGW/include/c++/3.3.1/bits/vector.tcc ****     vector<_Tp,_Alloc>::
  69:h:/6261A/11CW1352MP_BIRD61A_11C_V33_GPRS_MMI/Tools/MinGW/include/c++/3.3.1/bits/vector.tcc ****     reserve(size_type __n)
  70:h:/6261A/11CW1352MP_BIRD61A_11C_V33_GPRS_MMI/Tools/MinGW/include/c++/3.3.1/bits/vector.tcc ****     {
  71:h:/6261A/11CW1352MP_BIRD61A_11C_V33_GPRS_MMI/Tools/MinGW/include/c++/3.3.1/bits/vector.tcc ****       if (__n > this->max_size())
  72:h:/6261A/11CW1352MP_BIRD61A_11C_V33_GPRS_MMI/Tools/MinGW/include/c++/3.3.1/bits/vector.tcc **** 	__throw_length_error("vector::reserve");
  73:h:/6261A/11CW1352MP_BIRD61A_11C_V33_GPRS_MMI/Tools/MinGW/include/c++/3.3.1/bits/vector.tcc ****       if (this->capacity() < __n)
  74:h:/6261A/11CW1352MP_BIRD61A_11C_V33_GPRS_MMI/Tools/MinGW/include/c++/3.3.1/bits/vector.tcc **** 	{
  75:h:/6261A/11CW1352MP_BIRD61A_11C_V33_GPRS_MMI/Tools/MinGW/include/c++/3.3.1/bits/vector.tcc **** 	  const size_type __old_size = size();
  76:h:/6261A/11CW1352MP_BIRD61A_11C_V33_GPRS_MMI/Tools/MinGW/include/c++/3.3.1/bits/vector.tcc **** 	  pointer __tmp = _M_allocate_and_copy(__n, _M_start, _M_finish);
  77:h:/6261A/11CW1352MP_BIRD61A_11C_V33_GPRS_MMI/Tools/MinGW/include/c++/3.3.1/bits/vector.tcc **** 	  _Destroy(_M_start, _M_finish);
  78:h:/6261A/11CW1352MP_BIRD61A_11C_V33_GPRS_MMI/Tools/MinGW/include/c++/3.3.1/bits/vector.tcc **** 	  _M_deallocate(_M_start, _M_end_of_storage - _M_start);
  79:h:/6261A/11CW1352MP_BIRD61A_11C_V33_GPRS_MMI/Tools/MinGW/include/c++/3.3.1/bits/vector.tcc **** 	  _M_start = __tmp;
  80:h:/6261A/11CW1352MP_BIRD61A_11C_V33_GPRS_MMI/Tools/MinGW/include/c++/3.3.1/bits/vector.tcc **** 	  _M_finish = __tmp + __old_size;
  81:h:/6261A/11CW1352MP_BIRD61A_11C_V33_GPRS_MMI/Tools/MinGW/include/c++/3.3.1/bits/vector.tcc **** 	  _M_end_of_storage = _M_start + __n;
  82:h:/6261A/11CW1352MP_BIRD61A_11C_V33_GPRS_MMI/Tools/MinGW/include/c++/3.3.1/bits/vector.tcc **** 	}
  83:h:/6261A/11CW1352MP_BIRD61A_11C_V33_GPRS_MMI/Tools/MinGW/include/c++/3.3.1/bits/vector.tcc ****     }
  84:h:/6261A/11CW1352MP_BIRD61A_11C_V33_GPRS_MMI/Tools/MinGW/include/c++/3.3.1/bits/vector.tcc ****   
  85:h:/6261A/11CW1352MP_BIRD61A_11C_V33_GPRS_MMI/Tools/MinGW/include/c++/3.3.1/bits/vector.tcc ****   template<typename _Tp, typename _Alloc>
  86:h:/6261A/11CW1352MP_BIRD61A_11C_V33_GPRS_MMI/Tools/MinGW/include/c++/3.3.1/bits/vector.tcc ****     typename vector<_Tp,_Alloc>::iterator
  87:h:/6261A/11CW1352MP_BIRD61A_11C_V33_GPRS_MMI/Tools/MinGW/include/c++/3.3.1/bits/vector.tcc ****     vector<_Tp,_Alloc>::
  88:h:/6261A/11CW1352MP_BIRD61A_11C_V33_GPRS_MMI/Tools/MinGW/include/c++/3.3.1/bits/vector.tcc ****     insert(iterator __position, const value_type& __x)
  89:h:/6261A/11CW1352MP_BIRD61A_11C_V33_GPRS_MMI/Tools/MinGW/include/c++/3.3.1/bits/vector.tcc ****     {
  90:h:/6261A/11CW1352MP_BIRD61A_11C_V33_GPRS_MMI/Tools/MinGW/include/c++/3.3.1/bits/vector.tcc ****       size_type __n = __position - begin();
  91:h:/6261A/11CW1352MP_BIRD61A_11C_V33_GPRS_MMI/Tools/MinGW/include/c++/3.3.1/bits/vector.tcc ****       if (_M_finish != _M_end_of_storage && __position == end())
  92:h:/6261A/11CW1352MP_BIRD61A_11C_V33_GPRS_MMI/Tools/MinGW/include/c++/3.3.1/bits/vector.tcc ****       {
  93:h:/6261A/11CW1352MP_BIRD61A_11C_V33_GPRS_MMI/Tools/MinGW/include/c++/3.3.1/bits/vector.tcc ****         _Construct(_M_finish, __x);
  94:h:/6261A/11CW1352MP_BIRD61A_11C_V33_GPRS_MMI/Tools/MinGW/include/c++/3.3.1/bits/vector.tcc ****         ++_M_finish;
  95:h:/6261A/11CW1352MP_BIRD61A_11C_V33_GPRS_MMI/Tools/MinGW/include/c++/3.3.1/bits/vector.tcc ****       }
  96:h:/6261A/11CW1352MP_BIRD61A_11C_V33_GPRS_MMI/Tools/MinGW/include/c++/3.3.1/bits/vector.tcc ****       else
  97:h:/6261A/11CW1352MP_BIRD61A_11C_V33_GPRS_MMI/Tools/MinGW/include/c++/3.3.1/bits/vector.tcc ****         _M_insert_aux(__position, __x);
  98:h:/6261A/11CW1352MP_BIRD61A_11C_V33_GPRS_MMI/Tools/MinGW/include/c++/3.3.1/bits/vector.tcc ****       return begin() + __n;
  99:h:/6261A/11CW1352MP_BIRD61A_11C_V33_GPRS_MMI/Tools/MinGW/include/c++/3.3.1/bits/vector.tcc ****     }
 100:h:/6261A/11CW1352MP_BIRD61A_11C_V33_GPRS_MMI/Tools/MinGW/include/c++/3.3.1/bits/vector.tcc ****   
 101:h:/6261A/11CW1352MP_BIRD61A_11C_V33_GPRS_MMI/Tools/MinGW/include/c++/3.3.1/bits/vector.tcc ****   template<typename _Tp, typename _Alloc>
 102:h:/6261A/11CW1352MP_BIRD61A_11C_V33_GPRS_MMI/Tools/MinGW/include/c++/3.3.1/bits/vector.tcc ****     typename vector<_Tp,_Alloc>::iterator
 103:h:/6261A/11CW1352MP_BIRD61A_11C_V33_GPRS_MMI/Tools/MinGW/include/c++/3.3.1/bits/vector.tcc ****     vector<_Tp,_Alloc>::
 104:h:/6261A/11CW1352MP_BIRD61A_11C_V33_GPRS_MMI/Tools/MinGW/include/c++/3.3.1/bits/vector.tcc ****     erase(iterator __position)
 105:h:/6261A/11CW1352MP_BIRD61A_11C_V33_GPRS_MMI/Tools/MinGW/include/c++/3.3.1/bits/vector.tcc ****     {
 106:h:/6261A/11CW1352MP_BIRD61A_11C_V33_GPRS_MMI/Tools/MinGW/include/c++/3.3.1/bits/vector.tcc ****       if (__position + 1 != end())
GAS LISTING h:/6261A/11CW1352MP_BIRD61A_11C_V33_GPRS_MMI/plutommi/Customer/ResGenerator/gcctmp/ccEHcaaa.s 			page 123


 107:h:/6261A/11CW1352MP_BIRD61A_11C_V33_GPRS_MMI/Tools/MinGW/include/c++/3.3.1/bits/vector.tcc ****         copy(__position + 1, end(), __position);
 108:h:/6261A/11CW1352MP_BIRD61A_11C_V33_GPRS_MMI/Tools/MinGW/include/c++/3.3.1/bits/vector.tcc ****       --_M_finish;
 109:h:/6261A/11CW1352MP_BIRD61A_11C_V33_GPRS_MMI/Tools/MinGW/include/c++/3.3.1/bits/vector.tcc ****       _Destroy(_M_finish);
 110:h:/6261A/11CW1352MP_BIRD61A_11C_V33_GPRS_MMI/Tools/MinGW/include/c++/3.3.1/bits/vector.tcc ****       return __position;
 111:h:/6261A/11CW1352MP_BIRD61A_11C_V33_GPRS_MMI/Tools/MinGW/include/c++/3.3.1/bits/vector.tcc ****     }
 112:h:/6261A/11CW1352MP_BIRD61A_11C_V33_GPRS_MMI/Tools/MinGW/include/c++/3.3.1/bits/vector.tcc ****   
 113:h:/6261A/11CW1352MP_BIRD61A_11C_V33_GPRS_MMI/Tools/MinGW/include/c++/3.3.1/bits/vector.tcc ****   template<typename _Tp, typename _Alloc>
 114:h:/6261A/11CW1352MP_BIRD61A_11C_V33_GPRS_MMI/Tools/MinGW/include/c++/3.3.1/bits/vector.tcc ****     typename vector<_Tp,_Alloc>::iterator
 115:h:/6261A/11CW1352MP_BIRD61A_11C_V33_GPRS_MMI/Tools/MinGW/include/c++/3.3.1/bits/vector.tcc ****     vector<_Tp,_Alloc>::
 116:h:/6261A/11CW1352MP_BIRD61A_11C_V33_GPRS_MMI/Tools/MinGW/include/c++/3.3.1/bits/vector.tcc ****     erase(iterator __first, iterator __last)
 117:h:/6261A/11CW1352MP_BIRD61A_11C_V33_GPRS_MMI/Tools/MinGW/include/c++/3.3.1/bits/vector.tcc ****     {
 118:h:/6261A/11CW1352MP_BIRD61A_11C_V33_GPRS_MMI/Tools/MinGW/include/c++/3.3.1/bits/vector.tcc ****       iterator __i(copy(__last, end(), __first));
 119:h:/6261A/11CW1352MP_BIRD61A_11C_V33_GPRS_MMI/Tools/MinGW/include/c++/3.3.1/bits/vector.tcc ****       _Destroy(__i, end());
 120:h:/6261A/11CW1352MP_BIRD61A_11C_V33_GPRS_MMI/Tools/MinGW/include/c++/3.3.1/bits/vector.tcc ****       _M_finish = _M_finish - (__last - __first);
 121:h:/6261A/11CW1352MP_BIRD61A_11C_V33_GPRS_MMI/Tools/MinGW/include/c++/3.3.1/bits/vector.tcc ****       return __first;
 122:h:/6261A/11CW1352MP_BIRD61A_11C_V33_GPRS_MMI/Tools/MinGW/include/c++/3.3.1/bits/vector.tcc ****     }
 123:h:/6261A/11CW1352MP_BIRD61A_11C_V33_GPRS_MMI/Tools/MinGW/include/c++/3.3.1/bits/vector.tcc ****   
 124:h:/6261A/11CW1352MP_BIRD61A_11C_V33_GPRS_MMI/Tools/MinGW/include/c++/3.3.1/bits/vector.tcc ****   template<typename _Tp, typename _Alloc>
 125:h:/6261A/11CW1352MP_BIRD61A_11C_V33_GPRS_MMI/Tools/MinGW/include/c++/3.3.1/bits/vector.tcc ****     vector<_Tp,_Alloc>&
 126:h:/6261A/11CW1352MP_BIRD61A_11C_V33_GPRS_MMI/Tools/MinGW/include/c++/3.3.1/bits/vector.tcc ****     vector<_Tp,_Alloc>::
 127:h:/6261A/11CW1352MP_BIRD61A_11C_V33_GPRS_MMI/Tools/MinGW/include/c++/3.3.1/bits/vector.tcc ****     operator=(const vector<_Tp,_Alloc>& __x)
 128:h:/6261A/11CW1352MP_BIRD61A_11C_V33_GPRS_MMI/Tools/MinGW/include/c++/3.3.1/bits/vector.tcc ****     {
 129:h:/6261A/11CW1352MP_BIRD61A_11C_V33_GPRS_MMI/Tools/MinGW/include/c++/3.3.1/bits/vector.tcc ****       if (&__x != this)
 130:h:/6261A/11CW1352MP_BIRD61A_11C_V33_GPRS_MMI/Tools/MinGW/include/c++/3.3.1/bits/vector.tcc ****       {
 131:h:/6261A/11CW1352MP_BIRD61A_11C_V33_GPRS_MMI/Tools/MinGW/include/c++/3.3.1/bits/vector.tcc ****         const size_type __xlen = __x.size();
 132:h:/6261A/11CW1352MP_BIRD61A_11C_V33_GPRS_MMI/Tools/MinGW/include/c++/3.3.1/bits/vector.tcc ****         if (__xlen > capacity())
 133:h:/6261A/11CW1352MP_BIRD61A_11C_V33_GPRS_MMI/Tools/MinGW/include/c++/3.3.1/bits/vector.tcc ****         {
 134:h:/6261A/11CW1352MP_BIRD61A_11C_V33_GPRS_MMI/Tools/MinGW/include/c++/3.3.1/bits/vector.tcc ****           pointer __tmp = _M_allocate_and_copy(__xlen, __x.begin(), __x.end());
 135:h:/6261A/11CW1352MP_BIRD61A_11C_V33_GPRS_MMI/Tools/MinGW/include/c++/3.3.1/bits/vector.tcc ****           _Destroy(_M_start, _M_finish);
 136:h:/6261A/11CW1352MP_BIRD61A_11C_V33_GPRS_MMI/Tools/MinGW/include/c++/3.3.1/bits/vector.tcc ****           _M_deallocate(_M_start, _M_end_of_storage - _M_start);
 137:h:/6261A/11CW1352MP_BIRD61A_11C_V33_GPRS_MMI/Tools/MinGW/include/c++/3.3.1/bits/vector.tcc ****           _M_start = __tmp;
 138:h:/6261A/11CW1352MP_BIRD61A_11C_V33_GPRS_MMI/Tools/MinGW/include/c++/3.3.1/bits/vector.tcc ****           _M_end_of_storage = _M_start + __xlen;
 139:h:/6261A/11CW1352MP_BIRD61A_11C_V33_GPRS_MMI/Tools/MinGW/include/c++/3.3.1/bits/vector.tcc ****         }
 140:h:/6261A/11CW1352MP_BIRD61A_11C_V33_GPRS_MMI/Tools/MinGW/include/c++/3.3.1/bits/vector.tcc ****         else if (size() >= __xlen)
 141:h:/6261A/11CW1352MP_BIRD61A_11C_V33_GPRS_MMI/Tools/MinGW/include/c++/3.3.1/bits/vector.tcc ****         {
 142:h:/6261A/11CW1352MP_BIRD61A_11C_V33_GPRS_MMI/Tools/MinGW/include/c++/3.3.1/bits/vector.tcc ****           iterator __i(copy(__x.begin(), __x.end(), begin()));
 143:h:/6261A/11CW1352MP_BIRD61A_11C_V33_GPRS_MMI/Tools/MinGW/include/c++/3.3.1/bits/vector.tcc ****           _Destroy(__i, end());
 144:h:/6261A/11CW1352MP_BIRD61A_11C_V33_GPRS_MMI/Tools/MinGW/include/c++/3.3.1/bits/vector.tcc ****         }
 145:h:/6261A/11CW1352MP_BIRD61A_11C_V33_GPRS_MMI/Tools/MinGW/include/c++/3.3.1/bits/vector.tcc ****         else
 146:h:/6261A/11CW1352MP_BIRD61A_11C_V33_GPRS_MMI/Tools/MinGW/include/c++/3.3.1/bits/vector.tcc ****         {
 147:h:/6261A/11CW1352MP_BIRD61A_11C_V33_GPRS_MMI/Tools/MinGW/include/c++/3.3.1/bits/vector.tcc ****           copy(__x.begin(), __x.begin() + size(), _M_start);
 148:h:/6261A/11CW1352MP_BIRD61A_11C_V33_GPRS_MMI/Tools/MinGW/include/c++/3.3.1/bits/vector.tcc ****           uninitialized_copy(__x.begin() + size(), __x.end(), _M_finish);
 149:h:/6261A/11CW1352MP_BIRD61A_11C_V33_GPRS_MMI/Tools/MinGW/include/c++/3.3.1/bits/vector.tcc ****         }
 150:h:/6261A/11CW1352MP_BIRD61A_11C_V33_GPRS_MMI/Tools/MinGW/include/c++/3.3.1/bits/vector.tcc ****         _M_finish = _M_start + __xlen;
 151:h:/6261A/11CW1352MP_BIRD61A_11C_V33_GPRS_MMI/Tools/MinGW/include/c++/3.3.1/bits/vector.tcc ****       }
 152:h:/6261A/11CW1352MP_BIRD61A_11C_V33_GPRS_MMI/Tools/MinGW/include/c++/3.3.1/bits/vector.tcc ****       return *this;
 153:h:/6261A/11CW1352MP_BIRD61A_11C_V33_GPRS_MMI/Tools/MinGW/include/c++/3.3.1/bits/vector.tcc ****     }
 154:h:/6261A/11CW1352MP_BIRD61A_11C_V33_GPRS_MMI/Tools/MinGW/include/c++/3.3.1/bits/vector.tcc ****   
 155:h:/6261A/11CW1352MP_BIRD61A_11C_V33_GPRS_MMI/Tools/MinGW/include/c++/3.3.1/bits/vector.tcc ****   template<typename _Tp, typename _Alloc>
 156:h:/6261A/11CW1352MP_BIRD61A_11C_V33_GPRS_MMI/Tools/MinGW/include/c++/3.3.1/bits/vector.tcc ****     void
 157:h:/6261A/11CW1352MP_BIRD61A_11C_V33_GPRS_MMI/Tools/MinGW/include/c++/3.3.1/bits/vector.tcc ****     vector<_Tp,_Alloc>::
 158:h:/6261A/11CW1352MP_BIRD61A_11C_V33_GPRS_MMI/Tools/MinGW/include/c++/3.3.1/bits/vector.tcc ****     _M_fill_assign(size_t __n, const value_type& __val)
 159:h:/6261A/11CW1352MP_BIRD61A_11C_V33_GPRS_MMI/Tools/MinGW/include/c++/3.3.1/bits/vector.tcc ****     {
 160:h:/6261A/11CW1352MP_BIRD61A_11C_V33_GPRS_MMI/Tools/MinGW/include/c++/3.3.1/bits/vector.tcc ****       if (__n > capacity())
 161:h:/6261A/11CW1352MP_BIRD61A_11C_V33_GPRS_MMI/Tools/MinGW/include/c++/3.3.1/bits/vector.tcc ****       {
 162:h:/6261A/11CW1352MP_BIRD61A_11C_V33_GPRS_MMI/Tools/MinGW/include/c++/3.3.1/bits/vector.tcc ****         vector __tmp(__n, __val, get_allocator());
 163:h:/6261A/11CW1352MP_BIRD61A_11C_V33_GPRS_MMI/Tools/MinGW/include/c++/3.3.1/bits/vector.tcc ****         __tmp.swap(*this);
GAS LISTING h:/6261A/11CW1352MP_BIRD61A_11C_V33_GPRS_MMI/plutommi/Customer/ResGenerator/gcctmp/ccEHcaaa.s 			page 124


 164:h:/6261A/11CW1352MP_BIRD61A_11C_V33_GPRS_MMI/Tools/MinGW/include/c++/3.3.1/bits/vector.tcc ****       }
 165:h:/6261A/11CW1352MP_BIRD61A_11C_V33_GPRS_MMI/Tools/MinGW/include/c++/3.3.1/bits/vector.tcc ****       else if (__n > size())
 166:h:/6261A/11CW1352MP_BIRD61A_11C_V33_GPRS_MMI/Tools/MinGW/include/c++/3.3.1/bits/vector.tcc ****       {
 167:h:/6261A/11CW1352MP_BIRD61A_11C_V33_GPRS_MMI/Tools/MinGW/include/c++/3.3.1/bits/vector.tcc ****         fill(begin(), end(), __val);
 168:h:/6261A/11CW1352MP_BIRD61A_11C_V33_GPRS_MMI/Tools/MinGW/include/c++/3.3.1/bits/vector.tcc ****         _M_finish = uninitialized_fill_n(_M_finish, __n - size(), __val);
 169:h:/6261A/11CW1352MP_BIRD61A_11C_V33_GPRS_MMI/Tools/MinGW/include/c++/3.3.1/bits/vector.tcc ****       }
 170:h:/6261A/11CW1352MP_BIRD61A_11C_V33_GPRS_MMI/Tools/MinGW/include/c++/3.3.1/bits/vector.tcc ****       else
 171:h:/6261A/11CW1352MP_BIRD61A_11C_V33_GPRS_MMI/Tools/MinGW/include/c++/3.3.1/bits/vector.tcc ****         erase(fill_n(begin(), __n, __val), end());
 172:h:/6261A/11CW1352MP_BIRD61A_11C_V33_GPRS_MMI/Tools/MinGW/include/c++/3.3.1/bits/vector.tcc ****     }
 173:h:/6261A/11CW1352MP_BIRD61A_11C_V33_GPRS_MMI/Tools/MinGW/include/c++/3.3.1/bits/vector.tcc ****   
 174:h:/6261A/11CW1352MP_BIRD61A_11C_V33_GPRS_MMI/Tools/MinGW/include/c++/3.3.1/bits/vector.tcc ****   template<typename _Tp, typename _Alloc> template<typename _InputIter>
 175:h:/6261A/11CW1352MP_BIRD61A_11C_V33_GPRS_MMI/Tools/MinGW/include/c++/3.3.1/bits/vector.tcc ****     void
 176:h:/6261A/11CW1352MP_BIRD61A_11C_V33_GPRS_MMI/Tools/MinGW/include/c++/3.3.1/bits/vector.tcc ****     vector<_Tp,_Alloc>::
 177:h:/6261A/11CW1352MP_BIRD61A_11C_V33_GPRS_MMI/Tools/MinGW/include/c++/3.3.1/bits/vector.tcc ****     _M_assign_aux(_InputIter __first, _InputIter __last, input_iterator_tag)
 178:h:/6261A/11CW1352MP_BIRD61A_11C_V33_GPRS_MMI/Tools/MinGW/include/c++/3.3.1/bits/vector.tcc ****     {
 179:h:/6261A/11CW1352MP_BIRD61A_11C_V33_GPRS_MMI/Tools/MinGW/include/c++/3.3.1/bits/vector.tcc ****       iterator __cur(begin());
 180:h:/6261A/11CW1352MP_BIRD61A_11C_V33_GPRS_MMI/Tools/MinGW/include/c++/3.3.1/bits/vector.tcc ****       for ( ; __first != __last && __cur != end(); ++__cur, ++__first)
 181:h:/6261A/11CW1352MP_BIRD61A_11C_V33_GPRS_MMI/Tools/MinGW/include/c++/3.3.1/bits/vector.tcc ****         *__cur = *__first;
 182:h:/6261A/11CW1352MP_BIRD61A_11C_V33_GPRS_MMI/Tools/MinGW/include/c++/3.3.1/bits/vector.tcc ****       if (__first == __last)
 183:h:/6261A/11CW1352MP_BIRD61A_11C_V33_GPRS_MMI/Tools/MinGW/include/c++/3.3.1/bits/vector.tcc ****         erase(__cur, end());
 184:h:/6261A/11CW1352MP_BIRD61A_11C_V33_GPRS_MMI/Tools/MinGW/include/c++/3.3.1/bits/vector.tcc ****       else
 185:h:/6261A/11CW1352MP_BIRD61A_11C_V33_GPRS_MMI/Tools/MinGW/include/c++/3.3.1/bits/vector.tcc ****         insert(end(), __first, __last);
 186:h:/6261A/11CW1352MP_BIRD61A_11C_V33_GPRS_MMI/Tools/MinGW/include/c++/3.3.1/bits/vector.tcc ****     }
 187:h:/6261A/11CW1352MP_BIRD61A_11C_V33_GPRS_MMI/Tools/MinGW/include/c++/3.3.1/bits/vector.tcc ****   
 188:h:/6261A/11CW1352MP_BIRD61A_11C_V33_GPRS_MMI/Tools/MinGW/include/c++/3.3.1/bits/vector.tcc ****   template<typename _Tp, typename _Alloc> template<typename _ForwardIter>
 189:h:/6261A/11CW1352MP_BIRD61A_11C_V33_GPRS_MMI/Tools/MinGW/include/c++/3.3.1/bits/vector.tcc ****     void
 190:h:/6261A/11CW1352MP_BIRD61A_11C_V33_GPRS_MMI/Tools/MinGW/include/c++/3.3.1/bits/vector.tcc ****     vector<_Tp,_Alloc>::
 191:h:/6261A/11CW1352MP_BIRD61A_11C_V33_GPRS_MMI/Tools/MinGW/include/c++/3.3.1/bits/vector.tcc ****     _M_assign_aux(_ForwardIter __first, _ForwardIter __last,
 192:h:/6261A/11CW1352MP_BIRD61A_11C_V33_GPRS_MMI/Tools/MinGW/include/c++/3.3.1/bits/vector.tcc ****                   forward_iterator_tag)
 193:h:/6261A/11CW1352MP_BIRD61A_11C_V33_GPRS_MMI/Tools/MinGW/include/c++/3.3.1/bits/vector.tcc ****     {
 194:h:/6261A/11CW1352MP_BIRD61A_11C_V33_GPRS_MMI/Tools/MinGW/include/c++/3.3.1/bits/vector.tcc ****       size_type __len = distance(__first, __last);
 195:h:/6261A/11CW1352MP_BIRD61A_11C_V33_GPRS_MMI/Tools/MinGW/include/c++/3.3.1/bits/vector.tcc ****   
 196:h:/6261A/11CW1352MP_BIRD61A_11C_V33_GPRS_MMI/Tools/MinGW/include/c++/3.3.1/bits/vector.tcc ****       if (__len > capacity())
 197:h:/6261A/11CW1352MP_BIRD61A_11C_V33_GPRS_MMI/Tools/MinGW/include/c++/3.3.1/bits/vector.tcc ****       {
 198:h:/6261A/11CW1352MP_BIRD61A_11C_V33_GPRS_MMI/Tools/MinGW/include/c++/3.3.1/bits/vector.tcc ****         pointer __tmp(_M_allocate_and_copy(__len, __first, __last));
 199:h:/6261A/11CW1352MP_BIRD61A_11C_V33_GPRS_MMI/Tools/MinGW/include/c++/3.3.1/bits/vector.tcc ****         _Destroy(_M_start, _M_finish);
 200:h:/6261A/11CW1352MP_BIRD61A_11C_V33_GPRS_MMI/Tools/MinGW/include/c++/3.3.1/bits/vector.tcc ****         _M_deallocate(_M_start, _M_end_of_storage - _M_start);
 201:h:/6261A/11CW1352MP_BIRD61A_11C_V33_GPRS_MMI/Tools/MinGW/include/c++/3.3.1/bits/vector.tcc ****         _M_start = __tmp;
 202:h:/6261A/11CW1352MP_BIRD61A_11C_V33_GPRS_MMI/Tools/MinGW/include/c++/3.3.1/bits/vector.tcc ****         _M_end_of_storage = _M_finish = _M_start + __len;
 203:h:/6261A/11CW1352MP_BIRD61A_11C_V33_GPRS_MMI/Tools/MinGW/include/c++/3.3.1/bits/vector.tcc ****       }
 204:h:/6261A/11CW1352MP_BIRD61A_11C_V33_GPRS_MMI/Tools/MinGW/include/c++/3.3.1/bits/vector.tcc ****       else if (size() >= __len)
 205:h:/6261A/11CW1352MP_BIRD61A_11C_V33_GPRS_MMI/Tools/MinGW/include/c++/3.3.1/bits/vector.tcc ****       {
 206:h:/6261A/11CW1352MP_BIRD61A_11C_V33_GPRS_MMI/Tools/MinGW/include/c++/3.3.1/bits/vector.tcc ****         iterator __new_finish(copy(__first, __last, _M_start));
 207:h:/6261A/11CW1352MP_BIRD61A_11C_V33_GPRS_MMI/Tools/MinGW/include/c++/3.3.1/bits/vector.tcc ****         _Destroy(__new_finish, end());
 208:h:/6261A/11CW1352MP_BIRD61A_11C_V33_GPRS_MMI/Tools/MinGW/include/c++/3.3.1/bits/vector.tcc ****         _M_finish = __new_finish.base();
 209:h:/6261A/11CW1352MP_BIRD61A_11C_V33_GPRS_MMI/Tools/MinGW/include/c++/3.3.1/bits/vector.tcc ****       }
 210:h:/6261A/11CW1352MP_BIRD61A_11C_V33_GPRS_MMI/Tools/MinGW/include/c++/3.3.1/bits/vector.tcc ****       else
 211:h:/6261A/11CW1352MP_BIRD61A_11C_V33_GPRS_MMI/Tools/MinGW/include/c++/3.3.1/bits/vector.tcc ****       {
 212:h:/6261A/11CW1352MP_BIRD61A_11C_V33_GPRS_MMI/Tools/MinGW/include/c++/3.3.1/bits/vector.tcc ****         _ForwardIter __mid = __first;
 213:h:/6261A/11CW1352MP_BIRD61A_11C_V33_GPRS_MMI/Tools/MinGW/include/c++/3.3.1/bits/vector.tcc ****         advance(__mid, size());
 214:h:/6261A/11CW1352MP_BIRD61A_11C_V33_GPRS_MMI/Tools/MinGW/include/c++/3.3.1/bits/vector.tcc ****         copy(__first, __mid, _M_start);
 215:h:/6261A/11CW1352MP_BIRD61A_11C_V33_GPRS_MMI/Tools/MinGW/include/c++/3.3.1/bits/vector.tcc ****         _M_finish = uninitialized_copy(__mid, __last, _M_finish);
 216:h:/6261A/11CW1352MP_BIRD61A_11C_V33_GPRS_MMI/Tools/MinGW/include/c++/3.3.1/bits/vector.tcc ****       }
 217:h:/6261A/11CW1352MP_BIRD61A_11C_V33_GPRS_MMI/Tools/MinGW/include/c++/3.3.1/bits/vector.tcc ****     }
 218:h:/6261A/11CW1352MP_BIRD61A_11C_V33_GPRS_MMI/Tools/MinGW/include/c++/3.3.1/bits/vector.tcc ****   
 219:h:/6261A/11CW1352MP_BIRD61A_11C_V33_GPRS_MMI/Tools/MinGW/include/c++/3.3.1/bits/vector.tcc ****   template<typename _Tp, typename _Alloc>
 220:h:/6261A/11CW1352MP_BIRD61A_11C_V33_GPRS_MMI/Tools/MinGW/include/c++/3.3.1/bits/vector.tcc ****     void
GAS LISTING h:/6261A/11CW1352MP_BIRD61A_11C_V33_GPRS_MMI/plutommi/Customer/ResGenerator/gcctmp/ccEHcaaa.s 			page 125


 221:h:/6261A/11CW1352MP_BIRD61A_11C_V33_GPRS_MMI/Tools/MinGW/include/c++/3.3.1/bits/vector.tcc ****     vector<_Tp,_Alloc>::
 222:h:/6261A/11CW1352MP_BIRD61A_11C_V33_GPRS_MMI/Tools/MinGW/include/c++/3.3.1/bits/vector.tcc ****     _M_insert_aux(iterator __position, const _Tp& __x)
 223:h:/6261A/11CW1352MP_BIRD61A_11C_V33_GPRS_MMI/Tools/MinGW/include/c++/3.3.1/bits/vector.tcc ****     {
 7638              	LM265:
 7639 0000 55       		pushl	%ebp
 7640 0001 89E5     		movl	%esp, %ebp
 7641 0003 57       		pushl	%edi
 7642 0004 56       		pushl	%esi
 7643 0005 53       		pushl	%ebx
 7644 0006 81ECAC00 		subl	$172, %esp
 7644      0000
 7645 000c C7458800 		movl	$___gxx_personality_sj0, -120(%ebp)
 7645      000000
 7646 0013 C7458C34 		movl	$LLSDA818, -116(%ebp)
 7646      000000
 7647 001a 8D4590   		leal	-112(%ebp), %eax
 7648 001d 8D55E8   		leal	-24(%ebp), %edx
 7649 0020 8910     		movl	%edx, (%eax)
 7650 0022 BA5D0200 		movl	$L257, %edx
 7650      00
 7651 0027 895004   		movl	%edx, 4(%eax)
 7652 002a 896008   		movl	%esp, 8(%eax)
 7653 002d 8D8570FF 		leal	-144(%ebp), %eax
 7653      FFFF
 7654 0033 890424   		movl	%eax, (%esp)
 7655 0036 E8000000 		call	__Unwind_SjLj_Register
 7655      00
 224:h:/6261A/11CW1352MP_BIRD61A_11C_V33_GPRS_MMI/Tools/MinGW/include/c++/3.3.1/bits/vector.tcc ****       if (_M_finish != _M_end_of_storage)
 7657              	LM266:
 7658              	LBB74:
 7659              	LBB75:
 7660 003b 8B4508   		movl	8(%ebp), %eax
 7661 003e 8B5508   		movl	8(%ebp), %edx
 7662 0041 8B4004   		movl	4(%eax), %eax
 7663 0044 3B4208   		cmpl	8(%edx), %eax
 7664 0047 0F84AE00 		je	L246
 7664      0000
 225:h:/6261A/11CW1352MP_BIRD61A_11C_V33_GPRS_MMI/Tools/MinGW/include/c++/3.3.1/bits/vector.tcc ****       {
 226:h:/6261A/11CW1352MP_BIRD61A_11C_V33_GPRS_MMI/Tools/MinGW/include/c++/3.3.1/bits/vector.tcc ****         _Construct(_M_finish, *(_M_finish - 1));
 7666              	LM267:
 7667              	LBB76:
 7668 004d 8B4508   		movl	8(%ebp), %eax
 7669 0050 8B4004   		movl	4(%eax), %eax
 7670 0053 83E80C   		subl	$12, %eax
 7671 0056 89442404 		movl	%eax, 4(%esp)
 7672 005a 8B4508   		movl	8(%ebp), %eax
 7673 005d 8B4004   		movl	4(%eax), %eax
 7674 0060 890424   		movl	%eax, (%esp)
 7675 0063 E8000000 		call	__ZSt10_ConstructIN10ThreadPool10ThreadDataES1_EvPT_RKT0_
 7675      00
 227:h:/6261A/11CW1352MP_BIRD61A_11C_V33_GPRS_MMI/Tools/MinGW/include/c++/3.3.1/bits/vector.tcc ****         ++_M_finish;
 7677              	LM268:
 7678 0068 8B4508   		movl	8(%ebp), %eax
 7679 006b 8340040C 		addl	$12, 4(%eax)
 228:h:/6261A/11CW1352MP_BIRD61A_11C_V33_GPRS_MMI/Tools/MinGW/include/c++/3.3.1/bits/vector.tcc ****         _Tp __x_copy = __x;
 7681              	LM269:
 7682 006f 8B5510   		movl	16(%ebp), %edx
GAS LISTING h:/6261A/11CW1352MP_BIRD61A_11C_V33_GPRS_MMI/plutommi/Customer/ResGenerator/gcctmp/ccEHcaaa.s 			page 126


 7683 0072 8B02     		movl	(%edx), %eax
 7684 0074 8945D8   		movl	%eax, -40(%ebp)
 7685 0077 8B4204   		movl	4(%edx), %eax
 7686 007a 8945DC   		movl	%eax, -36(%ebp)
 7687 007d 8B4208   		movl	8(%edx), %eax
 7688 0080 8945E0   		movl	%eax, -32(%ebp)
 229:h:/6261A/11CW1352MP_BIRD61A_11C_V33_GPRS_MMI/Tools/MinGW/include/c++/3.3.1/bits/vector.tcc ****         copy_backward(__position, iterator(_M_finish-2), iterator(_M_finish-1));
 7690              	LM270:
 7691 0083 8B4508   		movl	8(%ebp), %eax
 7692 0086 8B4004   		movl	4(%eax), %eax
 7693 0089 83E80C   		subl	$12, %eax
 7694 008c 8945D0   		movl	%eax, -48(%ebp)
 7695 008f 8D45D0   		leal	-48(%ebp), %eax
 7696 0092 89442404 		movl	%eax, 4(%esp)
 7697 0096 8D45D4   		leal	-44(%ebp), %eax
 7698 0099 890424   		movl	%eax, (%esp)
 7699 009c E8000000 		call	__ZN9__gnu_cxx17__normal_iteratorIPN10ThreadPool10ThreadDataESt6vectorIS2_SaIS2_EEEC1ERKS3_
 7699      00
 7700 00a1 8B4508   		movl	8(%ebp), %eax
 7701 00a4 8B4004   		movl	4(%eax), %eax
 7702 00a7 83E818   		subl	$24, %eax
 7703 00aa 8945C8   		movl	%eax, -56(%ebp)
 7704 00ad 8D45C8   		leal	-56(%ebp), %eax
 7705 00b0 89442404 		movl	%eax, 4(%esp)
 7706 00b4 8D45CC   		leal	-52(%ebp), %eax
 7707 00b7 890424   		movl	%eax, (%esp)
 7708 00ba E8000000 		call	__ZN9__gnu_cxx17__normal_iteratorIPN10ThreadPool10ThreadDataESt6vectorIS2_SaIS2_EEEC1ERKS3_
 7708      00
 7709 00bf 8B45D4   		movl	-44(%ebp), %eax
 7710 00c2 89442408 		movl	%eax, 8(%esp)
 7711 00c6 8B45CC   		movl	-52(%ebp), %eax
 7712 00c9 89442404 		movl	%eax, 4(%esp)
 7713 00cd 8B450C   		movl	12(%ebp), %eax
 7714 00d0 890424   		movl	%eax, (%esp)
 7715 00d3 E8000000 		call	__ZSt13copy_backwardIN9__gnu_cxx17__normal_iteratorIPN10ThreadPool10ThreadDataESt6vectorIS3_S
 7715      00
 230:h:/6261A/11CW1352MP_BIRD61A_11C_V33_GPRS_MMI/Tools/MinGW/include/c++/3.3.1/bits/vector.tcc ****         *__position = __x_copy;
 7717              	LM271:
 7718 00d8 8D450C   		leal	12(%ebp), %eax
 7719 00db 890424   		movl	%eax, (%esp)
 7720 00de E8000000 		call	__ZNK9__gnu_cxx17__normal_iteratorIPN10ThreadPool10ThreadDataESt6vectorIS2_SaIS2_EEEdeEv
 7720      00
 7721 00e3 89C2     		movl	%eax, %edx
 7722 00e5 8B45D8   		movl	-40(%ebp), %eax
 7723 00e8 8902     		movl	%eax, (%edx)
 7724 00ea 8B45DC   		movl	-36(%ebp), %eax
 7725 00ed 894204   		movl	%eax, 4(%edx)
 7726 00f0 8B45E0   		movl	-32(%ebp), %eax
 7727 00f3 894208   		movl	%eax, 8(%edx)
 7728              	LBE76:
 7729 00f6 E98B0200 		jmp	L245
 7729      00
 7730              	L246:
 231:h:/6261A/11CW1352MP_BIRD61A_11C_V33_GPRS_MMI/Tools/MinGW/include/c++/3.3.1/bits/vector.tcc ****       }
 232:h:/6261A/11CW1352MP_BIRD61A_11C_V33_GPRS_MMI/Tools/MinGW/include/c++/3.3.1/bits/vector.tcc ****       else
 233:h:/6261A/11CW1352MP_BIRD61A_11C_V33_GPRS_MMI/Tools/MinGW/include/c++/3.3.1/bits/vector.tcc ****       {
 234:h:/6261A/11CW1352MP_BIRD61A_11C_V33_GPRS_MMI/Tools/MinGW/include/c++/3.3.1/bits/vector.tcc ****         const size_type __old_size = size();
GAS LISTING h:/6261A/11CW1352MP_BIRD61A_11C_V33_GPRS_MMI/plutommi/Customer/ResGenerator/gcctmp/ccEHcaaa.s 			page 127


 7732              	LM272:
 7733              	LBB77:
 7734 00fb 8B4508   		movl	8(%ebp), %eax
 7735 00fe 890424   		movl	%eax, (%esp)
 7736 0101 E8000000 		call	__ZNKSt6vectorIN10ThreadPool10ThreadDataESaIS1_EE4sizeEv
 7736      00
 7737 0106 8945C4   		movl	%eax, -60(%ebp)
 235:h:/6261A/11CW1352MP_BIRD61A_11C_V33_GPRS_MMI/Tools/MinGW/include/c++/3.3.1/bits/vector.tcc ****         const size_type __len = __old_size != 0 ? 2 * __old_size : 1;
 7739              	LM273:
 7740 0109 837DC400 		cmpl	$0, -60(%ebp)
 7741 010d 740D     		je	L248
 7742 010f 8B45C4   		movl	-60(%ebp), %eax
 7743 0112 01C0     		addl	%eax, %eax
 7744 0114 89856CFF 		movl	%eax, -148(%ebp)
 7744      FFFF
 7745 011a EB0A     		jmp	L249
 7746              	L248:
 7747 011c C7856CFF 		movl	$1, -148(%ebp)
 7747      FFFF0100 
 7747      0000
 7748              	L249:
 7749 0126 8B856CFF 		movl	-148(%ebp), %eax
 7749      FFFF
 7750 012c 8945C0   		movl	%eax, -64(%ebp)
 236:h:/6261A/11CW1352MP_BIRD61A_11C_V33_GPRS_MMI/Tools/MinGW/include/c++/3.3.1/bits/vector.tcc ****         iterator __new_start(_M_allocate(__len));
 7752              	LM274:
 7753 012f 8B45C0   		movl	-64(%ebp), %eax
 7754 0132 89442404 		movl	%eax, 4(%esp)
 7755 0136 8B4508   		movl	8(%ebp), %eax
 7756 0139 890424   		movl	%eax, (%esp)
 7757 013c C78574FF 		movl	$-1, -140(%ebp)
 7757      FFFFFFFF 
 7757      FFFF
 7758 0146 E8000000 		call	__ZNSt18_Vector_alloc_baseIN10ThreadPool10ThreadDataESaIS1_ELb1EE11_M_allocateEj
 7758      00
 7759 014b 8945B8   		movl	%eax, -72(%ebp)
 7760 014e 8D45B8   		leal	-72(%ebp), %eax
 7761 0151 89442404 		movl	%eax, 4(%esp)
 7762 0155 8D45BC   		leal	-68(%ebp), %eax
 7763 0158 890424   		movl	%eax, (%esp)
 7764 015b E8000000 		call	__ZN9__gnu_cxx17__normal_iteratorIPN10ThreadPool10ThreadDataESt6vectorIS2_SaIS2_EEEC1ERKS3_
 7764      00
 237:h:/6261A/11CW1352MP_BIRD61A_11C_V33_GPRS_MMI/Tools/MinGW/include/c++/3.3.1/bits/vector.tcc ****         iterator __new_finish(__new_start);
 7766              	LM275:
 7767 0160 8B45BC   		movl	-68(%ebp), %eax
 7768 0163 8945B4   		movl	%eax, -76(%ebp)
 238:h:/6261A/11CW1352MP_BIRD61A_11C_V33_GPRS_MMI/Tools/MinGW/include/c++/3.3.1/bits/vector.tcc ****         try
 239:h:/6261A/11CW1352MP_BIRD61A_11C_V33_GPRS_MMI/Tools/MinGW/include/c++/3.3.1/bits/vector.tcc ****           {
 240:h:/6261A/11CW1352MP_BIRD61A_11C_V33_GPRS_MMI/Tools/MinGW/include/c++/3.3.1/bits/vector.tcc ****             __new_finish = uninitialized_copy(iterator(_M_start), __position,
 7770              	LM276:
 7771 0166 8B4508   		movl	8(%ebp), %eax
 7772 0169 89442404 		movl	%eax, 4(%esp)
 7773 016d 8D45AC   		leal	-84(%ebp), %eax
 7774 0170 890424   		movl	%eax, (%esp)
 7775 0173 E8000000 		call	__ZN9__gnu_cxx17__normal_iteratorIPN10ThreadPool10ThreadDataESt6vectorIS2_SaIS2_EEEC1ERKS3_
 7775      00
 7776 0178 8B45BC   		movl	-68(%ebp), %eax
GAS LISTING h:/6261A/11CW1352MP_BIRD61A_11C_V33_GPRS_MMI/plutommi/Customer/ResGenerator/gcctmp/ccEHcaaa.s 			page 128


 7777 017b 89442408 		movl	%eax, 8(%esp)
 7778 017f 8B450C   		movl	12(%ebp), %eax
 7779 0182 89442404 		movl	%eax, 4(%esp)
 7780 0186 8B45AC   		movl	-84(%ebp), %eax
 7781 0189 890424   		movl	%eax, (%esp)
 7782 018c C78574FF 		movl	$2, -140(%ebp)
 7782      FFFF0200 
 7782      0000
 7783 0196 E8000000 		call	__ZSt18uninitialized_copyIN9__gnu_cxx17__normal_iteratorIPN10ThreadPool10ThreadDataESt6vector
 7783      00
 7784 019b 8945B0   		movl	%eax, -80(%ebp)
 7785 019e 8B45B0   		movl	-80(%ebp), %eax
 7786 01a1 8945B4   		movl	%eax, -76(%ebp)
 241:h:/6261A/11CW1352MP_BIRD61A_11C_V33_GPRS_MMI/Tools/MinGW/include/c++/3.3.1/bits/vector.tcc ****                                               __new_start);
 242:h:/6261A/11CW1352MP_BIRD61A_11C_V33_GPRS_MMI/Tools/MinGW/include/c++/3.3.1/bits/vector.tcc ****             _Construct(__new_finish.base(), __x);
 7788              	LM277:
 7789 01a4 8D45B4   		leal	-76(%ebp), %eax
 7790 01a7 890424   		movl	%eax, (%esp)
 7791 01aa E8000000 		call	__ZNK9__gnu_cxx17__normal_iteratorIPN10ThreadPool10ThreadDataESt6vectorIS2_SaIS2_EEE4baseEv
 7791      00
 7792 01af 89C2     		movl	%eax, %edx
 7793 01b1 8B4510   		movl	16(%ebp), %eax
 7794 01b4 89442404 		movl	%eax, 4(%esp)
 7795 01b8 8B02     		movl	(%edx), %eax
 7796 01ba 890424   		movl	%eax, (%esp)
 7797 01bd E8000000 		call	__ZSt10_ConstructIN10ThreadPool10ThreadDataES1_EvPT_RKT0_
 7797      00
 243:h:/6261A/11CW1352MP_BIRD61A_11C_V33_GPRS_MMI/Tools/MinGW/include/c++/3.3.1/bits/vector.tcc ****             ++__new_finish;
 7799              	LM278:
 7800 01c2 8D45B4   		leal	-76(%ebp), %eax
 7801 01c5 890424   		movl	%eax, (%esp)
 7802 01c8 E8000000 		call	__ZN9__gnu_cxx17__normal_iteratorIPN10ThreadPool10ThreadDataESt6vectorIS2_SaIS2_EEEppEv
 7802      00
 244:h:/6261A/11CW1352MP_BIRD61A_11C_V33_GPRS_MMI/Tools/MinGW/include/c++/3.3.1/bits/vector.tcc ****             __new_finish = uninitialized_copy(__position, iterator(_M_finish),
 7804              	LM279:
 7805 01cd 8B4508   		movl	8(%ebp), %eax
 7806 01d0 83C004   		addl	$4, %eax
 7807 01d3 89442404 		movl	%eax, 4(%esp)
 7808 01d7 8D45A4   		leal	-92(%ebp), %eax
 7809 01da 890424   		movl	%eax, (%esp)
 7810 01dd E8000000 		call	__ZN9__gnu_cxx17__normal_iteratorIPN10ThreadPool10ThreadDataESt6vectorIS2_SaIS2_EEEC1ERKS3_
 7810      00
 7811 01e2 8B45B4   		movl	-76(%ebp), %eax
 7812 01e5 89442408 		movl	%eax, 8(%esp)
 7813 01e9 8B45A4   		movl	-92(%ebp), %eax
 7814 01ec 89442404 		movl	%eax, 4(%esp)
 7815 01f0 8B450C   		movl	12(%ebp), %eax
 7816 01f3 890424   		movl	%eax, (%esp)
 7817 01f6 E8000000 		call	__ZSt18uninitialized_copyIN9__gnu_cxx17__normal_iteratorIPN10ThreadPool10ThreadDataESt6vector
 7817      00
 7818 01fb 8945A8   		movl	%eax, -88(%ebp)
 7819 01fe 8B45A8   		movl	-88(%ebp), %eax
 7820 0201 8945B4   		movl	%eax, -76(%ebp)
 7821 0204 E9AD0000 		jmp	L250
 7821      00
 245:h:/6261A/11CW1352MP_BIRD61A_11C_V33_GPRS_MMI/Tools/MinGW/include/c++/3.3.1/bits/vector.tcc ****                                               __new_finish);
 246:h:/6261A/11CW1352MP_BIRD61A_11C_V33_GPRS_MMI/Tools/MinGW/include/c++/3.3.1/bits/vector.tcc ****           }
GAS LISTING h:/6261A/11CW1352MP_BIRD61A_11C_V33_GPRS_MMI/plutommi/Customer/ResGenerator/gcctmp/ccEHcaaa.s 			page 129


 247:h:/6261A/11CW1352MP_BIRD61A_11C_V33_GPRS_MMI/Tools/MinGW/include/c++/3.3.1/bits/vector.tcc ****         catch(...)
 7823              	LM280:
 7824              	L256:
 7825              	L251:
 7826 0209 8B9568FF 		movl	-152(%ebp), %edx
 7826      FFFF
 7827 020f 891424   		movl	%edx, (%esp)
 7828 0212 E8000000 		call	___cxa_begin_catch
 7828      00
 248:h:/6261A/11CW1352MP_BIRD61A_11C_V33_GPRS_MMI/Tools/MinGW/include/c++/3.3.1/bits/vector.tcc ****           {
 249:h:/6261A/11CW1352MP_BIRD61A_11C_V33_GPRS_MMI/Tools/MinGW/include/c++/3.3.1/bits/vector.tcc ****             _Destroy(__new_start,__new_finish);
 7830              	LM281:
 7831 0217 8B45B4   		movl	-76(%ebp), %eax
 7832 021a 89442404 		movl	%eax, 4(%esp)
 7833 021e 8B45BC   		movl	-68(%ebp), %eax
 7834 0221 890424   		movl	%eax, (%esp)
 7835 0224 E8000000 		call	__ZSt8_DestroyIN9__gnu_cxx17__normal_iteratorIPN10ThreadPool10ThreadDataESt6vectorIS3_SaIS3_E
 7835      00
 250:h:/6261A/11CW1352MP_BIRD61A_11C_V33_GPRS_MMI/Tools/MinGW/include/c++/3.3.1/bits/vector.tcc ****             _M_deallocate(__new_start.base(),__len);
 7837              	LM282:
 7838 0229 8D45BC   		leal	-68(%ebp), %eax
 7839 022c 890424   		movl	%eax, (%esp)
 7840 022f E8000000 		call	__ZNK9__gnu_cxx17__normal_iteratorIPN10ThreadPool10ThreadDataESt6vectorIS2_SaIS2_EEE4baseEv
 7840      00
 7841 0234 89C2     		movl	%eax, %edx
 7842 0236 8B45C0   		movl	-64(%ebp), %eax
 7843 0239 89442408 		movl	%eax, 8(%esp)
 7844 023d 8B02     		movl	(%edx), %eax
 7845 023f 89442404 		movl	%eax, 4(%esp)
 7846 0243 8B4508   		movl	8(%ebp), %eax
 7847 0246 890424   		movl	%eax, (%esp)
 7848 0249 C78574FF 		movl	$1, -140(%ebp)
 7848      FFFF0100 
 7848      0000
 7849 0253 E8000000 		call	__ZNSt18_Vector_alloc_baseIN10ThreadPool10ThreadDataESaIS1_ELb1EE13_M_deallocateEPS1_j
 7849      00
 251:h:/6261A/11CW1352MP_BIRD61A_11C_V33_GPRS_MMI/Tools/MinGW/include/c++/3.3.1/bits/vector.tcc ****             __throw_exception_again;
 7851              	LM283:
 7852 0258 E8000000 		call	___cxa_rethrow
 7852      00
 7853              	L257:
 7854 025d 8D6D18   		leal	24(%ebp), %ebp
 7855 0260 8B8574FF 		movl	-140(%ebp), %eax
 7855      FFFF
 7856 0266 8B9578FF 		movl	-136(%ebp), %edx
 7856      FFFF
 7857 026c 899568FF 		movl	%edx, -152(%ebp)
 7857      FFFF
 7858 0272 83F801   		cmpl	$1, %eax
 7859 0275 7492     		je	L256
 7860              	L252:
 7861 0277 8B8568FF 		movl	-152(%ebp), %eax
 7861      FFFF
 7862 027d 898564FF 		movl	%eax, -156(%ebp)
 7862      FFFF
 7863 0283 C78574FF 		movl	$0, -140(%ebp)
 7863      FFFF0000 
GAS LISTING h:/6261A/11CW1352MP_BIRD61A_11C_V33_GPRS_MMI/plutommi/Customer/ResGenerator/gcctmp/ccEHcaaa.s 			page 130


 7863      0000
 7864 028d E8000000 		call	___cxa_end_catch
 7864      00
 7865 0292 8B9564FF 		movl	-156(%ebp), %edx
 7865      FFFF
 7866 0298 899568FF 		movl	%edx, -152(%ebp)
 7866      FFFF
 7867              	L254:
 7868 029e 8B8568FF 		movl	-152(%ebp), %eax
 7868      FFFF
 7869 02a4 890424   		movl	%eax, (%esp)
 7870 02a7 C78574FF 		movl	$-1, -140(%ebp)
 7870      FFFFFFFF 
 7870      FFFF
 7871 02b1 E8000000 		call	__Unwind_SjLj_Resume
 7871      00
 7872              	L250:
 252:h:/6261A/11CW1352MP_BIRD61A_11C_V33_GPRS_MMI/Tools/MinGW/include/c++/3.3.1/bits/vector.tcc ****           }
 253:h:/6261A/11CW1352MP_BIRD61A_11C_V33_GPRS_MMI/Tools/MinGW/include/c++/3.3.1/bits/vector.tcc ****         _Destroy(begin(), end());
 7874              	LM284:
 7875 02b6 8B4508   		movl	8(%ebp), %eax
 7876 02b9 890424   		movl	%eax, (%esp)
 7877 02bc E8000000 		call	__ZNSt6vectorIN10ThreadPool10ThreadDataESaIS1_EE3endEv
 7877      00
 7878 02c1 8945A0   		movl	%eax, -96(%ebp)
 7879 02c4 8B4508   		movl	8(%ebp), %eax
 7880 02c7 890424   		movl	%eax, (%esp)
 7881 02ca E8000000 		call	__ZNSt6vectorIN10ThreadPool10ThreadDataESaIS1_EE5beginEv
 7881      00
 7882 02cf 89459C   		movl	%eax, -100(%ebp)
 7883 02d2 8B45A0   		movl	-96(%ebp), %eax
 7884 02d5 89442404 		movl	%eax, 4(%esp)
 7885 02d9 8B459C   		movl	-100(%ebp), %eax
 7886 02dc 890424   		movl	%eax, (%esp)
 7887 02df E8000000 		call	__ZSt8_DestroyIN9__gnu_cxx17__normal_iteratorIPN10ThreadPool10ThreadDataESt6vectorIS3_SaIS3_E
 7887      00
 254:h:/6261A/11CW1352MP_BIRD61A_11C_V33_GPRS_MMI/Tools/MinGW/include/c++/3.3.1/bits/vector.tcc ****         _M_deallocate(_M_start, _M_end_of_storage - _M_start);
 7889              	LM285:
 7890 02e4 8B4D08   		movl	8(%ebp), %ecx
 7891 02e7 8B4508   		movl	8(%ebp), %eax
 7892 02ea 8B10     		movl	(%eax), %edx
 7893 02ec 8B4108   		movl	8(%ecx), %eax
 7894 02ef 29D0     		subl	%edx, %eax
 7895 02f1 C1F802   		sarl	$2, %eax
 7896 02f4 69C0ABAA 		imull	$-1431655765, %eax, %eax
 7896      AAAA
 7897 02fa 89442408 		movl	%eax, 8(%esp)
 7898 02fe 8B4508   		movl	8(%ebp), %eax
 7899 0301 8B00     		movl	(%eax), %eax
 7900 0303 89442404 		movl	%eax, 4(%esp)
 7901 0307 8B4508   		movl	8(%ebp), %eax
 7902 030a 890424   		movl	%eax, (%esp)
 7903 030d C78574FF 		movl	$-1, -140(%ebp)
 7903      FFFFFFFF 
 7903      FFFF
 7904 0317 E8000000 		call	__ZNSt18_Vector_alloc_baseIN10ThreadPool10ThreadDataESaIS1_ELb1EE13_M_deallocateEPS1_j
 7904      00
GAS LISTING h:/6261A/11CW1352MP_BIRD61A_11C_V33_GPRS_MMI/plutommi/Customer/ResGenerator/gcctmp/ccEHcaaa.s 			page 131


 255:h:/6261A/11CW1352MP_BIRD61A_11C_V33_GPRS_MMI/Tools/MinGW/include/c++/3.3.1/bits/vector.tcc ****         _M_start = __new_start.base();
 7906              	LM286:
 7907 031c 8B5508   		movl	8(%ebp), %edx
 7908 031f 899560FF 		movl	%edx, -160(%ebp)
 7908      FFFF
 7909 0325 8D45BC   		leal	-68(%ebp), %eax
 7910 0328 890424   		movl	%eax, (%esp)
 7911 032b E8000000 		call	__ZNK9__gnu_cxx17__normal_iteratorIPN10ThreadPool10ThreadDataESt6vectorIS2_SaIS2_EEE4baseEv
 7911      00
 7912 0330 8B00     		movl	(%eax), %eax
 7913 0332 8B9560FF 		movl	-160(%ebp), %edx
 7913      FFFF
 7914 0338 8902     		movl	%eax, (%edx)
 256:h:/6261A/11CW1352MP_BIRD61A_11C_V33_GPRS_MMI/Tools/MinGW/include/c++/3.3.1/bits/vector.tcc ****         _M_finish = __new_finish.base();
 7916              	LM287:
 7917 033a 8B4508   		movl	8(%ebp), %eax
 7918 033d 89855CFF 		movl	%eax, -164(%ebp)
 7918      FFFF
 7919 0343 8D45B4   		leal	-76(%ebp), %eax
 7920 0346 890424   		movl	%eax, (%esp)
 7921 0349 E8000000 		call	__ZNK9__gnu_cxx17__normal_iteratorIPN10ThreadPool10ThreadDataESt6vectorIS2_SaIS2_EEE4baseEv
 7921      00
 7922 034e 8B00     		movl	(%eax), %eax
 7923 0350 8B955CFF 		movl	-164(%ebp), %edx
 7923      FFFF
 7924 0356 894204   		movl	%eax, 4(%edx)
 257:h:/6261A/11CW1352MP_BIRD61A_11C_V33_GPRS_MMI/Tools/MinGW/include/c++/3.3.1/bits/vector.tcc ****         _M_end_of_storage = __new_start.base() + __len;
 7926              	LM288:
 7927 0359 8B4508   		movl	8(%ebp), %eax
 7928 035c 898558FF 		movl	%eax, -168(%ebp)
 7928      FFFF
 7929 0362 8D45BC   		leal	-68(%ebp), %eax
 7930 0365 890424   		movl	%eax, (%esp)
 7931 0368 E8000000 		call	__ZNK9__gnu_cxx17__normal_iteratorIPN10ThreadPool10ThreadDataESt6vectorIS2_SaIS2_EEE4baseEv
 7931      00
 7932 036d 89C1     		movl	%eax, %ecx
 7933 036f 8B55C0   		movl	-64(%ebp), %edx
 7934 0372 89D0     		movl	%edx, %eax
 7935 0374 01C0     		addl	%eax, %eax
 7936 0376 01D0     		addl	%edx, %eax
 7937 0378 C1E002   		sall	$2, %eax
 7938 037b 0301     		addl	(%ecx), %eax
 7939 037d 8B9558FF 		movl	-168(%ebp), %edx
 7939      FFFF
 7940 0383 894208   		movl	%eax, 8(%edx)
 7941              	L245:
 7942 0386 8D8570FF 		leal	-144(%ebp), %eax
 7942      FFFF
 7943 038c 890424   		movl	%eax, (%esp)
 7944 038f E8000000 		call	__Unwind_SjLj_Unregister
 7944      00
 7945 0394 81C4AC00 		addl	$172, %esp
 7945      0000
 7946 039a 5B       		popl	%ebx
 7947 039b 5E       		popl	%esi
 7948 039c 5F       		popl	%edi
 7949 039d 5D       		popl	%ebp
GAS LISTING h:/6261A/11CW1352MP_BIRD61A_11C_V33_GPRS_MMI/plutommi/Customer/ResGenerator/gcctmp/ccEHcaaa.s 			page 132


 7950 039e C3       		ret
 7951              	LBE77:
 7952              	LBE75:
 7953              	LBE74:
 7954              		.section	.gcc_except_table,""
 7955 0032 0000     		.align 4
 7956              	LLSDA818:
 7957 0034 FF       		.byte	0xff
 7958 0035 00       		.byte	0x0
 7959 0036 0D       		.uleb128 LLSDATT818-LLSDATTD818
 7960              	LLSDATTD818:
 7961 0037 01       		.byte	0x1
 7962 0038 04       		.uleb128 LLSDACSE818-LLSDACSB818
 7963              	LLSDACSB818:
 7964 0039 00       		.uleb128 0x0
 7965 003a 00       		.uleb128 0x0
 7966 003b 01       		.uleb128 0x1
 7967 003c 01       		.uleb128 0x1
 7968              	LLSDACSE818:
 7969 003d 01       		.byte	0x1
 7970 003e 00       		.byte	0x0
 7971 003f 00       		.align 4
 7972 0040 00000000 		.long	0
 7973              	LLSDATT818:
 7974              		.section	.text$_ZNSt6vectorIN10ThreadPool10ThreadDataESaIS1_EE13_M_insert_auxEN9__gnu_cxx17__norma
 7975              		.linkonce discard
 7985              	Lscope56:
 7987 039f 90       		.section	.text$_ZNSt14_List_iteratorIN10ThreadPool7JobDataERS1_PS1_EC1EPSt10_List_nodeIS1_E,"x"
 7988              		.linkonce discard
 7989              		.align 2
 7993              	.globl __ZNSt14_List_iteratorIN10ThreadPool7JobDataERS1_PS1_EC1EPSt10_List_nodeIS1_E
 7995              	__ZNSt14_List_iteratorIN10ThreadPool7JobDataERS1_PS1_EC1EPSt10_List_nodeIS1_E:
 7997              	Ltext23:
 7999              	LM289:
 8000 0000 55       		pushl	%ebp
 8001 0001 89E5     		movl	%esp, %ebp
 8002 0003 83EC08   		subl	$8, %esp
 8004              	LM290:
 8005              	LBB78:
 8006 0006 8B450C   		movl	12(%ebp), %eax
 8007 0009 89442404 		movl	%eax, 4(%esp)
 8008 000d 8B4508   		movl	8(%ebp), %eax
 8009 0010 890424   		movl	%eax, (%esp)
 8010 0013 E8000000 		call	__ZNSt19_List_iterator_baseC2EPSt15_List_node_base
 8010      00
 8011 0018 C9       		leave
 8012 0019 C3       		ret
 8013              	LBE78:
 8014              	Lscope57:
 8016 001a 9090     		.section	.text$_ZNKSt14_List_iteratorIN10ThreadPool7JobDataERS1_PS1_EdeEv,"x"
 8017              		.linkonce discard
 8018              		.align 2
 8021              	.globl __ZNKSt14_List_iteratorIN10ThreadPool7JobDataERS1_PS1_EdeEv
 8023              	__ZNKSt14_List_iteratorIN10ThreadPool7JobDataERS1_PS1_EdeEv:
 8025              	LM291:
 8026 0000 55       		pushl	%ebp
 8027 0001 89E5     		movl	%esp, %ebp
GAS LISTING h:/6261A/11CW1352MP_BIRD61A_11C_V33_GPRS_MMI/plutommi/Customer/ResGenerator/gcctmp/ccEHcaaa.s 			page 133


 8029              	LM292:
 8030              	LBB79:
 8031 0003 8B4508   		movl	8(%ebp), %eax
 8032 0006 8B00     		movl	(%eax), %eax
 8033 0008 83C008   		addl	$8, %eax
 8034 000b 5D       		popl	%ebp
 8035 000c C3       		ret
 8036              	LBE79:
 8037              	Lscope58:
 8039 000d 909090   		.section	.text$_ZSt8_DestroyIN9__gnu_cxx17__normal_iteratorIPN10ThreadPool10ThreadDataESt6vectorIS
 8040              		.linkonce discard
 8041              		.align 2
 8045              	.globl __ZSt8_DestroyIN9__gnu_cxx17__normal_iteratorIPN10ThreadPool10ThreadDataESt6vectorIS3_SaIS3_
 8047              	__ZSt8_DestroyIN9__gnu_cxx17__normal_iteratorIPN10ThreadPool10ThreadDataESt6vectorIS3_SaIS3_EEEEEvT
 8049              	Ltext24:
 8051              	LM293:
 8052 0000 55       		pushl	%ebp
 8053 0001 89E5     		movl	%esp, %ebp
 8054 0003 83EC18   		subl	$24, %esp
 8056              	LM294:
 8057              	LBB80:
 8058 0006 C6442408 		movb	$0, 8(%esp)
 8058      00
 8059 000b 8B450C   		movl	12(%ebp), %eax
 8060 000e 89442404 		movl	%eax, 4(%esp)
 8061 0012 8B4508   		movl	8(%ebp), %eax
 8062 0015 890424   		movl	%eax, (%esp)
 8063 0018 E8000000 		call	__ZSt13__destroy_auxIN9__gnu_cxx17__normal_iteratorIPN10ThreadPool10ThreadDataESt6vectorIS3_S
 8063      00
 8064 001d C9       		leave
 8065 001e C3       		ret
 8066              	LBE80:
 8067              	Lscope59:
 8069 001f 90       		.section	.text$_ZNSt6vectorIN10ThreadPool10ThreadDataESaIS1_EE5eraseEN9__gnu_cxx17__normal_iterato
 8070              		.linkonce discard
 8071              		.align 2
 8076              	.globl __ZNSt6vectorIN10ThreadPool10ThreadDataESaIS1_EE5eraseEN9__gnu_cxx17__normal_iteratorIPS1_S3
 8078              	__ZNSt6vectorIN10ThreadPool10ThreadDataESaIS1_EE5eraseEN9__gnu_cxx17__normal_iteratorIPS1_S3_EES7_:
 8080              	Ltext25:
 8082              	LM295:
 8083 0000 55       		pushl	%ebp
 8084 0001 89E5     		movl	%esp, %ebp
 8085 0003 56       		pushl	%esi
 8086 0004 53       		pushl	%ebx
 8087 0005 83EC20   		subl	$32, %esp
 8089              	LM296:
 8090              	LBB81:
 8091 0008 8B4508   		movl	8(%ebp), %eax
 8092 000b 890424   		movl	%eax, (%esp)
 8093 000e E8000000 		call	__ZNSt6vectorIN10ThreadPool10ThreadDataESaIS1_EE3endEv
 8093      00
 8094 0013 8945F0   		movl	%eax, -16(%ebp)
 8095 0016 8B450C   		movl	12(%ebp), %eax
 8096 0019 89442408 		movl	%eax, 8(%esp)
 8097 001d 8B45F0   		movl	-16(%ebp), %eax
 8098 0020 89442404 		movl	%eax, 4(%esp)
 8099 0024 8B4510   		movl	16(%ebp), %eax
GAS LISTING h:/6261A/11CW1352MP_BIRD61A_11C_V33_GPRS_MMI/plutommi/Customer/ResGenerator/gcctmp/ccEHcaaa.s 			page 134


 8100 0027 890424   		movl	%eax, (%esp)
 8101 002a E8000000 		call	__ZSt4copyIN9__gnu_cxx17__normal_iteratorIPN10ThreadPool10ThreadDataESt6vectorIS3_SaIS3_EEEES
 8101      00
 8102 002f 8945F4   		movl	%eax, -12(%ebp)
 8104              	LM297:
 8105 0032 8B4508   		movl	8(%ebp), %eax
 8106 0035 890424   		movl	%eax, (%esp)
 8107 0038 E8000000 		call	__ZNSt6vectorIN10ThreadPool10ThreadDataESaIS1_EE3endEv
 8107      00
 8108 003d 8945EC   		movl	%eax, -20(%ebp)
 8109 0040 8B45EC   		movl	-20(%ebp), %eax
 8110 0043 89442404 		movl	%eax, 4(%esp)
 8111 0047 8B45F4   		movl	-12(%ebp), %eax
 8112 004a 890424   		movl	%eax, (%esp)
 8113 004d E8000000 		call	__ZSt8_DestroyIN9__gnu_cxx17__normal_iteratorIPN10ThreadPool10ThreadDataESt6vectorIS3_SaIS3_E
 8113      00
 8115              	LM298:
 8116 0052 8B5D08   		movl	8(%ebp), %ebx
 8117 0055 8B7508   		movl	8(%ebp), %esi
 8118 0058 8D450C   		leal	12(%ebp), %eax
 8119 005b 89442404 		movl	%eax, 4(%esp)
 8120 005f 8D4510   		leal	16(%ebp), %eax
 8121 0062 890424   		movl	%eax, (%esp)
 8122 0065 E8000000 		call	__ZN9__gnu_cxxmiIPN10ThreadPool10ThreadDataES3_St6vectorIS2_SaIS2_EEEENS_17__normal_iteratorI
 8122      00
 8123 006a 89C2     		movl	%eax, %edx
 8124 006c 89D0     		movl	%edx, %eax
 8125 006e 01C0     		addl	%eax, %eax
 8126 0070 01D0     		addl	%edx, %eax
 8127 0072 8D148500 		leal	0(,%eax,4), %edx
 8127      000000
 8128 0079 8B4604   		movl	4(%esi), %eax
 8129 007c 29D0     		subl	%edx, %eax
 8130 007e 894304   		movl	%eax, 4(%ebx)
 8132              	LM299:
 8133 0081 8B450C   		movl	12(%ebp), %eax
 8134 0084 83C420   		addl	$32, %esp
 8135 0087 5B       		popl	%ebx
 8136 0088 5E       		popl	%esi
 8137 0089 5D       		popl	%ebp
 8138 008a C3       		ret
 8139              	LBE81:
 8143              	Lscope60:
 8145 008b 90       		.section	.text$_ZNSt4listIN10ThreadPool7JobDataESaIS1_EE6insertESt14_List_iteratorIS1_RS1_PS1_ERKS
 8146              		.linkonce discard
 8147              		.align 2
 8152              	.globl __ZNSt4listIN10ThreadPool7JobDataESaIS1_EE6insertESt14_List_iteratorIS1_RS1_PS1_ERKS1_
 8154              	__ZNSt4listIN10ThreadPool7JobDataESaIS1_EE6insertESt14_List_iteratorIS1_RS1_PS1_ERKS1_:
 8156              	Ltext26:
  82:h:/6261A/11CW1352MP_BIRD61A_11C_V33_GPRS_MMI/Tools/MinGW/include/c++/3.3.1/bits/list.tcc ****     }
  83:h:/6261A/11CW1352MP_BIRD61A_11C_V33_GPRS_MMI/Tools/MinGW/include/c++/3.3.1/bits/list.tcc ****   
  84:h:/6261A/11CW1352MP_BIRD61A_11C_V33_GPRS_MMI/Tools/MinGW/include/c++/3.3.1/bits/list.tcc ****   template<typename _Tp, typename _Alloc>
  85:h:/6261A/11CW1352MP_BIRD61A_11C_V33_GPRS_MMI/Tools/MinGW/include/c++/3.3.1/bits/list.tcc ****     typename list<_Tp,_Alloc>::iterator
  86:h:/6261A/11CW1352MP_BIRD61A_11C_V33_GPRS_MMI/Tools/MinGW/include/c++/3.3.1/bits/list.tcc ****     list<_Tp,_Alloc>::
  87:h:/6261A/11CW1352MP_BIRD61A_11C_V33_GPRS_MMI/Tools/MinGW/include/c++/3.3.1/bits/list.tcc ****     insert(iterator __position, const value_type& __x)
  88:h:/6261A/11CW1352MP_BIRD61A_11C_V33_GPRS_MMI/Tools/MinGW/include/c++/3.3.1/bits/list.tcc ****     {
 8158              	LM300:
GAS LISTING h:/6261A/11CW1352MP_BIRD61A_11C_V33_GPRS_MMI/plutommi/Customer/ResGenerator/gcctmp/ccEHcaaa.s 			page 135


 8159 0000 55       		pushl	%ebp
 8160 0001 89E5     		movl	%esp, %ebp
 8161 0003 56       		pushl	%esi
 8162 0004 53       		pushl	%ebx
 8163 0005 83EC10   		subl	$16, %esp
 8164 0008 8B7508   		movl	8(%ebp), %esi
 8165 000b 8B5D10   		movl	16(%ebp), %ebx
  89:h:/6261A/11CW1352MP_BIRD61A_11C_V33_GPRS_MMI/Tools/MinGW/include/c++/3.3.1/bits/list.tcc ****       _Node* __tmp = _M_create_node(__x);
 8167              	LM301:
 8168              	LBB82:
 8169 000e 8B4514   		movl	20(%ebp), %eax
 8170 0011 89442404 		movl	%eax, 4(%esp)
 8171 0015 8B450C   		movl	12(%ebp), %eax
 8172 0018 890424   		movl	%eax, (%esp)
 8173 001b E8000000 		call	__ZNSt4listIN10ThreadPool7JobDataESaIS1_EE14_M_create_nodeERKS1_
 8173      00
 8174 0020 8945F4   		movl	%eax, -12(%ebp)
  90:h:/6261A/11CW1352MP_BIRD61A_11C_V33_GPRS_MMI/Tools/MinGW/include/c++/3.3.1/bits/list.tcc ****       __tmp->_M_next = __position._M_node;
 8176              	LM302:
 8177 0023 8B55F4   		movl	-12(%ebp), %edx
 8178 0026 8B03     		movl	(%ebx), %eax
 8179 0028 8902     		movl	%eax, (%edx)
  91:h:/6261A/11CW1352MP_BIRD61A_11C_V33_GPRS_MMI/Tools/MinGW/include/c++/3.3.1/bits/list.tcc ****       __tmp->_M_prev = __position._M_node->_M_prev;
 8181              	LM303:
 8182 002a 8B55F4   		movl	-12(%ebp), %edx
 8183 002d 8B03     		movl	(%ebx), %eax
 8184 002f 8B4004   		movl	4(%eax), %eax
 8185 0032 894204   		movl	%eax, 4(%edx)
  92:h:/6261A/11CW1352MP_BIRD61A_11C_V33_GPRS_MMI/Tools/MinGW/include/c++/3.3.1/bits/list.tcc ****       __position._M_node->_M_prev->_M_next = __tmp;
 8187              	LM304:
 8188 0035 8B03     		movl	(%ebx), %eax
 8189 0037 8B5004   		movl	4(%eax), %edx
 8190 003a 8B45F4   		movl	-12(%ebp), %eax
 8191 003d 8902     		movl	%eax, (%edx)
  93:h:/6261A/11CW1352MP_BIRD61A_11C_V33_GPRS_MMI/Tools/MinGW/include/c++/3.3.1/bits/list.tcc ****       __position._M_node->_M_prev = __tmp;
 8193              	LM305:
 8194 003f 8B13     		movl	(%ebx), %edx
 8195 0041 8B45F4   		movl	-12(%ebp), %eax
 8196 0044 894204   		movl	%eax, 4(%edx)
  94:h:/6261A/11CW1352MP_BIRD61A_11C_V33_GPRS_MMI/Tools/MinGW/include/c++/3.3.1/bits/list.tcc ****       return __tmp;
 8198              	LM306:
 8199 0047 8B45F4   		movl	-12(%ebp), %eax
 8200 004a 89442404 		movl	%eax, 4(%esp)
 8201 004e 893424   		movl	%esi, (%esp)
 8202 0051 E8000000 		call	__ZNSt14_List_iteratorIN10ThreadPool7JobDataERS1_PS1_EC1EPSt10_List_nodeIS1_E
 8202      00
 8203              	LBE82:
 8204 0056 89F0     		movl	%esi, %eax
 8205 0058 83C410   		addl	$16, %esp
 8206 005b 5B       		popl	%ebx
 8207 005c 5E       		popl	%esi
 8208 005d 5D       		popl	%ebp
 8209 005e C20400   		ret	$4
 8214              	Lscope61:
 8216 0061 909090   		.section	.text$_ZNSt4listIN10ThreadPool7JobDataESaIS1_EE5eraseESt14_List_iteratorIS1_RS1_PS1_E,"x"
 8217              		.linkonce discard
 8218              		.align 2
GAS LISTING h:/6261A/11CW1352MP_BIRD61A_11C_V33_GPRS_MMI/plutommi/Customer/ResGenerator/gcctmp/ccEHcaaa.s 			page 136


 8222              	.globl __ZNSt4listIN10ThreadPool7JobDataESaIS1_EE5eraseESt14_List_iteratorIS1_RS1_PS1_E
 8224              	__ZNSt4listIN10ThreadPool7JobDataESaIS1_EE5eraseESt14_List_iteratorIS1_RS1_PS1_E:
  95:h:/6261A/11CW1352MP_BIRD61A_11C_V33_GPRS_MMI/Tools/MinGW/include/c++/3.3.1/bits/list.tcc ****     }
  96:h:/6261A/11CW1352MP_BIRD61A_11C_V33_GPRS_MMI/Tools/MinGW/include/c++/3.3.1/bits/list.tcc ****   
  97:h:/6261A/11CW1352MP_BIRD61A_11C_V33_GPRS_MMI/Tools/MinGW/include/c++/3.3.1/bits/list.tcc ****   template<typename _Tp, typename _Alloc>
  98:h:/6261A/11CW1352MP_BIRD61A_11C_V33_GPRS_MMI/Tools/MinGW/include/c++/3.3.1/bits/list.tcc ****     typename list<_Tp,_Alloc>::iterator
  99:h:/6261A/11CW1352MP_BIRD61A_11C_V33_GPRS_MMI/Tools/MinGW/include/c++/3.3.1/bits/list.tcc ****     list<_Tp,_Alloc>::
 100:h:/6261A/11CW1352MP_BIRD61A_11C_V33_GPRS_MMI/Tools/MinGW/include/c++/3.3.1/bits/list.tcc ****     erase(iterator __position)
 101:h:/6261A/11CW1352MP_BIRD61A_11C_V33_GPRS_MMI/Tools/MinGW/include/c++/3.3.1/bits/list.tcc ****     {
 8226              	LM307:
 8227 0000 55       		pushl	%ebp
 8228 0001 89E5     		movl	%esp, %ebp
 8229 0003 53       		pushl	%ebx
 8230 0004 83EC14   		subl	$20, %esp
 8231 0007 8B5D08   		movl	8(%ebp), %ebx
 8232 000a 8B5510   		movl	16(%ebp), %edx
 102:h:/6261A/11CW1352MP_BIRD61A_11C_V33_GPRS_MMI/Tools/MinGW/include/c++/3.3.1/bits/list.tcc ****       _List_node_base* __next_node = __position._M_node->_M_next;
 8234              	LM308:
 8235              	LBB83:
 8236 000d 8B02     		movl	(%edx), %eax
 8237 000f 8B00     		movl	(%eax), %eax
 8238 0011 8945F8   		movl	%eax, -8(%ebp)
 103:h:/6261A/11CW1352MP_BIRD61A_11C_V33_GPRS_MMI/Tools/MinGW/include/c++/3.3.1/bits/list.tcc ****       _List_node_base* __prev_node = __position._M_node->_M_prev;
 8240              	LM309:
 8241 0014 8B02     		movl	(%edx), %eax
 8242 0016 8B4004   		movl	4(%eax), %eax
 8243 0019 8945F4   		movl	%eax, -12(%ebp)
 104:h:/6261A/11CW1352MP_BIRD61A_11C_V33_GPRS_MMI/Tools/MinGW/include/c++/3.3.1/bits/list.tcc ****       _Node* __n = static_cast<_Node*>(__position._M_node);
 8245              	LM310:
 8246 001c 8B02     		movl	(%edx), %eax
 8247 001e 8945F0   		movl	%eax, -16(%ebp)
 105:h:/6261A/11CW1352MP_BIRD61A_11C_V33_GPRS_MMI/Tools/MinGW/include/c++/3.3.1/bits/list.tcc ****       __prev_node->_M_next = __next_node;
 8249              	LM311:
 8250 0021 8B55F4   		movl	-12(%ebp), %edx
 8251 0024 8B45F8   		movl	-8(%ebp), %eax
 8252 0027 8902     		movl	%eax, (%edx)
 106:h:/6261A/11CW1352MP_BIRD61A_11C_V33_GPRS_MMI/Tools/MinGW/include/c++/3.3.1/bits/list.tcc ****       __next_node->_M_prev = __prev_node;
 8254              	LM312:
 8255 0029 8B55F8   		movl	-8(%ebp), %edx
 8256 002c 8B45F4   		movl	-12(%ebp), %eax
 8257 002f 894204   		movl	%eax, 4(%edx)
 107:h:/6261A/11CW1352MP_BIRD61A_11C_V33_GPRS_MMI/Tools/MinGW/include/c++/3.3.1/bits/list.tcc ****       _Destroy(&__n->_M_data);
 8259              	LM313:
 8260 0032 8B45F0   		movl	-16(%ebp), %eax
 8261 0035 83C008   		addl	$8, %eax
 8262 0038 890424   		movl	%eax, (%esp)
 8263 003b E8000000 		call	__ZSt8_DestroyIN10ThreadPool7JobDataEEvPT_
 8263      00
 108:h:/6261A/11CW1352MP_BIRD61A_11C_V33_GPRS_MMI/Tools/MinGW/include/c++/3.3.1/bits/list.tcc ****       _M_put_node(__n);
 8265              	LM314:
 8266 0040 8B45F0   		movl	-16(%ebp), %eax
 8267 0043 89442404 		movl	%eax, 4(%esp)
 8268 0047 8B450C   		movl	12(%ebp), %eax
 8269 004a 890424   		movl	%eax, (%esp)
 8270 004d E8000000 		call	__ZNSt16_List_alloc_baseIN10ThreadPool7JobDataESaIS1_ELb1EE11_M_put_nodeEPSt10_List_nodeIS1_E
 8270      00
 109:h:/6261A/11CW1352MP_BIRD61A_11C_V33_GPRS_MMI/Tools/MinGW/include/c++/3.3.1/bits/list.tcc ****       return iterator(static_cast<_Node*>(__next_node));
GAS LISTING h:/6261A/11CW1352MP_BIRD61A_11C_V33_GPRS_MMI/plutommi/Customer/ResGenerator/gcctmp/ccEHcaaa.s 			page 137


 8272              	LM315:
 8273 0052 8B45F8   		movl	-8(%ebp), %eax
 8274 0055 89442404 		movl	%eax, 4(%esp)
 8275 0059 891C24   		movl	%ebx, (%esp)
 8276 005c E8000000 		call	__ZNSt14_List_iteratorIN10ThreadPool7JobDataERS1_PS1_EC1EPSt10_List_nodeIS1_E
 8276      00
 8277              	LBE83:
 8278 0061 89D8     		movl	%ebx, %eax
 8279 0063 83C414   		addl	$20, %esp
 8280 0066 5B       		popl	%ebx
 8281 0067 5D       		popl	%ebp
 8282 0068 C20400   		ret	$4
 8289              	Lscope62:
 8291 006b 90       		.section	.text$_ZSt13__destroy_auxIPN10ThreadPool10ThreadDataEEvT_S3_12__false_type,"x"
 8292              		.linkonce discard
 8293              		.align 2
 8297              	.globl __ZSt13__destroy_auxIPN10ThreadPool10ThreadDataEEvT_S3_12__false_type
 8299              	__ZSt13__destroy_auxIPN10ThreadPool10ThreadDataEEvT_S3_12__false_type:
 8301              	Ltext27:
 8303              	LM316:
 8304 0000 55       		pushl	%ebp
 8305 0001 89E5     		movl	%esp, %ebp
 8306 0003 83EC08   		subl	$8, %esp
 8308              	LM317:
 8309              	LBB84:
 8310 0006 90       		nop
 8311              	L265:
 8312 0007 8B4508   		movl	8(%ebp), %eax
 8313 000a 3B450C   		cmpl	12(%ebp), %eax
 8314 000d 7502     		jne	L268
 8315 000f EB11     		jmp	L264
 8316              	L268:
 8317 0011 8B4508   		movl	8(%ebp), %eax
 8318 0014 890424   		movl	%eax, (%esp)
 8319 0017 E8000000 		call	__ZSt8_DestroyIN10ThreadPool10ThreadDataEEvPT_
 8319      00
 8320 001c 8345080C 		addl	$12, 8(%ebp)
 8321 0020 EBE5     		jmp	L265
 8322              	L264:
 8323 0022 C9       		leave
 8324 0023 C3       		ret
 8325              	LBE84:
 8326              	Lscope63:
 8328              		.section	.text$_ZSt18uninitialized_copyIN9__gnu_cxx17__normal_iteratorIPN10ThreadPool10ThreadDataE
 8329              		.linkonce discard
 8330              		.align 2
 8335              	.globl __ZSt18uninitialized_copyIN9__gnu_cxx17__normal_iteratorIPN10ThreadPool10ThreadDataESt6vecto
 8337              	__ZSt18uninitialized_copyIN9__gnu_cxx17__normal_iteratorIPN10ThreadPool10ThreadDataESt6vectorIS3_Sa
 8339              	Ltext28:
   1:h:/6261A/11CW1352MP_BIRD61A_11C_V33_GPRS_MMI/Tools/MinGW/include/c++/3.3.1/bits/stl_uninitialized.h **** // Raw memory manipulators -*- C++ -*-
   2:h:/6261A/11CW1352MP_BIRD61A_11C_V33_GPRS_MMI/Tools/MinGW/include/c++/3.3.1/bits/stl_uninitialized.h **** 
   3:h:/6261A/11CW1352MP_BIRD61A_11C_V33_GPRS_MMI/Tools/MinGW/include/c++/3.3.1/bits/stl_uninitialized.h **** // Copyright (C) 2001 Free Software Foundation, Inc.
   4:h:/6261A/11CW1352MP_BIRD61A_11C_V33_GPRS_MMI/Tools/MinGW/include/c++/3.3.1/bits/stl_uninitialized.h **** //
   5:h:/6261A/11CW1352MP_BIRD61A_11C_V33_GPRS_MMI/Tools/MinGW/include/c++/3.3.1/bits/stl_uninitialized.h **** // This file is part of the GNU ISO C++ Library.  This library is free
   6:h:/6261A/11CW1352MP_BIRD61A_11C_V33_GPRS_MMI/Tools/MinGW/include/c++/3.3.1/bits/stl_uninitialized.h **** // software; you can redistribute it and/or modify it under the
   7:h:/6261A/11CW1352MP_BIRD61A_11C_V33_GPRS_MMI/Tools/MinGW/include/c++/3.3.1/bits/stl_uninitialized.h **** // terms of the GNU General Public License as published by the
   8:h:/6261A/11CW1352MP_BIRD61A_11C_V33_GPRS_MMI/Tools/MinGW/include/c++/3.3.1/bits/stl_uninitialized.h **** // Free Software Foundation; either version 2, or (at your option)
GAS LISTING h:/6261A/11CW1352MP_BIRD61A_11C_V33_GPRS_MMI/plutommi/Customer/ResGenerator/gcctmp/ccEHcaaa.s 			page 138


   9:h:/6261A/11CW1352MP_BIRD61A_11C_V33_GPRS_MMI/Tools/MinGW/include/c++/3.3.1/bits/stl_uninitialized.h **** // any later version.
  10:h:/6261A/11CW1352MP_BIRD61A_11C_V33_GPRS_MMI/Tools/MinGW/include/c++/3.3.1/bits/stl_uninitialized.h **** 
  11:h:/6261A/11CW1352MP_BIRD61A_11C_V33_GPRS_MMI/Tools/MinGW/include/c++/3.3.1/bits/stl_uninitialized.h **** // This library is distributed in the hope that it will be useful,
  12:h:/6261A/11CW1352MP_BIRD61A_11C_V33_GPRS_MMI/Tools/MinGW/include/c++/3.3.1/bits/stl_uninitialized.h **** // but WITHOUT ANY WARRANTY; without even the implied warranty of
  13:h:/6261A/11CW1352MP_BIRD61A_11C_V33_GPRS_MMI/Tools/MinGW/include/c++/3.3.1/bits/stl_uninitialized.h **** // MERCHANTABILITY or FITNESS FOR A PARTICULAR PURPOSE.  See the
  14:h:/6261A/11CW1352MP_BIRD61A_11C_V33_GPRS_MMI/Tools/MinGW/include/c++/3.3.1/bits/stl_uninitialized.h **** // GNU General Public License for more details.
  15:h:/6261A/11CW1352MP_BIRD61A_11C_V33_GPRS_MMI/Tools/MinGW/include/c++/3.3.1/bits/stl_uninitialized.h **** 
  16:h:/6261A/11CW1352MP_BIRD61A_11C_V33_GPRS_MMI/Tools/MinGW/include/c++/3.3.1/bits/stl_uninitialized.h **** // You should have received a copy of the GNU General Public License along
  17:h:/6261A/11CW1352MP_BIRD61A_11C_V33_GPRS_MMI/Tools/MinGW/include/c++/3.3.1/bits/stl_uninitialized.h **** // with this library; see the file COPYING.  If not, write to the Free
  18:h:/6261A/11CW1352MP_BIRD61A_11C_V33_GPRS_MMI/Tools/MinGW/include/c++/3.3.1/bits/stl_uninitialized.h **** // Software Foundation, 59 Temple Place - Suite 330, Boston, MA 02111-1307,
  19:h:/6261A/11CW1352MP_BIRD61A_11C_V33_GPRS_MMI/Tools/MinGW/include/c++/3.3.1/bits/stl_uninitialized.h **** // USA.
  20:h:/6261A/11CW1352MP_BIRD61A_11C_V33_GPRS_MMI/Tools/MinGW/include/c++/3.3.1/bits/stl_uninitialized.h **** 
  21:h:/6261A/11CW1352MP_BIRD61A_11C_V33_GPRS_MMI/Tools/MinGW/include/c++/3.3.1/bits/stl_uninitialized.h **** // As a special exception, you may use this file as part of a free software
  22:h:/6261A/11CW1352MP_BIRD61A_11C_V33_GPRS_MMI/Tools/MinGW/include/c++/3.3.1/bits/stl_uninitialized.h **** // library without restriction.  Specifically, if other files instantiate
  23:h:/6261A/11CW1352MP_BIRD61A_11C_V33_GPRS_MMI/Tools/MinGW/include/c++/3.3.1/bits/stl_uninitialized.h **** // templates or use macros or inline functions from this file, or you compile
  24:h:/6261A/11CW1352MP_BIRD61A_11C_V33_GPRS_MMI/Tools/MinGW/include/c++/3.3.1/bits/stl_uninitialized.h **** // this file and link it with other files to produce an executable, this
  25:h:/6261A/11CW1352MP_BIRD61A_11C_V33_GPRS_MMI/Tools/MinGW/include/c++/3.3.1/bits/stl_uninitialized.h **** // file does not by itself cause the resulting executable to be covered by
  26:h:/6261A/11CW1352MP_BIRD61A_11C_V33_GPRS_MMI/Tools/MinGW/include/c++/3.3.1/bits/stl_uninitialized.h **** // the GNU General Public License.  This exception does not however
  27:h:/6261A/11CW1352MP_BIRD61A_11C_V33_GPRS_MMI/Tools/MinGW/include/c++/3.3.1/bits/stl_uninitialized.h **** // invalidate any other reasons why the executable file might be covered by
  28:h:/6261A/11CW1352MP_BIRD61A_11C_V33_GPRS_MMI/Tools/MinGW/include/c++/3.3.1/bits/stl_uninitialized.h **** // the GNU General Public License.
  29:h:/6261A/11CW1352MP_BIRD61A_11C_V33_GPRS_MMI/Tools/MinGW/include/c++/3.3.1/bits/stl_uninitialized.h **** 
  30:h:/6261A/11CW1352MP_BIRD61A_11C_V33_GPRS_MMI/Tools/MinGW/include/c++/3.3.1/bits/stl_uninitialized.h **** /*
  31:h:/6261A/11CW1352MP_BIRD61A_11C_V33_GPRS_MMI/Tools/MinGW/include/c++/3.3.1/bits/stl_uninitialized.h ****  *
  32:h:/6261A/11CW1352MP_BIRD61A_11C_V33_GPRS_MMI/Tools/MinGW/include/c++/3.3.1/bits/stl_uninitialized.h ****  * Copyright (c) 1994
  33:h:/6261A/11CW1352MP_BIRD61A_11C_V33_GPRS_MMI/Tools/MinGW/include/c++/3.3.1/bits/stl_uninitialized.h ****  * Hewlett-Packard Company
  34:h:/6261A/11CW1352MP_BIRD61A_11C_V33_GPRS_MMI/Tools/MinGW/include/c++/3.3.1/bits/stl_uninitialized.h ****  *
  35:h:/6261A/11CW1352MP_BIRD61A_11C_V33_GPRS_MMI/Tools/MinGW/include/c++/3.3.1/bits/stl_uninitialized.h ****  * Permission to use, copy, modify, distribute and sell this software
  36:h:/6261A/11CW1352MP_BIRD61A_11C_V33_GPRS_MMI/Tools/MinGW/include/c++/3.3.1/bits/stl_uninitialized.h ****  * and its documentation for any purpose is hereby granted without fee,
  37:h:/6261A/11CW1352MP_BIRD61A_11C_V33_GPRS_MMI/Tools/MinGW/include/c++/3.3.1/bits/stl_uninitialized.h ****  * provided that the above copyright notice appear in all copies and
  38:h:/6261A/11CW1352MP_BIRD61A_11C_V33_GPRS_MMI/Tools/MinGW/include/c++/3.3.1/bits/stl_uninitialized.h ****  * that both that copyright notice and this permission notice appear
  39:h:/6261A/11CW1352MP_BIRD61A_11C_V33_GPRS_MMI/Tools/MinGW/include/c++/3.3.1/bits/stl_uninitialized.h ****  * in supporting documentation.  Hewlett-Packard Company makes no
  40:h:/6261A/11CW1352MP_BIRD61A_11C_V33_GPRS_MMI/Tools/MinGW/include/c++/3.3.1/bits/stl_uninitialized.h ****  * representations about the suitability of this software for any
  41:h:/6261A/11CW1352MP_BIRD61A_11C_V33_GPRS_MMI/Tools/MinGW/include/c++/3.3.1/bits/stl_uninitialized.h ****  * purpose.  It is provided "as is" without express or implied warranty.
  42:h:/6261A/11CW1352MP_BIRD61A_11C_V33_GPRS_MMI/Tools/MinGW/include/c++/3.3.1/bits/stl_uninitialized.h ****  *
  43:h:/6261A/11CW1352MP_BIRD61A_11C_V33_GPRS_MMI/Tools/MinGW/include/c++/3.3.1/bits/stl_uninitialized.h ****  *
  44:h:/6261A/11CW1352MP_BIRD61A_11C_V33_GPRS_MMI/Tools/MinGW/include/c++/3.3.1/bits/stl_uninitialized.h ****  * Copyright (c) 1996,1997
  45:h:/6261A/11CW1352MP_BIRD61A_11C_V33_GPRS_MMI/Tools/MinGW/include/c++/3.3.1/bits/stl_uninitialized.h ****  * Silicon Graphics Computer Systems, Inc.
  46:h:/6261A/11CW1352MP_BIRD61A_11C_V33_GPRS_MMI/Tools/MinGW/include/c++/3.3.1/bits/stl_uninitialized.h ****  *
  47:h:/6261A/11CW1352MP_BIRD61A_11C_V33_GPRS_MMI/Tools/MinGW/include/c++/3.3.1/bits/stl_uninitialized.h ****  * Permission to use, copy, modify, distribute and sell this software
  48:h:/6261A/11CW1352MP_BIRD61A_11C_V33_GPRS_MMI/Tools/MinGW/include/c++/3.3.1/bits/stl_uninitialized.h ****  * and its documentation for any purpose is hereby granted without fee,
  49:h:/6261A/11CW1352MP_BIRD61A_11C_V33_GPRS_MMI/Tools/MinGW/include/c++/3.3.1/bits/stl_uninitialized.h ****  * provided that the above copyright notice appear in all copies and
  50:h:/6261A/11CW1352MP_BIRD61A_11C_V33_GPRS_MMI/Tools/MinGW/include/c++/3.3.1/bits/stl_uninitialized.h ****  * that both that copyright notice and this permission notice appear
  51:h:/6261A/11CW1352MP_BIRD61A_11C_V33_GPRS_MMI/Tools/MinGW/include/c++/3.3.1/bits/stl_uninitialized.h ****  * in supporting documentation.  Silicon Graphics makes no
  52:h:/6261A/11CW1352MP_BIRD61A_11C_V33_GPRS_MMI/Tools/MinGW/include/c++/3.3.1/bits/stl_uninitialized.h ****  * representations about the suitability of this software for any
  53:h:/6261A/11CW1352MP_BIRD61A_11C_V33_GPRS_MMI/Tools/MinGW/include/c++/3.3.1/bits/stl_uninitialized.h ****  * purpose.  It is provided "as is" without express or implied warranty.
  54:h:/6261A/11CW1352MP_BIRD61A_11C_V33_GPRS_MMI/Tools/MinGW/include/c++/3.3.1/bits/stl_uninitialized.h ****  */
  55:h:/6261A/11CW1352MP_BIRD61A_11C_V33_GPRS_MMI/Tools/MinGW/include/c++/3.3.1/bits/stl_uninitialized.h **** 
  56:h:/6261A/11CW1352MP_BIRD61A_11C_V33_GPRS_MMI/Tools/MinGW/include/c++/3.3.1/bits/stl_uninitialized.h **** /** @file stl_uninitialized.h
  57:h:/6261A/11CW1352MP_BIRD61A_11C_V33_GPRS_MMI/Tools/MinGW/include/c++/3.3.1/bits/stl_uninitialized.h ****  *  This is an internal header file, included by other library headers.
  58:h:/6261A/11CW1352MP_BIRD61A_11C_V33_GPRS_MMI/Tools/MinGW/include/c++/3.3.1/bits/stl_uninitialized.h ****  *  You should not attempt to use it directly.
  59:h:/6261A/11CW1352MP_BIRD61A_11C_V33_GPRS_MMI/Tools/MinGW/include/c++/3.3.1/bits/stl_uninitialized.h ****  */
  60:h:/6261A/11CW1352MP_BIRD61A_11C_V33_GPRS_MMI/Tools/MinGW/include/c++/3.3.1/bits/stl_uninitialized.h **** 
  61:h:/6261A/11CW1352MP_BIRD61A_11C_V33_GPRS_MMI/Tools/MinGW/include/c++/3.3.1/bits/stl_uninitialized.h **** #ifndef _CPP_BITS_STL_UNINITIALIZED_H
  62:h:/6261A/11CW1352MP_BIRD61A_11C_V33_GPRS_MMI/Tools/MinGW/include/c++/3.3.1/bits/stl_uninitialized.h **** #define _CPP_BITS_STL_UNINITIALIZED_H 1
  63:h:/6261A/11CW1352MP_BIRD61A_11C_V33_GPRS_MMI/Tools/MinGW/include/c++/3.3.1/bits/stl_uninitialized.h **** 
  64:h:/6261A/11CW1352MP_BIRD61A_11C_V33_GPRS_MMI/Tools/MinGW/include/c++/3.3.1/bits/stl_uninitialized.h **** #include <cstring>
  65:h:/6261A/11CW1352MP_BIRD61A_11C_V33_GPRS_MMI/Tools/MinGW/include/c++/3.3.1/bits/stl_uninitialized.h **** 
GAS LISTING h:/6261A/11CW1352MP_BIRD61A_11C_V33_GPRS_MMI/plutommi/Customer/ResGenerator/gcctmp/ccEHcaaa.s 			page 139


  66:h:/6261A/11CW1352MP_BIRD61A_11C_V33_GPRS_MMI/Tools/MinGW/include/c++/3.3.1/bits/stl_uninitialized.h **** namespace std
  67:h:/6261A/11CW1352MP_BIRD61A_11C_V33_GPRS_MMI/Tools/MinGW/include/c++/3.3.1/bits/stl_uninitialized.h **** {
  68:h:/6261A/11CW1352MP_BIRD61A_11C_V33_GPRS_MMI/Tools/MinGW/include/c++/3.3.1/bits/stl_uninitialized.h **** 
  69:h:/6261A/11CW1352MP_BIRD61A_11C_V33_GPRS_MMI/Tools/MinGW/include/c++/3.3.1/bits/stl_uninitialized.h ****   // uninitialized_copy
  70:h:/6261A/11CW1352MP_BIRD61A_11C_V33_GPRS_MMI/Tools/MinGW/include/c++/3.3.1/bits/stl_uninitialized.h **** 
  71:h:/6261A/11CW1352MP_BIRD61A_11C_V33_GPRS_MMI/Tools/MinGW/include/c++/3.3.1/bits/stl_uninitialized.h ****   template<typename _InputIter, typename _ForwardIter>
  72:h:/6261A/11CW1352MP_BIRD61A_11C_V33_GPRS_MMI/Tools/MinGW/include/c++/3.3.1/bits/stl_uninitialized.h ****     inline _ForwardIter 
  73:h:/6261A/11CW1352MP_BIRD61A_11C_V33_GPRS_MMI/Tools/MinGW/include/c++/3.3.1/bits/stl_uninitialized.h ****     __uninitialized_copy_aux(_InputIter __first, _InputIter __last,
  74:h:/6261A/11CW1352MP_BIRD61A_11C_V33_GPRS_MMI/Tools/MinGW/include/c++/3.3.1/bits/stl_uninitialized.h **** 			     _ForwardIter __result,
  75:h:/6261A/11CW1352MP_BIRD61A_11C_V33_GPRS_MMI/Tools/MinGW/include/c++/3.3.1/bits/stl_uninitialized.h **** 			     __true_type)
  76:h:/6261A/11CW1352MP_BIRD61A_11C_V33_GPRS_MMI/Tools/MinGW/include/c++/3.3.1/bits/stl_uninitialized.h ****     { return copy(__first, __last, __result); }
  77:h:/6261A/11CW1352MP_BIRD61A_11C_V33_GPRS_MMI/Tools/MinGW/include/c++/3.3.1/bits/stl_uninitialized.h **** 
  78:h:/6261A/11CW1352MP_BIRD61A_11C_V33_GPRS_MMI/Tools/MinGW/include/c++/3.3.1/bits/stl_uninitialized.h ****   template<typename _InputIter, typename _ForwardIter>
  79:h:/6261A/11CW1352MP_BIRD61A_11C_V33_GPRS_MMI/Tools/MinGW/include/c++/3.3.1/bits/stl_uninitialized.h ****     _ForwardIter 
  80:h:/6261A/11CW1352MP_BIRD61A_11C_V33_GPRS_MMI/Tools/MinGW/include/c++/3.3.1/bits/stl_uninitialized.h ****     __uninitialized_copy_aux(_InputIter __first, _InputIter __last,
  81:h:/6261A/11CW1352MP_BIRD61A_11C_V33_GPRS_MMI/Tools/MinGW/include/c++/3.3.1/bits/stl_uninitialized.h **** 			     _ForwardIter __result,
  82:h:/6261A/11CW1352MP_BIRD61A_11C_V33_GPRS_MMI/Tools/MinGW/include/c++/3.3.1/bits/stl_uninitialized.h **** 			     __false_type)
  83:h:/6261A/11CW1352MP_BIRD61A_11C_V33_GPRS_MMI/Tools/MinGW/include/c++/3.3.1/bits/stl_uninitialized.h ****     {
  84:h:/6261A/11CW1352MP_BIRD61A_11C_V33_GPRS_MMI/Tools/MinGW/include/c++/3.3.1/bits/stl_uninitialized.h ****       _ForwardIter __cur = __result;
  85:h:/6261A/11CW1352MP_BIRD61A_11C_V33_GPRS_MMI/Tools/MinGW/include/c++/3.3.1/bits/stl_uninitialized.h ****       try {
  86:h:/6261A/11CW1352MP_BIRD61A_11C_V33_GPRS_MMI/Tools/MinGW/include/c++/3.3.1/bits/stl_uninitialized.h **** 	for ( ; __first != __last; ++__first, ++__cur)
  87:h:/6261A/11CW1352MP_BIRD61A_11C_V33_GPRS_MMI/Tools/MinGW/include/c++/3.3.1/bits/stl_uninitialized.h **** 	  _Construct(&*__cur, *__first);
  88:h:/6261A/11CW1352MP_BIRD61A_11C_V33_GPRS_MMI/Tools/MinGW/include/c++/3.3.1/bits/stl_uninitialized.h **** 	return __cur;
  89:h:/6261A/11CW1352MP_BIRD61A_11C_V33_GPRS_MMI/Tools/MinGW/include/c++/3.3.1/bits/stl_uninitialized.h ****       }
  90:h:/6261A/11CW1352MP_BIRD61A_11C_V33_GPRS_MMI/Tools/MinGW/include/c++/3.3.1/bits/stl_uninitialized.h ****       catch(...)
  91:h:/6261A/11CW1352MP_BIRD61A_11C_V33_GPRS_MMI/Tools/MinGW/include/c++/3.3.1/bits/stl_uninitialized.h **** 	{
  92:h:/6261A/11CW1352MP_BIRD61A_11C_V33_GPRS_MMI/Tools/MinGW/include/c++/3.3.1/bits/stl_uninitialized.h **** 	  _Destroy(__result, __cur);
  93:h:/6261A/11CW1352MP_BIRD61A_11C_V33_GPRS_MMI/Tools/MinGW/include/c++/3.3.1/bits/stl_uninitialized.h **** 	  __throw_exception_again; 
  94:h:/6261A/11CW1352MP_BIRD61A_11C_V33_GPRS_MMI/Tools/MinGW/include/c++/3.3.1/bits/stl_uninitialized.h **** 	}
  95:h:/6261A/11CW1352MP_BIRD61A_11C_V33_GPRS_MMI/Tools/MinGW/include/c++/3.3.1/bits/stl_uninitialized.h ****     }
  96:h:/6261A/11CW1352MP_BIRD61A_11C_V33_GPRS_MMI/Tools/MinGW/include/c++/3.3.1/bits/stl_uninitialized.h **** 
  97:h:/6261A/11CW1352MP_BIRD61A_11C_V33_GPRS_MMI/Tools/MinGW/include/c++/3.3.1/bits/stl_uninitialized.h ****   /**
  98:h:/6261A/11CW1352MP_BIRD61A_11C_V33_GPRS_MMI/Tools/MinGW/include/c++/3.3.1/bits/stl_uninitialized.h ****    *  @brief Copies the range [first,last) into result.
  99:h:/6261A/11CW1352MP_BIRD61A_11C_V33_GPRS_MMI/Tools/MinGW/include/c++/3.3.1/bits/stl_uninitialized.h ****    *  @param  first  An input iterator.
 100:h:/6261A/11CW1352MP_BIRD61A_11C_V33_GPRS_MMI/Tools/MinGW/include/c++/3.3.1/bits/stl_uninitialized.h ****    *  @param  last   An input iterator.
 101:h:/6261A/11CW1352MP_BIRD61A_11C_V33_GPRS_MMI/Tools/MinGW/include/c++/3.3.1/bits/stl_uninitialized.h ****    *  @param  result An output iterator.
 102:h:/6261A/11CW1352MP_BIRD61A_11C_V33_GPRS_MMI/Tools/MinGW/include/c++/3.3.1/bits/stl_uninitialized.h ****    *  @return   result + (first - last)
 103:h:/6261A/11CW1352MP_BIRD61A_11C_V33_GPRS_MMI/Tools/MinGW/include/c++/3.3.1/bits/stl_uninitialized.h ****    *
 104:h:/6261A/11CW1352MP_BIRD61A_11C_V33_GPRS_MMI/Tools/MinGW/include/c++/3.3.1/bits/stl_uninitialized.h ****    *  Like copy(), but does not require an initialized output range.
 105:h:/6261A/11CW1352MP_BIRD61A_11C_V33_GPRS_MMI/Tools/MinGW/include/c++/3.3.1/bits/stl_uninitialized.h ****   */
 106:h:/6261A/11CW1352MP_BIRD61A_11C_V33_GPRS_MMI/Tools/MinGW/include/c++/3.3.1/bits/stl_uninitialized.h ****   template<typename _InputIter, typename _ForwardIter>
 107:h:/6261A/11CW1352MP_BIRD61A_11C_V33_GPRS_MMI/Tools/MinGW/include/c++/3.3.1/bits/stl_uninitialized.h ****     inline _ForwardIter
 108:h:/6261A/11CW1352MP_BIRD61A_11C_V33_GPRS_MMI/Tools/MinGW/include/c++/3.3.1/bits/stl_uninitialized.h ****     uninitialized_copy(_InputIter __first, _InputIter __last, _ForwardIter __result)
 109:h:/6261A/11CW1352MP_BIRD61A_11C_V33_GPRS_MMI/Tools/MinGW/include/c++/3.3.1/bits/stl_uninitialized.h ****     {
 8341              	LM318:
 8342 0000 55       		pushl	%ebp
 8343 0001 89E5     		movl	%esp, %ebp
 8344 0003 83EC18   		subl	$24, %esp
 110:h:/6261A/11CW1352MP_BIRD61A_11C_V33_GPRS_MMI/Tools/MinGW/include/c++/3.3.1/bits/stl_uninitialized.h ****       typedef typename iterator_traits<_ForwardIter>::value_type _ValueType;
 111:h:/6261A/11CW1352MP_BIRD61A_11C_V33_GPRS_MMI/Tools/MinGW/include/c++/3.3.1/bits/stl_uninitialized.h ****       typedef typename __type_traits<_ValueType>::is_POD_type _Is_POD;
 112:h:/6261A/11CW1352MP_BIRD61A_11C_V33_GPRS_MMI/Tools/MinGW/include/c++/3.3.1/bits/stl_uninitialized.h ****       return __uninitialized_copy_aux(__first, __last, __result, _Is_POD());
 8346              	LM319:
 8347              	LBB85:
 8348 0006 C644240C 		movb	$0, 12(%esp)
 8348      00
 8349 000b 8B4510   		movl	16(%ebp), %eax
 8350 000e 89442408 		movl	%eax, 8(%esp)
GAS LISTING h:/6261A/11CW1352MP_BIRD61A_11C_V33_GPRS_MMI/plutommi/Customer/ResGenerator/gcctmp/ccEHcaaa.s 			page 140


 8351 0012 8B450C   		movl	12(%ebp), %eax
 8352 0015 89442404 		movl	%eax, 4(%esp)
 8353 0019 8B4508   		movl	8(%ebp), %eax
 8354 001c 890424   		movl	%eax, (%esp)
 8355 001f E8000000 		call	__ZSt24__uninitialized_copy_auxIN9__gnu_cxx17__normal_iteratorIPN10ThreadPool10ThreadDataESt6
 8355      00
 8356 0024 8945FC   		movl	%eax, -4(%ebp)
 8357 0027 8B45FC   		movl	-4(%ebp), %eax
 8358 002a C9       		leave
 8359 002b C3       		ret
 8360              	LBE85:
 8361              	Lscope64:
 8363              	.globl __ZTI10ThreadPool
 8364              		.section	.rdata$_ZTI10ThreadPool,""
 8365              		.linkonce same_size
 8366              		.align 4
 8367              	__ZTI10ThreadPool:
 8368 0000 08000000 		.long	__ZTVN10__cxxabiv117__class_type_infoE+8
 8369 0004 00000000 		.long	__ZTS10ThreadPool
 8370              	.globl __ZTS10ThreadPool
 8371              		.section	.rdata$_ZTS10ThreadPool,""
 8372              		.linkonce same_size
 8373              	__ZTS10ThreadPool:
 8374 0000 31305468 		.ascii "10ThreadPool\0"
 8374      72656164 
 8374      506F6F6C 
 8374      00
 8375 000d 000000   		.section	.text$_ZnwjPv,"x"
 8376              		.linkonce discard
 8377              		.align 2
 8380              	.globl __ZnwjPv
 8382              	__ZnwjPv:
 8384              	Ltext29:
   1:h:/6261A/11CW1352MP_BIRD61A_11C_V33_GPRS_MMI/Tools/MinGW/include/c++/3.3.1/new **** // The -*- C++ -*- dynamic memory management header.
   2:h:/6261A/11CW1352MP_BIRD61A_11C_V33_GPRS_MMI/Tools/MinGW/include/c++/3.3.1/new **** 
   3:h:/6261A/11CW1352MP_BIRD61A_11C_V33_GPRS_MMI/Tools/MinGW/include/c++/3.3.1/new **** // Copyright (C) 1994, 1996, 1997, 1998, 2000, 2001, 2002
   4:h:/6261A/11CW1352MP_BIRD61A_11C_V33_GPRS_MMI/Tools/MinGW/include/c++/3.3.1/new **** // Free Software Foundation
   5:h:/6261A/11CW1352MP_BIRD61A_11C_V33_GPRS_MMI/Tools/MinGW/include/c++/3.3.1/new **** 
   6:h:/6261A/11CW1352MP_BIRD61A_11C_V33_GPRS_MMI/Tools/MinGW/include/c++/3.3.1/new **** // This file is part of GNU CC.
   7:h:/6261A/11CW1352MP_BIRD61A_11C_V33_GPRS_MMI/Tools/MinGW/include/c++/3.3.1/new **** //
   8:h:/6261A/11CW1352MP_BIRD61A_11C_V33_GPRS_MMI/Tools/MinGW/include/c++/3.3.1/new **** // GNU CC is free software; you can redistribute it and/or modify
   9:h:/6261A/11CW1352MP_BIRD61A_11C_V33_GPRS_MMI/Tools/MinGW/include/c++/3.3.1/new **** // it under the terms of the GNU General Public License as published by
  10:h:/6261A/11CW1352MP_BIRD61A_11C_V33_GPRS_MMI/Tools/MinGW/include/c++/3.3.1/new **** // the Free Software Foundation; either version 2, or (at your option)
  11:h:/6261A/11CW1352MP_BIRD61A_11C_V33_GPRS_MMI/Tools/MinGW/include/c++/3.3.1/new **** // any later version.
  12:h:/6261A/11CW1352MP_BIRD61A_11C_V33_GPRS_MMI/Tools/MinGW/include/c++/3.3.1/new **** // 
  13:h:/6261A/11CW1352MP_BIRD61A_11C_V33_GPRS_MMI/Tools/MinGW/include/c++/3.3.1/new **** // GNU CC is distributed in the hope that it will be useful,
  14:h:/6261A/11CW1352MP_BIRD61A_11C_V33_GPRS_MMI/Tools/MinGW/include/c++/3.3.1/new **** // but WITHOUT ANY WARRANTY; without even the implied warranty of
  15:h:/6261A/11CW1352MP_BIRD61A_11C_V33_GPRS_MMI/Tools/MinGW/include/c++/3.3.1/new **** // MERCHANTABILITY or FITNESS FOR A PARTICULAR PURPOSE.  See the
  16:h:/6261A/11CW1352MP_BIRD61A_11C_V33_GPRS_MMI/Tools/MinGW/include/c++/3.3.1/new **** // GNU General Public License for more details.
  17:h:/6261A/11CW1352MP_BIRD61A_11C_V33_GPRS_MMI/Tools/MinGW/include/c++/3.3.1/new **** // 
  18:h:/6261A/11CW1352MP_BIRD61A_11C_V33_GPRS_MMI/Tools/MinGW/include/c++/3.3.1/new **** // You should have received a copy of the GNU General Public License
  19:h:/6261A/11CW1352MP_BIRD61A_11C_V33_GPRS_MMI/Tools/MinGW/include/c++/3.3.1/new **** // along with GNU CC; see the file COPYING.  If not, write to
  20:h:/6261A/11CW1352MP_BIRD61A_11C_V33_GPRS_MMI/Tools/MinGW/include/c++/3.3.1/new **** // the Free Software Foundation, 59 Temple Place - Suite 330,
  21:h:/6261A/11CW1352MP_BIRD61A_11C_V33_GPRS_MMI/Tools/MinGW/include/c++/3.3.1/new **** // Boston, MA 02111-1307, USA.
  22:h:/6261A/11CW1352MP_BIRD61A_11C_V33_GPRS_MMI/Tools/MinGW/include/c++/3.3.1/new **** 
  23:h:/6261A/11CW1352MP_BIRD61A_11C_V33_GPRS_MMI/Tools/MinGW/include/c++/3.3.1/new **** // As a special exception, you may use this file as part of a free software
  24:h:/6261A/11CW1352MP_BIRD61A_11C_V33_GPRS_MMI/Tools/MinGW/include/c++/3.3.1/new **** // library without restriction.  Specifically, if other files instantiate
GAS LISTING h:/6261A/11CW1352MP_BIRD61A_11C_V33_GPRS_MMI/plutommi/Customer/ResGenerator/gcctmp/ccEHcaaa.s 			page 141


  25:h:/6261A/11CW1352MP_BIRD61A_11C_V33_GPRS_MMI/Tools/MinGW/include/c++/3.3.1/new **** // templates or use macros or inline functions from this file, or you compile
  26:h:/6261A/11CW1352MP_BIRD61A_11C_V33_GPRS_MMI/Tools/MinGW/include/c++/3.3.1/new **** // this file and link it with other files to produce an executable, this
  27:h:/6261A/11CW1352MP_BIRD61A_11C_V33_GPRS_MMI/Tools/MinGW/include/c++/3.3.1/new **** // file does not by itself cause the resulting executable to be covered by
  28:h:/6261A/11CW1352MP_BIRD61A_11C_V33_GPRS_MMI/Tools/MinGW/include/c++/3.3.1/new **** // the GNU General Public License.  This exception does not however
  29:h:/6261A/11CW1352MP_BIRD61A_11C_V33_GPRS_MMI/Tools/MinGW/include/c++/3.3.1/new **** // invalidate any other reasons why the executable file might be covered by
  30:h:/6261A/11CW1352MP_BIRD61A_11C_V33_GPRS_MMI/Tools/MinGW/include/c++/3.3.1/new **** // the GNU General Public License.
  31:h:/6261A/11CW1352MP_BIRD61A_11C_V33_GPRS_MMI/Tools/MinGW/include/c++/3.3.1/new **** 
  32:h:/6261A/11CW1352MP_BIRD61A_11C_V33_GPRS_MMI/Tools/MinGW/include/c++/3.3.1/new **** /** @file new
  33:h:/6261A/11CW1352MP_BIRD61A_11C_V33_GPRS_MMI/Tools/MinGW/include/c++/3.3.1/new ****  *  The header @c new defines several functions to manage dynamic memory and
  34:h:/6261A/11CW1352MP_BIRD61A_11C_V33_GPRS_MMI/Tools/MinGW/include/c++/3.3.1/new ****  *  handling memory allocation errors; see
  35:h:/6261A/11CW1352MP_BIRD61A_11C_V33_GPRS_MMI/Tools/MinGW/include/c++/3.3.1/new ****  *  http://gcc.gnu.org/onlinedocs/libstdc++/18_support/howto.html#4 for more.
  36:h:/6261A/11CW1352MP_BIRD61A_11C_V33_GPRS_MMI/Tools/MinGW/include/c++/3.3.1/new ****  */
  37:h:/6261A/11CW1352MP_BIRD61A_11C_V33_GPRS_MMI/Tools/MinGW/include/c++/3.3.1/new **** 
  38:h:/6261A/11CW1352MP_BIRD61A_11C_V33_GPRS_MMI/Tools/MinGW/include/c++/3.3.1/new **** #ifndef __NEW__
  39:h:/6261A/11CW1352MP_BIRD61A_11C_V33_GPRS_MMI/Tools/MinGW/include/c++/3.3.1/new **** #define __NEW__
  40:h:/6261A/11CW1352MP_BIRD61A_11C_V33_GPRS_MMI/Tools/MinGW/include/c++/3.3.1/new **** 
  41:h:/6261A/11CW1352MP_BIRD61A_11C_V33_GPRS_MMI/Tools/MinGW/include/c++/3.3.1/new **** #include <cstddef>
  42:h:/6261A/11CW1352MP_BIRD61A_11C_V33_GPRS_MMI/Tools/MinGW/include/c++/3.3.1/new **** #include <exception>
  43:h:/6261A/11CW1352MP_BIRD61A_11C_V33_GPRS_MMI/Tools/MinGW/include/c++/3.3.1/new **** 
  44:h:/6261A/11CW1352MP_BIRD61A_11C_V33_GPRS_MMI/Tools/MinGW/include/c++/3.3.1/new **** extern "C++" {
  45:h:/6261A/11CW1352MP_BIRD61A_11C_V33_GPRS_MMI/Tools/MinGW/include/c++/3.3.1/new **** 
  46:h:/6261A/11CW1352MP_BIRD61A_11C_V33_GPRS_MMI/Tools/MinGW/include/c++/3.3.1/new **** namespace std 
  47:h:/6261A/11CW1352MP_BIRD61A_11C_V33_GPRS_MMI/Tools/MinGW/include/c++/3.3.1/new **** {
  48:h:/6261A/11CW1352MP_BIRD61A_11C_V33_GPRS_MMI/Tools/MinGW/include/c++/3.3.1/new ****   /**
  49:h:/6261A/11CW1352MP_BIRD61A_11C_V33_GPRS_MMI/Tools/MinGW/include/c++/3.3.1/new ****    *  @brief  Exception possibly thrown by @c new.
  50:h:/6261A/11CW1352MP_BIRD61A_11C_V33_GPRS_MMI/Tools/MinGW/include/c++/3.3.1/new ****    *
  51:h:/6261A/11CW1352MP_BIRD61A_11C_V33_GPRS_MMI/Tools/MinGW/include/c++/3.3.1/new ****    *  @c bad_alloc (or classes derived from it) is used to report allocation
  52:h:/6261A/11CW1352MP_BIRD61A_11C_V33_GPRS_MMI/Tools/MinGW/include/c++/3.3.1/new ****    *  errors from the throwing forms of @c new.  */
  53:h:/6261A/11CW1352MP_BIRD61A_11C_V33_GPRS_MMI/Tools/MinGW/include/c++/3.3.1/new ****   class bad_alloc : public exception 
  54:h:/6261A/11CW1352MP_BIRD61A_11C_V33_GPRS_MMI/Tools/MinGW/include/c++/3.3.1/new ****   {
  55:h:/6261A/11CW1352MP_BIRD61A_11C_V33_GPRS_MMI/Tools/MinGW/include/c++/3.3.1/new ****   public:
  56:h:/6261A/11CW1352MP_BIRD61A_11C_V33_GPRS_MMI/Tools/MinGW/include/c++/3.3.1/new ****     bad_alloc() throw() { }
  57:h:/6261A/11CW1352MP_BIRD61A_11C_V33_GPRS_MMI/Tools/MinGW/include/c++/3.3.1/new ****     // This declaration is not useless:
  58:h:/6261A/11CW1352MP_BIRD61A_11C_V33_GPRS_MMI/Tools/MinGW/include/c++/3.3.1/new ****     // http://gcc.gnu.org/onlinedocs/gcc-3.0.2/gcc_6.html#SEC118
  59:h:/6261A/11CW1352MP_BIRD61A_11C_V33_GPRS_MMI/Tools/MinGW/include/c++/3.3.1/new ****     virtual ~bad_alloc() throw();
  60:h:/6261A/11CW1352MP_BIRD61A_11C_V33_GPRS_MMI/Tools/MinGW/include/c++/3.3.1/new ****   };
  61:h:/6261A/11CW1352MP_BIRD61A_11C_V33_GPRS_MMI/Tools/MinGW/include/c++/3.3.1/new **** 
  62:h:/6261A/11CW1352MP_BIRD61A_11C_V33_GPRS_MMI/Tools/MinGW/include/c++/3.3.1/new ****   struct nothrow_t { };
  63:h:/6261A/11CW1352MP_BIRD61A_11C_V33_GPRS_MMI/Tools/MinGW/include/c++/3.3.1/new ****   extern const nothrow_t nothrow;
  64:h:/6261A/11CW1352MP_BIRD61A_11C_V33_GPRS_MMI/Tools/MinGW/include/c++/3.3.1/new ****   /** If you write your own error handler to be called by @c new, it must
  65:h:/6261A/11CW1352MP_BIRD61A_11C_V33_GPRS_MMI/Tools/MinGW/include/c++/3.3.1/new ****    *  be of this type.  */
  66:h:/6261A/11CW1352MP_BIRD61A_11C_V33_GPRS_MMI/Tools/MinGW/include/c++/3.3.1/new ****   typedef void (*new_handler)();
  67:h:/6261A/11CW1352MP_BIRD61A_11C_V33_GPRS_MMI/Tools/MinGW/include/c++/3.3.1/new ****   /// Takes a replacement handler as the argument, returns the previous handler.
  68:h:/6261A/11CW1352MP_BIRD61A_11C_V33_GPRS_MMI/Tools/MinGW/include/c++/3.3.1/new ****   new_handler set_new_handler(new_handler) throw();
  69:h:/6261A/11CW1352MP_BIRD61A_11C_V33_GPRS_MMI/Tools/MinGW/include/c++/3.3.1/new **** } // namespace std
  70:h:/6261A/11CW1352MP_BIRD61A_11C_V33_GPRS_MMI/Tools/MinGW/include/c++/3.3.1/new **** 
  71:h:/6261A/11CW1352MP_BIRD61A_11C_V33_GPRS_MMI/Tools/MinGW/include/c++/3.3.1/new **** //@{
  72:h:/6261A/11CW1352MP_BIRD61A_11C_V33_GPRS_MMI/Tools/MinGW/include/c++/3.3.1/new **** /** These are replaceable signatures:
  73:h:/6261A/11CW1352MP_BIRD61A_11C_V33_GPRS_MMI/Tools/MinGW/include/c++/3.3.1/new ****  *  - normal single new and delete (no arguments, throw @c bad_alloc on error)
  74:h:/6261A/11CW1352MP_BIRD61A_11C_V33_GPRS_MMI/Tools/MinGW/include/c++/3.3.1/new ****  *  - normal array new and delete (same)
  75:h:/6261A/11CW1352MP_BIRD61A_11C_V33_GPRS_MMI/Tools/MinGW/include/c++/3.3.1/new ****  *  - @c nothrow single new and delete (take a @c nothrow argument, return
  76:h:/6261A/11CW1352MP_BIRD61A_11C_V33_GPRS_MMI/Tools/MinGW/include/c++/3.3.1/new ****  *    @c NULL on error)
  77:h:/6261A/11CW1352MP_BIRD61A_11C_V33_GPRS_MMI/Tools/MinGW/include/c++/3.3.1/new ****  *  - @c nothrow array new and delete (same)
  78:h:/6261A/11CW1352MP_BIRD61A_11C_V33_GPRS_MMI/Tools/MinGW/include/c++/3.3.1/new ****  *
  79:h:/6261A/11CW1352MP_BIRD61A_11C_V33_GPRS_MMI/Tools/MinGW/include/c++/3.3.1/new ****  *  Placement new and delete signatures (take a memory address argument,
  80:h:/6261A/11CW1352MP_BIRD61A_11C_V33_GPRS_MMI/Tools/MinGW/include/c++/3.3.1/new ****  *  does nothing) may not be replaced by a user's program.
  81:h:/6261A/11CW1352MP_BIRD61A_11C_V33_GPRS_MMI/Tools/MinGW/include/c++/3.3.1/new **** */
GAS LISTING h:/6261A/11CW1352MP_BIRD61A_11C_V33_GPRS_MMI/plutommi/Customer/ResGenerator/gcctmp/ccEHcaaa.s 			page 142


  82:h:/6261A/11CW1352MP_BIRD61A_11C_V33_GPRS_MMI/Tools/MinGW/include/c++/3.3.1/new **** void* operator new(std::size_t) throw (std::bad_alloc);
  83:h:/6261A/11CW1352MP_BIRD61A_11C_V33_GPRS_MMI/Tools/MinGW/include/c++/3.3.1/new **** void* operator new[](std::size_t) throw (std::bad_alloc);
  84:h:/6261A/11CW1352MP_BIRD61A_11C_V33_GPRS_MMI/Tools/MinGW/include/c++/3.3.1/new **** void operator delete(void*) throw();
  85:h:/6261A/11CW1352MP_BIRD61A_11C_V33_GPRS_MMI/Tools/MinGW/include/c++/3.3.1/new **** void operator delete[](void*) throw();
  86:h:/6261A/11CW1352MP_BIRD61A_11C_V33_GPRS_MMI/Tools/MinGW/include/c++/3.3.1/new **** void* operator new(std::size_t, const std::nothrow_t&) throw();
  87:h:/6261A/11CW1352MP_BIRD61A_11C_V33_GPRS_MMI/Tools/MinGW/include/c++/3.3.1/new **** void* operator new[](std::size_t, const std::nothrow_t&) throw();
  88:h:/6261A/11CW1352MP_BIRD61A_11C_V33_GPRS_MMI/Tools/MinGW/include/c++/3.3.1/new **** void operator delete(void*, const std::nothrow_t&) throw();
  89:h:/6261A/11CW1352MP_BIRD61A_11C_V33_GPRS_MMI/Tools/MinGW/include/c++/3.3.1/new **** void operator delete[](void*, const std::nothrow_t&) throw();
  90:h:/6261A/11CW1352MP_BIRD61A_11C_V33_GPRS_MMI/Tools/MinGW/include/c++/3.3.1/new **** 
  91:h:/6261A/11CW1352MP_BIRD61A_11C_V33_GPRS_MMI/Tools/MinGW/include/c++/3.3.1/new **** // Default placement versions of operator new.
  92:h:/6261A/11CW1352MP_BIRD61A_11C_V33_GPRS_MMI/Tools/MinGW/include/c++/3.3.1/new **** inline void* operator new(std::size_t, void* __p) throw() { return __p; }
 8386              	LM320:
 8387 0000 55       		pushl	%ebp
 8388 0001 89E5     		movl	%esp, %ebp
 8390              	LM321:
 8391              	LBB86:
 8392 0003 8B450C   		movl	12(%ebp), %eax
 8393              	L271:
 8394              	L270:
 8395 0006 5D       		popl	%ebp
 8396 0007 C3       		ret
 8397              	LBE86:
 8398              	Lscope65:
 8400              		.section	.text$_ZNSt19_List_iterator_baseC2EPSt15_List_node_base,"x"
 8401              		.linkonce discard
 8402              		.align 2
 8406              	.globl __ZNSt19_List_iterator_baseC2EPSt15_List_node_base
 8408              	__ZNSt19_List_iterator_baseC2EPSt15_List_node_base:
 8410              	Ltext30:
 8412              	LM322:
 8413 0000 55       		pushl	%ebp
 8414 0001 89E5     		movl	%esp, %ebp
 8416              	LM323:
 8417              	LBB87:
 8418 0003 8B5508   		movl	8(%ebp), %edx
 8419 0006 8B450C   		movl	12(%ebp), %eax
 8420 0009 8902     		movl	%eax, (%edx)
 8421 000b 5D       		popl	%ebp
 8422 000c C3       		ret
 8423              	LBE87:
 8424              	Lscope66:
 8426 000d 909090   		.section	.text$_ZNKSt6vectorIN10ThreadPool10ThreadDataESaIS1_EE4sizeEv,"x"
 8427              		.linkonce discard
 8428              		.align 2
 8431              	.globl __ZNKSt6vectorIN10ThreadPool10ThreadDataESaIS1_EE4sizeEv
 8433              	__ZNKSt6vectorIN10ThreadPool10ThreadDataESaIS1_EE4sizeEv:
 8435              	Ltext31:
 8437              	LM324:
 8438 0000 55       		pushl	%ebp
 8439 0001 89E5     		movl	%esp, %ebp
 8440 0003 53       		pushl	%ebx
 8441 0004 83EC14   		subl	$20, %esp
 8443              	LM325:
 8444              	LBB88:
 8445 0007 8B4508   		movl	8(%ebp), %eax
 8446 000a 890424   		movl	%eax, (%esp)
 8447 000d E8000000 		call	__ZNKSt6vectorIN10ThreadPool10ThreadDataESaIS1_EE5beginEv
GAS LISTING h:/6261A/11CW1352MP_BIRD61A_11C_V33_GPRS_MMI/plutommi/Customer/ResGenerator/gcctmp/ccEHcaaa.s 			page 143


 8447      00
 8448 0012 8945F8   		movl	%eax, -8(%ebp)
 8449 0015 8D5DF8   		leal	-8(%ebp), %ebx
 8450 0018 8B4508   		movl	8(%ebp), %eax
 8451 001b 890424   		movl	%eax, (%esp)
 8452 001e E8000000 		call	__ZNKSt6vectorIN10ThreadPool10ThreadDataESaIS1_EE3endEv
 8452      00
 8453 0023 8945F4   		movl	%eax, -12(%ebp)
 8454 0026 8D45F4   		leal	-12(%ebp), %eax
 8455 0029 895C2404 		movl	%ebx, 4(%esp)
 8456 002d 890424   		movl	%eax, (%esp)
 8457 0030 E8000000 		call	__ZN9__gnu_cxxmiIPKN10ThreadPool10ThreadDataES4_St6vectorIS2_SaIS2_EEEENS_17__normal_iterator
 8457      00
 8458 0035 83C414   		addl	$20, %esp
 8459 0038 5B       		popl	%ebx
 8460 0039 5D       		popl	%ebp
 8461 003a C3       		ret
 8462              	LBE88:
 8463              	Lscope67:
 8465 003b 90       		.section	.text$_ZNKSt6vectorIN10ThreadPool10ThreadDataESaIS1_EE5beginEv,"x"
 8466              		.linkonce discard
 8467              		.align 2
 8470              	.globl __ZNKSt6vectorIN10ThreadPool10ThreadDataESaIS1_EE5beginEv
 8472              	__ZNKSt6vectorIN10ThreadPool10ThreadDataESaIS1_EE5beginEv:
 8474              	LM326:
 8475 0000 55       		pushl	%ebp
 8476 0001 89E5     		movl	%esp, %ebp
 8477 0003 83EC18   		subl	$24, %esp
 8479              	LM327:
 8480              	LBB89:
 8481 0006 8B4508   		movl	8(%ebp), %eax
 8482 0009 8B00     		movl	(%eax), %eax
 8483 000b 8945F8   		movl	%eax, -8(%ebp)
 8484 000e 8D45F8   		leal	-8(%ebp), %eax
 8485 0011 89442404 		movl	%eax, 4(%esp)
 8486 0015 8D45FC   		leal	-4(%ebp), %eax
 8487 0018 890424   		movl	%eax, (%esp)
 8488 001b E8000000 		call	__ZN9__gnu_cxx17__normal_iteratorIPKN10ThreadPool10ThreadDataESt6vectorIS2_SaIS2_EEEC1ERKS4_
 8488      00
 8489 0020 8B45FC   		movl	-4(%ebp), %eax
 8490 0023 C9       		leave
 8491 0024 C3       		ret
 8492              	LBE89:
 8493              	Lscope68:
 8495 0025 909090   		.section	.text$_ZN9__gnu_cxx17__normal_iteratorIPKN10ThreadPool10ThreadDataESt6vectorIS2_SaIS2_EEE
 8496              		.linkonce discard
 8497              		.align 2
 8501              	.globl __ZN9__gnu_cxx17__normal_iteratorIPKN10ThreadPool10ThreadDataESt6vectorIS2_SaIS2_EEEC1ERKS4_
 8503              	__ZN9__gnu_cxx17__normal_iteratorIPKN10ThreadPool10ThreadDataESt6vectorIS2_SaIS2_EEEC1ERKS4_:
 8505              	Ltext32:
 8507              	LM328:
 8508 0000 55       		pushl	%ebp
 8509 0001 89E5     		movl	%esp, %ebp
 8510 0003 83EC08   		subl	$8, %esp
 8512              	LM329:
 8513              	LBB90:
 8514 0006 8B4508   		movl	8(%ebp), %eax
GAS LISTING h:/6261A/11CW1352MP_BIRD61A_11C_V33_GPRS_MMI/plutommi/Customer/ResGenerator/gcctmp/ccEHcaaa.s 			page 144


 8515 0009 890424   		movl	%eax, (%esp)
 8516 000c E8000000 		call	__ZNSt8iteratorISt26random_access_iterator_tagN10ThreadPool10ThreadDataEiPKS2_RS3_EC2Ev
 8516      00
 8517 0011 8B5508   		movl	8(%ebp), %edx
 8518 0014 8B450C   		movl	12(%ebp), %eax
 8519 0017 8B00     		movl	(%eax), %eax
 8520 0019 8902     		movl	%eax, (%edx)
 8521 001b C9       		leave
 8522 001c C3       		ret
 8523              	LBE90:
 8524              	Lscope69:
 8526 001d 909090   		.section	.text$_ZNKSt6vectorIN10ThreadPool10ThreadDataESaIS1_EE3endEv,"x"
 8527              		.linkonce discard
 8528              		.align 2
 8531              	.globl __ZNKSt6vectorIN10ThreadPool10ThreadDataESaIS1_EE3endEv
 8533              	__ZNKSt6vectorIN10ThreadPool10ThreadDataESaIS1_EE3endEv:
 8535              	Ltext33:
 8537              	LM330:
 8538 0000 55       		pushl	%ebp
 8539 0001 89E5     		movl	%esp, %ebp
 8540 0003 83EC18   		subl	$24, %esp
 8542              	LM331:
 8543              	LBB91:
 8544 0006 8B4508   		movl	8(%ebp), %eax
 8545 0009 8B4004   		movl	4(%eax), %eax
 8546 000c 8945F8   		movl	%eax, -8(%ebp)
 8547 000f 8D45F8   		leal	-8(%ebp), %eax
 8548 0012 89442404 		movl	%eax, 4(%esp)
 8549 0016 8D45FC   		leal	-4(%ebp), %eax
 8550 0019 890424   		movl	%eax, (%esp)
 8551 001c E8000000 		call	__ZN9__gnu_cxx17__normal_iteratorIPKN10ThreadPool10ThreadDataESt6vectorIS2_SaIS2_EEEC1ERKS4_
 8551      00
 8552 0021 8B45FC   		movl	-4(%ebp), %eax
 8553 0024 C9       		leave
 8554 0025 C3       		ret
 8555              	LBE91:
 8556              	Lscope70:
 8558 0026 9090     		.section	.text$_ZN9__gnu_cxxmiIPKN10ThreadPool10ThreadDataES4_St6vectorIS2_SaIS2_EEEENS_17__normal
 8559              		.linkonce discard
 8560              		.align 2
 8564              	.globl __ZN9__gnu_cxxmiIPKN10ThreadPool10ThreadDataES4_St6vectorIS2_SaIS2_EEEENS_17__normal_iterato
 8566              	__ZN9__gnu_cxxmiIPKN10ThreadPool10ThreadDataES4_St6vectorIS2_SaIS2_EEEENS_17__normal_iteratorIT_T1_
 8568              	Ltext34:
 677:h:/6261A/11CW1352MP_BIRD61A_11C_V33_GPRS_MMI/Tools/MinGW/include/c++/3.3.1/bits/stl_iterator.h **** 
 678:h:/6261A/11CW1352MP_BIRD61A_11C_V33_GPRS_MMI/Tools/MinGW/include/c++/3.3.1/bits/stl_iterator.h ****   // Random access iterator requirements
 679:h:/6261A/11CW1352MP_BIRD61A_11C_V33_GPRS_MMI/Tools/MinGW/include/c++/3.3.1/bits/stl_iterator.h ****   template<typename _IteratorL, typename _IteratorR, typename _Container>
 680:h:/6261A/11CW1352MP_BIRD61A_11C_V33_GPRS_MMI/Tools/MinGW/include/c++/3.3.1/bits/stl_iterator.h ****   inline bool 
 681:h:/6261A/11CW1352MP_BIRD61A_11C_V33_GPRS_MMI/Tools/MinGW/include/c++/3.3.1/bits/stl_iterator.h ****   operator<(const __normal_iterator<_IteratorL, _Container>& __lhs,
 682:h:/6261A/11CW1352MP_BIRD61A_11C_V33_GPRS_MMI/Tools/MinGW/include/c++/3.3.1/bits/stl_iterator.h **** 	    const __normal_iterator<_IteratorR, _Container>& __rhs)
 683:h:/6261A/11CW1352MP_BIRD61A_11C_V33_GPRS_MMI/Tools/MinGW/include/c++/3.3.1/bits/stl_iterator.h ****   { return __lhs.base() < __rhs.base(); }
 684:h:/6261A/11CW1352MP_BIRD61A_11C_V33_GPRS_MMI/Tools/MinGW/include/c++/3.3.1/bits/stl_iterator.h **** 
 685:h:/6261A/11CW1352MP_BIRD61A_11C_V33_GPRS_MMI/Tools/MinGW/include/c++/3.3.1/bits/stl_iterator.h ****   template<typename _Iterator, typename _Container>
 686:h:/6261A/11CW1352MP_BIRD61A_11C_V33_GPRS_MMI/Tools/MinGW/include/c++/3.3.1/bits/stl_iterator.h ****   inline bool
 687:h:/6261A/11CW1352MP_BIRD61A_11C_V33_GPRS_MMI/Tools/MinGW/include/c++/3.3.1/bits/stl_iterator.h ****   operator<(const __normal_iterator<_Iterator, _Container>& __lhs,
 688:h:/6261A/11CW1352MP_BIRD61A_11C_V33_GPRS_MMI/Tools/MinGW/include/c++/3.3.1/bits/stl_iterator.h ****              const __normal_iterator<_Iterator, _Container>& __rhs)
 689:h:/6261A/11CW1352MP_BIRD61A_11C_V33_GPRS_MMI/Tools/MinGW/include/c++/3.3.1/bits/stl_iterator.h ****   { return __lhs.base() < __rhs.base(); }
 690:h:/6261A/11CW1352MP_BIRD61A_11C_V33_GPRS_MMI/Tools/MinGW/include/c++/3.3.1/bits/stl_iterator.h **** 
GAS LISTING h:/6261A/11CW1352MP_BIRD61A_11C_V33_GPRS_MMI/plutommi/Customer/ResGenerator/gcctmp/ccEHcaaa.s 			page 145


 691:h:/6261A/11CW1352MP_BIRD61A_11C_V33_GPRS_MMI/Tools/MinGW/include/c++/3.3.1/bits/stl_iterator.h ****   template<typename _IteratorL, typename _IteratorR, typename _Container>
 692:h:/6261A/11CW1352MP_BIRD61A_11C_V33_GPRS_MMI/Tools/MinGW/include/c++/3.3.1/bits/stl_iterator.h ****   inline bool
 693:h:/6261A/11CW1352MP_BIRD61A_11C_V33_GPRS_MMI/Tools/MinGW/include/c++/3.3.1/bits/stl_iterator.h ****   operator>(const __normal_iterator<_IteratorL, _Container>& __lhs,
 694:h:/6261A/11CW1352MP_BIRD61A_11C_V33_GPRS_MMI/Tools/MinGW/include/c++/3.3.1/bits/stl_iterator.h **** 	    const __normal_iterator<_IteratorR, _Container>& __rhs)
 695:h:/6261A/11CW1352MP_BIRD61A_11C_V33_GPRS_MMI/Tools/MinGW/include/c++/3.3.1/bits/stl_iterator.h ****   { return __lhs.base() > __rhs.base(); }
 696:h:/6261A/11CW1352MP_BIRD61A_11C_V33_GPRS_MMI/Tools/MinGW/include/c++/3.3.1/bits/stl_iterator.h **** 
 697:h:/6261A/11CW1352MP_BIRD61A_11C_V33_GPRS_MMI/Tools/MinGW/include/c++/3.3.1/bits/stl_iterator.h ****   template<typename _Iterator, typename _Container>
 698:h:/6261A/11CW1352MP_BIRD61A_11C_V33_GPRS_MMI/Tools/MinGW/include/c++/3.3.1/bits/stl_iterator.h ****   inline bool
 699:h:/6261A/11CW1352MP_BIRD61A_11C_V33_GPRS_MMI/Tools/MinGW/include/c++/3.3.1/bits/stl_iterator.h ****   operator>(const __normal_iterator<_Iterator, _Container>& __lhs,
 700:h:/6261A/11CW1352MP_BIRD61A_11C_V33_GPRS_MMI/Tools/MinGW/include/c++/3.3.1/bits/stl_iterator.h **** 	    const __normal_iterator<_Iterator, _Container>& __rhs)
 701:h:/6261A/11CW1352MP_BIRD61A_11C_V33_GPRS_MMI/Tools/MinGW/include/c++/3.3.1/bits/stl_iterator.h ****   { return __lhs.base() > __rhs.base(); }
 702:h:/6261A/11CW1352MP_BIRD61A_11C_V33_GPRS_MMI/Tools/MinGW/include/c++/3.3.1/bits/stl_iterator.h **** 
 703:h:/6261A/11CW1352MP_BIRD61A_11C_V33_GPRS_MMI/Tools/MinGW/include/c++/3.3.1/bits/stl_iterator.h ****   template<typename _IteratorL, typename _IteratorR, typename _Container>
 704:h:/6261A/11CW1352MP_BIRD61A_11C_V33_GPRS_MMI/Tools/MinGW/include/c++/3.3.1/bits/stl_iterator.h ****   inline bool
 705:h:/6261A/11CW1352MP_BIRD61A_11C_V33_GPRS_MMI/Tools/MinGW/include/c++/3.3.1/bits/stl_iterator.h ****   operator<=(const __normal_iterator<_IteratorL, _Container>& __lhs,
 706:h:/6261A/11CW1352MP_BIRD61A_11C_V33_GPRS_MMI/Tools/MinGW/include/c++/3.3.1/bits/stl_iterator.h **** 	     const __normal_iterator<_IteratorR, _Container>& __rhs)
 707:h:/6261A/11CW1352MP_BIRD61A_11C_V33_GPRS_MMI/Tools/MinGW/include/c++/3.3.1/bits/stl_iterator.h ****   { return __lhs.base() <= __rhs.base(); }
 708:h:/6261A/11CW1352MP_BIRD61A_11C_V33_GPRS_MMI/Tools/MinGW/include/c++/3.3.1/bits/stl_iterator.h **** 
 709:h:/6261A/11CW1352MP_BIRD61A_11C_V33_GPRS_MMI/Tools/MinGW/include/c++/3.3.1/bits/stl_iterator.h ****   template<typename _Iterator, typename _Container>
 710:h:/6261A/11CW1352MP_BIRD61A_11C_V33_GPRS_MMI/Tools/MinGW/include/c++/3.3.1/bits/stl_iterator.h ****   inline bool
 711:h:/6261A/11CW1352MP_BIRD61A_11C_V33_GPRS_MMI/Tools/MinGW/include/c++/3.3.1/bits/stl_iterator.h ****   operator<=(const __normal_iterator<_Iterator, _Container>& __lhs,
 712:h:/6261A/11CW1352MP_BIRD61A_11C_V33_GPRS_MMI/Tools/MinGW/include/c++/3.3.1/bits/stl_iterator.h **** 	     const __normal_iterator<_Iterator, _Container>& __rhs)
 713:h:/6261A/11CW1352MP_BIRD61A_11C_V33_GPRS_MMI/Tools/MinGW/include/c++/3.3.1/bits/stl_iterator.h ****   { return __lhs.base() <= __rhs.base(); }
 714:h:/6261A/11CW1352MP_BIRD61A_11C_V33_GPRS_MMI/Tools/MinGW/include/c++/3.3.1/bits/stl_iterator.h **** 
 715:h:/6261A/11CW1352MP_BIRD61A_11C_V33_GPRS_MMI/Tools/MinGW/include/c++/3.3.1/bits/stl_iterator.h ****   template<typename _IteratorL, typename _IteratorR, typename _Container>
 716:h:/6261A/11CW1352MP_BIRD61A_11C_V33_GPRS_MMI/Tools/MinGW/include/c++/3.3.1/bits/stl_iterator.h ****   inline bool
 717:h:/6261A/11CW1352MP_BIRD61A_11C_V33_GPRS_MMI/Tools/MinGW/include/c++/3.3.1/bits/stl_iterator.h ****   operator>=(const __normal_iterator<_IteratorL, _Container>& __lhs,
 718:h:/6261A/11CW1352MP_BIRD61A_11C_V33_GPRS_MMI/Tools/MinGW/include/c++/3.3.1/bits/stl_iterator.h **** 	     const __normal_iterator<_IteratorR, _Container>& __rhs)
 719:h:/6261A/11CW1352MP_BIRD61A_11C_V33_GPRS_MMI/Tools/MinGW/include/c++/3.3.1/bits/stl_iterator.h ****   { return __lhs.base() >= __rhs.base(); }
 720:h:/6261A/11CW1352MP_BIRD61A_11C_V33_GPRS_MMI/Tools/MinGW/include/c++/3.3.1/bits/stl_iterator.h **** 
 721:h:/6261A/11CW1352MP_BIRD61A_11C_V33_GPRS_MMI/Tools/MinGW/include/c++/3.3.1/bits/stl_iterator.h ****   template<typename _Iterator, typename _Container>
 722:h:/6261A/11CW1352MP_BIRD61A_11C_V33_GPRS_MMI/Tools/MinGW/include/c++/3.3.1/bits/stl_iterator.h ****   inline bool
 723:h:/6261A/11CW1352MP_BIRD61A_11C_V33_GPRS_MMI/Tools/MinGW/include/c++/3.3.1/bits/stl_iterator.h ****   operator>=(const __normal_iterator<_Iterator, _Container>& __lhs,
 724:h:/6261A/11CW1352MP_BIRD61A_11C_V33_GPRS_MMI/Tools/MinGW/include/c++/3.3.1/bits/stl_iterator.h **** 	     const __normal_iterator<_Iterator, _Container>& __rhs)
 725:h:/6261A/11CW1352MP_BIRD61A_11C_V33_GPRS_MMI/Tools/MinGW/include/c++/3.3.1/bits/stl_iterator.h ****   { return __lhs.base() >= __rhs.base(); }
 726:h:/6261A/11CW1352MP_BIRD61A_11C_V33_GPRS_MMI/Tools/MinGW/include/c++/3.3.1/bits/stl_iterator.h **** 
 727:h:/6261A/11CW1352MP_BIRD61A_11C_V33_GPRS_MMI/Tools/MinGW/include/c++/3.3.1/bits/stl_iterator.h ****   // _GLIBCPP_RESOLVE_LIB_DEFECTS
 728:h:/6261A/11CW1352MP_BIRD61A_11C_V33_GPRS_MMI/Tools/MinGW/include/c++/3.3.1/bits/stl_iterator.h ****   // According to the resolution of DR179 not only the various comparison
 729:h:/6261A/11CW1352MP_BIRD61A_11C_V33_GPRS_MMI/Tools/MinGW/include/c++/3.3.1/bits/stl_iterator.h ****   // operators but also operator- must accept mixed iterator/const_iterator
 730:h:/6261A/11CW1352MP_BIRD61A_11C_V33_GPRS_MMI/Tools/MinGW/include/c++/3.3.1/bits/stl_iterator.h ****   // parameters.
 731:h:/6261A/11CW1352MP_BIRD61A_11C_V33_GPRS_MMI/Tools/MinGW/include/c++/3.3.1/bits/stl_iterator.h ****   template<typename _IteratorL, typename _IteratorR, typename _Container>
 732:h:/6261A/11CW1352MP_BIRD61A_11C_V33_GPRS_MMI/Tools/MinGW/include/c++/3.3.1/bits/stl_iterator.h ****   inline typename __normal_iterator<_IteratorL, _Container>::difference_type
 733:h:/6261A/11CW1352MP_BIRD61A_11C_V33_GPRS_MMI/Tools/MinGW/include/c++/3.3.1/bits/stl_iterator.h ****   operator-(const __normal_iterator<_IteratorL, _Container>& __lhs,
 734:h:/6261A/11CW1352MP_BIRD61A_11C_V33_GPRS_MMI/Tools/MinGW/include/c++/3.3.1/bits/stl_iterator.h **** 	     const __normal_iterator<_IteratorR, _Container>& __rhs)
 735:h:/6261A/11CW1352MP_BIRD61A_11C_V33_GPRS_MMI/Tools/MinGW/include/c++/3.3.1/bits/stl_iterator.h ****   { return __lhs.base() - __rhs.base(); }
 8570              	LM332:
 8571 0000 55       		pushl	%ebp
 8572 0001 89E5     		movl	%esp, %ebp
 8573 0003 53       		pushl	%ebx
 8574 0004 83EC04   		subl	$4, %esp
 8576              	LM333:
 8577              	LBB92:
 8578 0007 8B4508   		movl	8(%ebp), %eax
 8579 000a 890424   		movl	%eax, (%esp)
 8580 000d E8000000 		call	__ZNK9__gnu_cxx17__normal_iteratorIPKN10ThreadPool10ThreadDataESt6vectorIS2_SaIS2_EEE4baseEv
 8580      00
 8581 0012 89C3     		movl	%eax, %ebx
GAS LISTING h:/6261A/11CW1352MP_BIRD61A_11C_V33_GPRS_MMI/plutommi/Customer/ResGenerator/gcctmp/ccEHcaaa.s 			page 146


 8582 0014 8B450C   		movl	12(%ebp), %eax
 8583 0017 890424   		movl	%eax, (%esp)
 8584 001a E8000000 		call	__ZNK9__gnu_cxx17__normal_iteratorIPKN10ThreadPool10ThreadDataESt6vectorIS2_SaIS2_EEE4baseEv
 8584      00
 8585 001f 8B10     		movl	(%eax), %edx
 8586 0021 8B03     		movl	(%ebx), %eax
 8587 0023 29D0     		subl	%edx, %eax
 8588 0025 C1F802   		sarl	$2, %eax
 8589 0028 69C0ABAA 		imull	$-1431655765, %eax, %eax
 8589      AAAA
 8590 002e 83C404   		addl	$4, %esp
 8591 0031 5B       		popl	%ebx
 8592 0032 5D       		popl	%ebp
 8593 0033 C3       		ret
 8594              	LBE92:
 8595              	Lscope71:
 8597              		.section	.text$_ZNK9__gnu_cxx17__normal_iteratorIPKN10ThreadPool10ThreadDataESt6vectorIS2_SaIS2_EE
 8598              		.linkonce discard
 8599              		.align 2
 8602              	.globl __ZNK9__gnu_cxx17__normal_iteratorIPKN10ThreadPool10ThreadDataESt6vectorIS2_SaIS2_EEE4baseEv
 8604              	__ZNK9__gnu_cxx17__normal_iteratorIPKN10ThreadPool10ThreadDataESt6vectorIS2_SaIS2_EEE4baseEv:
 8606              	LM334:
 8607 0000 55       		pushl	%ebp
 8608 0001 89E5     		movl	%esp, %ebp
 8610              	LM335:
 8611              	LBB93:
 8612 0003 8B4508   		movl	8(%ebp), %eax
 8613 0006 5D       		popl	%ebp
 8614 0007 C3       		ret
 8615              	LBE93:
 8616              	Lscope72:
 8618              		.section	.text$_ZSt8_DestroyIN10ThreadPool7JobDataEEvPT_,"x"
 8619              		.linkonce discard
 8620              		.align 2
 8623              	.globl __ZSt8_DestroyIN10ThreadPool7JobDataEEvPT_
 8625              	__ZSt8_DestroyIN10ThreadPool7JobDataEEvPT_:
 8627              	Ltext35:
 8629              	LM336:
 8630 0000 55       		pushl	%ebp
 8631 0001 89E5     		movl	%esp, %ebp
 8633              	LM337:
 8634 0003 5D       		popl	%ebp
 8635 0004 C3       		ret
 8636              	Lscope73:
 8638 0005 909090   		.section	.text$_ZNSt8iteratorISt26random_access_iterator_tagN10ThreadPool10ThreadDataEiPS2_RS2_EC2
 8639              		.linkonce discard
 8640              		.align 2
 8643              	.globl __ZNSt8iteratorISt26random_access_iterator_tagN10ThreadPool10ThreadDataEiPS2_RS2_EC2Ev
 8645              	__ZNSt8iteratorISt26random_access_iterator_tagN10ThreadPool10ThreadDataEiPS2_RS2_EC2Ev:
 8647              	Ltext36:
 8649              	LM338:
 8650              	L282:
 8651              	L281:
 8652 0000 55       		pushl	%ebp
 8653 0001 89E5     		movl	%esp, %ebp
 8655              	LM339:
 8656 0003 5D       		popl	%ebp
GAS LISTING h:/6261A/11CW1352MP_BIRD61A_11C_V33_GPRS_MMI/plutommi/Customer/ResGenerator/gcctmp/ccEHcaaa.s 			page 147


 8657 0004 C3       		ret
 8658              	Lscope74:
 8660 0005 909090   		.section	.text$_ZSt13copy_backwardIN9__gnu_cxx17__normal_iteratorIPN10ThreadPool10ThreadDataESt6ve
 8661              		.linkonce discard
 8662              		.align 2
 8667              	.globl __ZSt13copy_backwardIN9__gnu_cxx17__normal_iteratorIPN10ThreadPool10ThreadDataESt6vectorIS3_
 8669              	__ZSt13copy_backwardIN9__gnu_cxx17__normal_iteratorIPN10ThreadPool10ThreadDataESt6vectorIS3_SaIS3_E
 8671              	Ltext37:
   1:h:/6261A/11CW1352MP_BIRD61A_11C_V33_GPRS_MMI/Tools/MinGW/include/c++/3.3.1/bits/stl_algobase.h **** // Bits and pieces used in algorithms -*- C++ -*-
   2:h:/6261A/11CW1352MP_BIRD61A_11C_V33_GPRS_MMI/Tools/MinGW/include/c++/3.3.1/bits/stl_algobase.h **** 
   3:h:/6261A/11CW1352MP_BIRD61A_11C_V33_GPRS_MMI/Tools/MinGW/include/c++/3.3.1/bits/stl_algobase.h **** // Copyright (C) 2001, 2002 Free Software Foundation, Inc.
   4:h:/6261A/11CW1352MP_BIRD61A_11C_V33_GPRS_MMI/Tools/MinGW/include/c++/3.3.1/bits/stl_algobase.h **** //
   5:h:/6261A/11CW1352MP_BIRD61A_11C_V33_GPRS_MMI/Tools/MinGW/include/c++/3.3.1/bits/stl_algobase.h **** // This file is part of the GNU ISO C++ Library.  This library is free
   6:h:/6261A/11CW1352MP_BIRD61A_11C_V33_GPRS_MMI/Tools/MinGW/include/c++/3.3.1/bits/stl_algobase.h **** // software; you can redistribute it and/or modify it under the
   7:h:/6261A/11CW1352MP_BIRD61A_11C_V33_GPRS_MMI/Tools/MinGW/include/c++/3.3.1/bits/stl_algobase.h **** // terms of the GNU General Public License as published by the
   8:h:/6261A/11CW1352MP_BIRD61A_11C_V33_GPRS_MMI/Tools/MinGW/include/c++/3.3.1/bits/stl_algobase.h **** // Free Software Foundation; either version 2, or (at your option)
   9:h:/6261A/11CW1352MP_BIRD61A_11C_V33_GPRS_MMI/Tools/MinGW/include/c++/3.3.1/bits/stl_algobase.h **** // any later version.
  10:h:/6261A/11CW1352MP_BIRD61A_11C_V33_GPRS_MMI/Tools/MinGW/include/c++/3.3.1/bits/stl_algobase.h **** 
  11:h:/6261A/11CW1352MP_BIRD61A_11C_V33_GPRS_MMI/Tools/MinGW/include/c++/3.3.1/bits/stl_algobase.h **** // This library is distributed in the hope that it will be useful,
  12:h:/6261A/11CW1352MP_BIRD61A_11C_V33_GPRS_MMI/Tools/MinGW/include/c++/3.3.1/bits/stl_algobase.h **** // but WITHOUT ANY WARRANTY; without even the implied warranty of
  13:h:/6261A/11CW1352MP_BIRD61A_11C_V33_GPRS_MMI/Tools/MinGW/include/c++/3.3.1/bits/stl_algobase.h **** // MERCHANTABILITY or FITNESS FOR A PARTICULAR PURPOSE.  See the
  14:h:/6261A/11CW1352MP_BIRD61A_11C_V33_GPRS_MMI/Tools/MinGW/include/c++/3.3.1/bits/stl_algobase.h **** // GNU General Public License for more details.
  15:h:/6261A/11CW1352MP_BIRD61A_11C_V33_GPRS_MMI/Tools/MinGW/include/c++/3.3.1/bits/stl_algobase.h **** 
  16:h:/6261A/11CW1352MP_BIRD61A_11C_V33_GPRS_MMI/Tools/MinGW/include/c++/3.3.1/bits/stl_algobase.h **** // You should have received a copy of the GNU General Public License along
  17:h:/6261A/11CW1352MP_BIRD61A_11C_V33_GPRS_MMI/Tools/MinGW/include/c++/3.3.1/bits/stl_algobase.h **** // with this library; see the file COPYING.  If not, write to the Free
  18:h:/6261A/11CW1352MP_BIRD61A_11C_V33_GPRS_MMI/Tools/MinGW/include/c++/3.3.1/bits/stl_algobase.h **** // Software Foundation, 59 Temple Place - Suite 330, Boston, MA 02111-1307,
  19:h:/6261A/11CW1352MP_BIRD61A_11C_V33_GPRS_MMI/Tools/MinGW/include/c++/3.3.1/bits/stl_algobase.h **** // USA.
  20:h:/6261A/11CW1352MP_BIRD61A_11C_V33_GPRS_MMI/Tools/MinGW/include/c++/3.3.1/bits/stl_algobase.h **** 
  21:h:/6261A/11CW1352MP_BIRD61A_11C_V33_GPRS_MMI/Tools/MinGW/include/c++/3.3.1/bits/stl_algobase.h **** // As a special exception, you may use this file as part of a free software
  22:h:/6261A/11CW1352MP_BIRD61A_11C_V33_GPRS_MMI/Tools/MinGW/include/c++/3.3.1/bits/stl_algobase.h **** // library without restriction.  Specifically, if other files instantiate
  23:h:/6261A/11CW1352MP_BIRD61A_11C_V33_GPRS_MMI/Tools/MinGW/include/c++/3.3.1/bits/stl_algobase.h **** // templates or use macros or inline functions from this file, or you compile
  24:h:/6261A/11CW1352MP_BIRD61A_11C_V33_GPRS_MMI/Tools/MinGW/include/c++/3.3.1/bits/stl_algobase.h **** // this file and link it with other files to produce an executable, this
  25:h:/6261A/11CW1352MP_BIRD61A_11C_V33_GPRS_MMI/Tools/MinGW/include/c++/3.3.1/bits/stl_algobase.h **** // file does not by itself cause the resulting executable to be covered by
  26:h:/6261A/11CW1352MP_BIRD61A_11C_V33_GPRS_MMI/Tools/MinGW/include/c++/3.3.1/bits/stl_algobase.h **** // the GNU General Public License.  This exception does not however
  27:h:/6261A/11CW1352MP_BIRD61A_11C_V33_GPRS_MMI/Tools/MinGW/include/c++/3.3.1/bits/stl_algobase.h **** // invalidate any other reasons why the executable file might be covered by
  28:h:/6261A/11CW1352MP_BIRD61A_11C_V33_GPRS_MMI/Tools/MinGW/include/c++/3.3.1/bits/stl_algobase.h **** // the GNU General Public License.
  29:h:/6261A/11CW1352MP_BIRD61A_11C_V33_GPRS_MMI/Tools/MinGW/include/c++/3.3.1/bits/stl_algobase.h **** 
  30:h:/6261A/11CW1352MP_BIRD61A_11C_V33_GPRS_MMI/Tools/MinGW/include/c++/3.3.1/bits/stl_algobase.h **** /*
  31:h:/6261A/11CW1352MP_BIRD61A_11C_V33_GPRS_MMI/Tools/MinGW/include/c++/3.3.1/bits/stl_algobase.h ****  *
  32:h:/6261A/11CW1352MP_BIRD61A_11C_V33_GPRS_MMI/Tools/MinGW/include/c++/3.3.1/bits/stl_algobase.h ****  * Copyright (c) 1994
  33:h:/6261A/11CW1352MP_BIRD61A_11C_V33_GPRS_MMI/Tools/MinGW/include/c++/3.3.1/bits/stl_algobase.h ****  * Hewlett-Packard Company
  34:h:/6261A/11CW1352MP_BIRD61A_11C_V33_GPRS_MMI/Tools/MinGW/include/c++/3.3.1/bits/stl_algobase.h ****  *
  35:h:/6261A/11CW1352MP_BIRD61A_11C_V33_GPRS_MMI/Tools/MinGW/include/c++/3.3.1/bits/stl_algobase.h ****  * Permission to use, copy, modify, distribute and sell this software
  36:h:/6261A/11CW1352MP_BIRD61A_11C_V33_GPRS_MMI/Tools/MinGW/include/c++/3.3.1/bits/stl_algobase.h ****  * and its documentation for any purpose is hereby granted without fee,
  37:h:/6261A/11CW1352MP_BIRD61A_11C_V33_GPRS_MMI/Tools/MinGW/include/c++/3.3.1/bits/stl_algobase.h ****  * provided that the above copyright notice appear in all copies and
  38:h:/6261A/11CW1352MP_BIRD61A_11C_V33_GPRS_MMI/Tools/MinGW/include/c++/3.3.1/bits/stl_algobase.h ****  * that both that copyright notice and this permission notice appear
  39:h:/6261A/11CW1352MP_BIRD61A_11C_V33_GPRS_MMI/Tools/MinGW/include/c++/3.3.1/bits/stl_algobase.h ****  * in supporting documentation.  Hewlett-Packard Company makes no
  40:h:/6261A/11CW1352MP_BIRD61A_11C_V33_GPRS_MMI/Tools/MinGW/include/c++/3.3.1/bits/stl_algobase.h ****  * representations about the suitability of this software for any
  41:h:/6261A/11CW1352MP_BIRD61A_11C_V33_GPRS_MMI/Tools/MinGW/include/c++/3.3.1/bits/stl_algobase.h ****  * purpose.  It is provided "as is" without express or implied warranty.
  42:h:/6261A/11CW1352MP_BIRD61A_11C_V33_GPRS_MMI/Tools/MinGW/include/c++/3.3.1/bits/stl_algobase.h ****  *
  43:h:/6261A/11CW1352MP_BIRD61A_11C_V33_GPRS_MMI/Tools/MinGW/include/c++/3.3.1/bits/stl_algobase.h ****  *
  44:h:/6261A/11CW1352MP_BIRD61A_11C_V33_GPRS_MMI/Tools/MinGW/include/c++/3.3.1/bits/stl_algobase.h ****  * Copyright (c) 1996-1998
  45:h:/6261A/11CW1352MP_BIRD61A_11C_V33_GPRS_MMI/Tools/MinGW/include/c++/3.3.1/bits/stl_algobase.h ****  * Silicon Graphics Computer Systems, Inc.
  46:h:/6261A/11CW1352MP_BIRD61A_11C_V33_GPRS_MMI/Tools/MinGW/include/c++/3.3.1/bits/stl_algobase.h ****  *
  47:h:/6261A/11CW1352MP_BIRD61A_11C_V33_GPRS_MMI/Tools/MinGW/include/c++/3.3.1/bits/stl_algobase.h ****  * Permission to use, copy, modify, distribute and sell this software
  48:h:/6261A/11CW1352MP_BIRD61A_11C_V33_GPRS_MMI/Tools/MinGW/include/c++/3.3.1/bits/stl_algobase.h ****  * and its documentation for any purpose is hereby granted without fee,
  49:h:/6261A/11CW1352MP_BIRD61A_11C_V33_GPRS_MMI/Tools/MinGW/include/c++/3.3.1/bits/stl_algobase.h ****  * provided that the above copyright notice appear in all copies and
GAS LISTING h:/6261A/11CW1352MP_BIRD61A_11C_V33_GPRS_MMI/plutommi/Customer/ResGenerator/gcctmp/ccEHcaaa.s 			page 148


  50:h:/6261A/11CW1352MP_BIRD61A_11C_V33_GPRS_MMI/Tools/MinGW/include/c++/3.3.1/bits/stl_algobase.h ****  * that both that copyright notice and this permission notice appear
  51:h:/6261A/11CW1352MP_BIRD61A_11C_V33_GPRS_MMI/Tools/MinGW/include/c++/3.3.1/bits/stl_algobase.h ****  * in supporting documentation.  Silicon Graphics makes no
  52:h:/6261A/11CW1352MP_BIRD61A_11C_V33_GPRS_MMI/Tools/MinGW/include/c++/3.3.1/bits/stl_algobase.h ****  * representations about the suitability of this software for any
  53:h:/6261A/11CW1352MP_BIRD61A_11C_V33_GPRS_MMI/Tools/MinGW/include/c++/3.3.1/bits/stl_algobase.h ****  * purpose.  It is provided "as is" without express or implied warranty.
  54:h:/6261A/11CW1352MP_BIRD61A_11C_V33_GPRS_MMI/Tools/MinGW/include/c++/3.3.1/bits/stl_algobase.h ****  */
  55:h:/6261A/11CW1352MP_BIRD61A_11C_V33_GPRS_MMI/Tools/MinGW/include/c++/3.3.1/bits/stl_algobase.h **** 
  56:h:/6261A/11CW1352MP_BIRD61A_11C_V33_GPRS_MMI/Tools/MinGW/include/c++/3.3.1/bits/stl_algobase.h **** /** @file stl_algobase.h
  57:h:/6261A/11CW1352MP_BIRD61A_11C_V33_GPRS_MMI/Tools/MinGW/include/c++/3.3.1/bits/stl_algobase.h ****  *  This is an internal header file, included by other library headers.
  58:h:/6261A/11CW1352MP_BIRD61A_11C_V33_GPRS_MMI/Tools/MinGW/include/c++/3.3.1/bits/stl_algobase.h ****  *  You should not attempt to use it directly.
  59:h:/6261A/11CW1352MP_BIRD61A_11C_V33_GPRS_MMI/Tools/MinGW/include/c++/3.3.1/bits/stl_algobase.h ****  */
  60:h:/6261A/11CW1352MP_BIRD61A_11C_V33_GPRS_MMI/Tools/MinGW/include/c++/3.3.1/bits/stl_algobase.h **** 
  61:h:/6261A/11CW1352MP_BIRD61A_11C_V33_GPRS_MMI/Tools/MinGW/include/c++/3.3.1/bits/stl_algobase.h **** #ifndef __GLIBCPP_INTERNAL_ALGOBASE_H
  62:h:/6261A/11CW1352MP_BIRD61A_11C_V33_GPRS_MMI/Tools/MinGW/include/c++/3.3.1/bits/stl_algobase.h **** #define __GLIBCPP_INTERNAL_ALGOBASE_H
  63:h:/6261A/11CW1352MP_BIRD61A_11C_V33_GPRS_MMI/Tools/MinGW/include/c++/3.3.1/bits/stl_algobase.h **** 
  64:h:/6261A/11CW1352MP_BIRD61A_11C_V33_GPRS_MMI/Tools/MinGW/include/c++/3.3.1/bits/stl_algobase.h **** #include <bits/c++config.h>
  65:h:/6261A/11CW1352MP_BIRD61A_11C_V33_GPRS_MMI/Tools/MinGW/include/c++/3.3.1/bits/stl_algobase.h **** #include <cstring>
  66:h:/6261A/11CW1352MP_BIRD61A_11C_V33_GPRS_MMI/Tools/MinGW/include/c++/3.3.1/bits/stl_algobase.h **** #include <climits>
  67:h:/6261A/11CW1352MP_BIRD61A_11C_V33_GPRS_MMI/Tools/MinGW/include/c++/3.3.1/bits/stl_algobase.h **** #include <cstdlib>
  68:h:/6261A/11CW1352MP_BIRD61A_11C_V33_GPRS_MMI/Tools/MinGW/include/c++/3.3.1/bits/stl_algobase.h **** #include <cstddef>
  69:h:/6261A/11CW1352MP_BIRD61A_11C_V33_GPRS_MMI/Tools/MinGW/include/c++/3.3.1/bits/stl_algobase.h **** #include <new>
  70:h:/6261A/11CW1352MP_BIRD61A_11C_V33_GPRS_MMI/Tools/MinGW/include/c++/3.3.1/bits/stl_algobase.h **** #include <iosfwd>
  71:h:/6261A/11CW1352MP_BIRD61A_11C_V33_GPRS_MMI/Tools/MinGW/include/c++/3.3.1/bits/stl_algobase.h **** #include <bits/stl_pair.h>
  72:h:/6261A/11CW1352MP_BIRD61A_11C_V33_GPRS_MMI/Tools/MinGW/include/c++/3.3.1/bits/stl_algobase.h **** #include <bits/type_traits.h>
  73:h:/6261A/11CW1352MP_BIRD61A_11C_V33_GPRS_MMI/Tools/MinGW/include/c++/3.3.1/bits/stl_algobase.h **** #include <bits/stl_iterator_base_types.h>
  74:h:/6261A/11CW1352MP_BIRD61A_11C_V33_GPRS_MMI/Tools/MinGW/include/c++/3.3.1/bits/stl_algobase.h **** #include <bits/stl_iterator_base_funcs.h>
  75:h:/6261A/11CW1352MP_BIRD61A_11C_V33_GPRS_MMI/Tools/MinGW/include/c++/3.3.1/bits/stl_algobase.h **** #include <bits/stl_iterator.h>
  76:h:/6261A/11CW1352MP_BIRD61A_11C_V33_GPRS_MMI/Tools/MinGW/include/c++/3.3.1/bits/stl_algobase.h **** #include <bits/concept_check.h>
  77:h:/6261A/11CW1352MP_BIRD61A_11C_V33_GPRS_MMI/Tools/MinGW/include/c++/3.3.1/bits/stl_algobase.h **** 
  78:h:/6261A/11CW1352MP_BIRD61A_11C_V33_GPRS_MMI/Tools/MinGW/include/c++/3.3.1/bits/stl_algobase.h **** namespace std
  79:h:/6261A/11CW1352MP_BIRD61A_11C_V33_GPRS_MMI/Tools/MinGW/include/c++/3.3.1/bits/stl_algobase.h **** {
  80:h:/6261A/11CW1352MP_BIRD61A_11C_V33_GPRS_MMI/Tools/MinGW/include/c++/3.3.1/bits/stl_algobase.h ****   // swap and iter_swap
  81:h:/6261A/11CW1352MP_BIRD61A_11C_V33_GPRS_MMI/Tools/MinGW/include/c++/3.3.1/bits/stl_algobase.h **** 
  82:h:/6261A/11CW1352MP_BIRD61A_11C_V33_GPRS_MMI/Tools/MinGW/include/c++/3.3.1/bits/stl_algobase.h ****   /**
  83:h:/6261A/11CW1352MP_BIRD61A_11C_V33_GPRS_MMI/Tools/MinGW/include/c++/3.3.1/bits/stl_algobase.h ****    *  @brief Swaps the contents of two iterators.
  84:h:/6261A/11CW1352MP_BIRD61A_11C_V33_GPRS_MMI/Tools/MinGW/include/c++/3.3.1/bits/stl_algobase.h ****    *  @param  a  An iterator.
  85:h:/6261A/11CW1352MP_BIRD61A_11C_V33_GPRS_MMI/Tools/MinGW/include/c++/3.3.1/bits/stl_algobase.h ****    *  @param  b  Another iterator.
  86:h:/6261A/11CW1352MP_BIRD61A_11C_V33_GPRS_MMI/Tools/MinGW/include/c++/3.3.1/bits/stl_algobase.h ****    *  @return   Nothing.
  87:h:/6261A/11CW1352MP_BIRD61A_11C_V33_GPRS_MMI/Tools/MinGW/include/c++/3.3.1/bits/stl_algobase.h ****    *
  88:h:/6261A/11CW1352MP_BIRD61A_11C_V33_GPRS_MMI/Tools/MinGW/include/c++/3.3.1/bits/stl_algobase.h ****    *  This function swaps the values pointed to by two iterators, not the
  89:h:/6261A/11CW1352MP_BIRD61A_11C_V33_GPRS_MMI/Tools/MinGW/include/c++/3.3.1/bits/stl_algobase.h ****    *  iterators themselves.
  90:h:/6261A/11CW1352MP_BIRD61A_11C_V33_GPRS_MMI/Tools/MinGW/include/c++/3.3.1/bits/stl_algobase.h ****   */
  91:h:/6261A/11CW1352MP_BIRD61A_11C_V33_GPRS_MMI/Tools/MinGW/include/c++/3.3.1/bits/stl_algobase.h ****   template<typename _ForwardIter1, typename _ForwardIter2>
  92:h:/6261A/11CW1352MP_BIRD61A_11C_V33_GPRS_MMI/Tools/MinGW/include/c++/3.3.1/bits/stl_algobase.h ****     inline void
  93:h:/6261A/11CW1352MP_BIRD61A_11C_V33_GPRS_MMI/Tools/MinGW/include/c++/3.3.1/bits/stl_algobase.h ****     iter_swap(_ForwardIter1 __a, _ForwardIter2 __b)
  94:h:/6261A/11CW1352MP_BIRD61A_11C_V33_GPRS_MMI/Tools/MinGW/include/c++/3.3.1/bits/stl_algobase.h ****     {
  95:h:/6261A/11CW1352MP_BIRD61A_11C_V33_GPRS_MMI/Tools/MinGW/include/c++/3.3.1/bits/stl_algobase.h ****       typedef typename iterator_traits<_ForwardIter1>::value_type _ValueType1;
  96:h:/6261A/11CW1352MP_BIRD61A_11C_V33_GPRS_MMI/Tools/MinGW/include/c++/3.3.1/bits/stl_algobase.h ****       typedef typename iterator_traits<_ForwardIter2>::value_type _ValueType2;
  97:h:/6261A/11CW1352MP_BIRD61A_11C_V33_GPRS_MMI/Tools/MinGW/include/c++/3.3.1/bits/stl_algobase.h **** 
  98:h:/6261A/11CW1352MP_BIRD61A_11C_V33_GPRS_MMI/Tools/MinGW/include/c++/3.3.1/bits/stl_algobase.h ****       // concept requirements
  99:h:/6261A/11CW1352MP_BIRD61A_11C_V33_GPRS_MMI/Tools/MinGW/include/c++/3.3.1/bits/stl_algobase.h ****       __glibcpp_function_requires(_Mutable_ForwardIteratorConcept<_ForwardIter1>)
 100:h:/6261A/11CW1352MP_BIRD61A_11C_V33_GPRS_MMI/Tools/MinGW/include/c++/3.3.1/bits/stl_algobase.h ****       __glibcpp_function_requires(_Mutable_ForwardIteratorConcept<_ForwardIter2>)
 101:h:/6261A/11CW1352MP_BIRD61A_11C_V33_GPRS_MMI/Tools/MinGW/include/c++/3.3.1/bits/stl_algobase.h ****       __glibcpp_function_requires(_ConvertibleConcept<_ValueType1, _ValueType2>)
 102:h:/6261A/11CW1352MP_BIRD61A_11C_V33_GPRS_MMI/Tools/MinGW/include/c++/3.3.1/bits/stl_algobase.h ****       __glibcpp_function_requires(_ConvertibleConcept<_ValueType2, _ValueType1>)
 103:h:/6261A/11CW1352MP_BIRD61A_11C_V33_GPRS_MMI/Tools/MinGW/include/c++/3.3.1/bits/stl_algobase.h **** 
 104:h:/6261A/11CW1352MP_BIRD61A_11C_V33_GPRS_MMI/Tools/MinGW/include/c++/3.3.1/bits/stl_algobase.h ****       _ValueType1 __tmp = *__a;
 105:h:/6261A/11CW1352MP_BIRD61A_11C_V33_GPRS_MMI/Tools/MinGW/include/c++/3.3.1/bits/stl_algobase.h ****       *__a = *__b;
 106:h:/6261A/11CW1352MP_BIRD61A_11C_V33_GPRS_MMI/Tools/MinGW/include/c++/3.3.1/bits/stl_algobase.h ****       *__b = __tmp;
GAS LISTING h:/6261A/11CW1352MP_BIRD61A_11C_V33_GPRS_MMI/plutommi/Customer/ResGenerator/gcctmp/ccEHcaaa.s 			page 149


 107:h:/6261A/11CW1352MP_BIRD61A_11C_V33_GPRS_MMI/Tools/MinGW/include/c++/3.3.1/bits/stl_algobase.h ****     }
 108:h:/6261A/11CW1352MP_BIRD61A_11C_V33_GPRS_MMI/Tools/MinGW/include/c++/3.3.1/bits/stl_algobase.h **** 
 109:h:/6261A/11CW1352MP_BIRD61A_11C_V33_GPRS_MMI/Tools/MinGW/include/c++/3.3.1/bits/stl_algobase.h ****   /**
 110:h:/6261A/11CW1352MP_BIRD61A_11C_V33_GPRS_MMI/Tools/MinGW/include/c++/3.3.1/bits/stl_algobase.h ****    *  @brief Swaps two values.
 111:h:/6261A/11CW1352MP_BIRD61A_11C_V33_GPRS_MMI/Tools/MinGW/include/c++/3.3.1/bits/stl_algobase.h ****    *  @param  a  A thing of arbitrary type.
 112:h:/6261A/11CW1352MP_BIRD61A_11C_V33_GPRS_MMI/Tools/MinGW/include/c++/3.3.1/bits/stl_algobase.h ****    *  @param  b  Another thing of arbitrary type.
 113:h:/6261A/11CW1352MP_BIRD61A_11C_V33_GPRS_MMI/Tools/MinGW/include/c++/3.3.1/bits/stl_algobase.h ****    *  @return   Nothing.
 114:h:/6261A/11CW1352MP_BIRD61A_11C_V33_GPRS_MMI/Tools/MinGW/include/c++/3.3.1/bits/stl_algobase.h ****    *
 115:h:/6261A/11CW1352MP_BIRD61A_11C_V33_GPRS_MMI/Tools/MinGW/include/c++/3.3.1/bits/stl_algobase.h ****    *  This is the simple classic generic implementation.  It will work on
 116:h:/6261A/11CW1352MP_BIRD61A_11C_V33_GPRS_MMI/Tools/MinGW/include/c++/3.3.1/bits/stl_algobase.h ****    *  any type which has a copy constructor and an assignment operator.
 117:h:/6261A/11CW1352MP_BIRD61A_11C_V33_GPRS_MMI/Tools/MinGW/include/c++/3.3.1/bits/stl_algobase.h ****   */
 118:h:/6261A/11CW1352MP_BIRD61A_11C_V33_GPRS_MMI/Tools/MinGW/include/c++/3.3.1/bits/stl_algobase.h ****   template<typename _Tp>
 119:h:/6261A/11CW1352MP_BIRD61A_11C_V33_GPRS_MMI/Tools/MinGW/include/c++/3.3.1/bits/stl_algobase.h ****     inline void
 120:h:/6261A/11CW1352MP_BIRD61A_11C_V33_GPRS_MMI/Tools/MinGW/include/c++/3.3.1/bits/stl_algobase.h ****     swap(_Tp& __a, _Tp& __b)
 121:h:/6261A/11CW1352MP_BIRD61A_11C_V33_GPRS_MMI/Tools/MinGW/include/c++/3.3.1/bits/stl_algobase.h ****     {
 122:h:/6261A/11CW1352MP_BIRD61A_11C_V33_GPRS_MMI/Tools/MinGW/include/c++/3.3.1/bits/stl_algobase.h ****       // concept requirements
 123:h:/6261A/11CW1352MP_BIRD61A_11C_V33_GPRS_MMI/Tools/MinGW/include/c++/3.3.1/bits/stl_algobase.h ****       __glibcpp_function_requires(_SGIAssignableConcept<_Tp>)
 124:h:/6261A/11CW1352MP_BIRD61A_11C_V33_GPRS_MMI/Tools/MinGW/include/c++/3.3.1/bits/stl_algobase.h ****       
 125:h:/6261A/11CW1352MP_BIRD61A_11C_V33_GPRS_MMI/Tools/MinGW/include/c++/3.3.1/bits/stl_algobase.h ****       _Tp __tmp = __a;
 126:h:/6261A/11CW1352MP_BIRD61A_11C_V33_GPRS_MMI/Tools/MinGW/include/c++/3.3.1/bits/stl_algobase.h ****       __a = __b;
 127:h:/6261A/11CW1352MP_BIRD61A_11C_V33_GPRS_MMI/Tools/MinGW/include/c++/3.3.1/bits/stl_algobase.h ****       __b = __tmp;
 128:h:/6261A/11CW1352MP_BIRD61A_11C_V33_GPRS_MMI/Tools/MinGW/include/c++/3.3.1/bits/stl_algobase.h ****     }
 129:h:/6261A/11CW1352MP_BIRD61A_11C_V33_GPRS_MMI/Tools/MinGW/include/c++/3.3.1/bits/stl_algobase.h **** 
 130:h:/6261A/11CW1352MP_BIRD61A_11C_V33_GPRS_MMI/Tools/MinGW/include/c++/3.3.1/bits/stl_algobase.h ****   //--------------------------------------------------
 131:h:/6261A/11CW1352MP_BIRD61A_11C_V33_GPRS_MMI/Tools/MinGW/include/c++/3.3.1/bits/stl_algobase.h ****   // min and max
 132:h:/6261A/11CW1352MP_BIRD61A_11C_V33_GPRS_MMI/Tools/MinGW/include/c++/3.3.1/bits/stl_algobase.h **** 
 133:h:/6261A/11CW1352MP_BIRD61A_11C_V33_GPRS_MMI/Tools/MinGW/include/c++/3.3.1/bits/stl_algobase.h ****   #undef min
 134:h:/6261A/11CW1352MP_BIRD61A_11C_V33_GPRS_MMI/Tools/MinGW/include/c++/3.3.1/bits/stl_algobase.h ****   #undef max
 135:h:/6261A/11CW1352MP_BIRD61A_11C_V33_GPRS_MMI/Tools/MinGW/include/c++/3.3.1/bits/stl_algobase.h **** 
 136:h:/6261A/11CW1352MP_BIRD61A_11C_V33_GPRS_MMI/Tools/MinGW/include/c++/3.3.1/bits/stl_algobase.h ****   /**
 137:h:/6261A/11CW1352MP_BIRD61A_11C_V33_GPRS_MMI/Tools/MinGW/include/c++/3.3.1/bits/stl_algobase.h ****    *  @brief This does what you think it does.
 138:h:/6261A/11CW1352MP_BIRD61A_11C_V33_GPRS_MMI/Tools/MinGW/include/c++/3.3.1/bits/stl_algobase.h ****    *  @param  a  A thing of arbitrary type.
 139:h:/6261A/11CW1352MP_BIRD61A_11C_V33_GPRS_MMI/Tools/MinGW/include/c++/3.3.1/bits/stl_algobase.h ****    *  @param  b  Another thing of arbitrary type.
 140:h:/6261A/11CW1352MP_BIRD61A_11C_V33_GPRS_MMI/Tools/MinGW/include/c++/3.3.1/bits/stl_algobase.h ****    *  @return   The lesser of the parameters.
 141:h:/6261A/11CW1352MP_BIRD61A_11C_V33_GPRS_MMI/Tools/MinGW/include/c++/3.3.1/bits/stl_algobase.h ****    *
 142:h:/6261A/11CW1352MP_BIRD61A_11C_V33_GPRS_MMI/Tools/MinGW/include/c++/3.3.1/bits/stl_algobase.h ****    *  This is the simple classic generic implementation.  It will work on
 143:h:/6261A/11CW1352MP_BIRD61A_11C_V33_GPRS_MMI/Tools/MinGW/include/c++/3.3.1/bits/stl_algobase.h ****    *  temporary expressions, since they are only evaluated once, unlike a
 144:h:/6261A/11CW1352MP_BIRD61A_11C_V33_GPRS_MMI/Tools/MinGW/include/c++/3.3.1/bits/stl_algobase.h ****    *  preprocessor macro.
 145:h:/6261A/11CW1352MP_BIRD61A_11C_V33_GPRS_MMI/Tools/MinGW/include/c++/3.3.1/bits/stl_algobase.h ****   */
 146:h:/6261A/11CW1352MP_BIRD61A_11C_V33_GPRS_MMI/Tools/MinGW/include/c++/3.3.1/bits/stl_algobase.h ****   template<typename _Tp>
 147:h:/6261A/11CW1352MP_BIRD61A_11C_V33_GPRS_MMI/Tools/MinGW/include/c++/3.3.1/bits/stl_algobase.h ****     inline const _Tp&
 148:h:/6261A/11CW1352MP_BIRD61A_11C_V33_GPRS_MMI/Tools/MinGW/include/c++/3.3.1/bits/stl_algobase.h ****     min(const _Tp& __a, const _Tp& __b)
 149:h:/6261A/11CW1352MP_BIRD61A_11C_V33_GPRS_MMI/Tools/MinGW/include/c++/3.3.1/bits/stl_algobase.h ****     {
 150:h:/6261A/11CW1352MP_BIRD61A_11C_V33_GPRS_MMI/Tools/MinGW/include/c++/3.3.1/bits/stl_algobase.h ****       // concept requirements
 151:h:/6261A/11CW1352MP_BIRD61A_11C_V33_GPRS_MMI/Tools/MinGW/include/c++/3.3.1/bits/stl_algobase.h ****       __glibcpp_function_requires(_LessThanComparableConcept<_Tp>)
 152:h:/6261A/11CW1352MP_BIRD61A_11C_V33_GPRS_MMI/Tools/MinGW/include/c++/3.3.1/bits/stl_algobase.h ****       //return __b < __a ? __b : __a;
 153:h:/6261A/11CW1352MP_BIRD61A_11C_V33_GPRS_MMI/Tools/MinGW/include/c++/3.3.1/bits/stl_algobase.h ****       if (__b < __a) return __b; return __a;
 154:h:/6261A/11CW1352MP_BIRD61A_11C_V33_GPRS_MMI/Tools/MinGW/include/c++/3.3.1/bits/stl_algobase.h ****     }
 155:h:/6261A/11CW1352MP_BIRD61A_11C_V33_GPRS_MMI/Tools/MinGW/include/c++/3.3.1/bits/stl_algobase.h **** 
 156:h:/6261A/11CW1352MP_BIRD61A_11C_V33_GPRS_MMI/Tools/MinGW/include/c++/3.3.1/bits/stl_algobase.h ****   /**
 157:h:/6261A/11CW1352MP_BIRD61A_11C_V33_GPRS_MMI/Tools/MinGW/include/c++/3.3.1/bits/stl_algobase.h ****    *  @brief This does what you think it does.
 158:h:/6261A/11CW1352MP_BIRD61A_11C_V33_GPRS_MMI/Tools/MinGW/include/c++/3.3.1/bits/stl_algobase.h ****    *  @param  a  A thing of arbitrary type.
 159:h:/6261A/11CW1352MP_BIRD61A_11C_V33_GPRS_MMI/Tools/MinGW/include/c++/3.3.1/bits/stl_algobase.h ****    *  @param  b  Another thing of arbitrary type.
 160:h:/6261A/11CW1352MP_BIRD61A_11C_V33_GPRS_MMI/Tools/MinGW/include/c++/3.3.1/bits/stl_algobase.h ****    *  @return   The greater of the parameters.
 161:h:/6261A/11CW1352MP_BIRD61A_11C_V33_GPRS_MMI/Tools/MinGW/include/c++/3.3.1/bits/stl_algobase.h ****    *
 162:h:/6261A/11CW1352MP_BIRD61A_11C_V33_GPRS_MMI/Tools/MinGW/include/c++/3.3.1/bits/stl_algobase.h ****    *  This is the simple classic generic implementation.  It will work on
 163:h:/6261A/11CW1352MP_BIRD61A_11C_V33_GPRS_MMI/Tools/MinGW/include/c++/3.3.1/bits/stl_algobase.h ****    *  temporary expressions, since they are only evaluated once, unlike a
GAS LISTING h:/6261A/11CW1352MP_BIRD61A_11C_V33_GPRS_MMI/plutommi/Customer/ResGenerator/gcctmp/ccEHcaaa.s 			page 150


 164:h:/6261A/11CW1352MP_BIRD61A_11C_V33_GPRS_MMI/Tools/MinGW/include/c++/3.3.1/bits/stl_algobase.h ****    *  preprocessor macro.
 165:h:/6261A/11CW1352MP_BIRD61A_11C_V33_GPRS_MMI/Tools/MinGW/include/c++/3.3.1/bits/stl_algobase.h ****   */
 166:h:/6261A/11CW1352MP_BIRD61A_11C_V33_GPRS_MMI/Tools/MinGW/include/c++/3.3.1/bits/stl_algobase.h ****   template<typename _Tp>
 167:h:/6261A/11CW1352MP_BIRD61A_11C_V33_GPRS_MMI/Tools/MinGW/include/c++/3.3.1/bits/stl_algobase.h ****     inline const _Tp&
 168:h:/6261A/11CW1352MP_BIRD61A_11C_V33_GPRS_MMI/Tools/MinGW/include/c++/3.3.1/bits/stl_algobase.h ****     max(const _Tp& __a, const _Tp& __b) 
 169:h:/6261A/11CW1352MP_BIRD61A_11C_V33_GPRS_MMI/Tools/MinGW/include/c++/3.3.1/bits/stl_algobase.h ****     {
 170:h:/6261A/11CW1352MP_BIRD61A_11C_V33_GPRS_MMI/Tools/MinGW/include/c++/3.3.1/bits/stl_algobase.h ****       // concept requirements
 171:h:/6261A/11CW1352MP_BIRD61A_11C_V33_GPRS_MMI/Tools/MinGW/include/c++/3.3.1/bits/stl_algobase.h ****       __glibcpp_function_requires(_LessThanComparableConcept<_Tp>)
 172:h:/6261A/11CW1352MP_BIRD61A_11C_V33_GPRS_MMI/Tools/MinGW/include/c++/3.3.1/bits/stl_algobase.h ****       //return  __a < __b ? __b : __a;
 173:h:/6261A/11CW1352MP_BIRD61A_11C_V33_GPRS_MMI/Tools/MinGW/include/c++/3.3.1/bits/stl_algobase.h ****       if (__a < __b) return __b; return __a;
 174:h:/6261A/11CW1352MP_BIRD61A_11C_V33_GPRS_MMI/Tools/MinGW/include/c++/3.3.1/bits/stl_algobase.h ****     }
 175:h:/6261A/11CW1352MP_BIRD61A_11C_V33_GPRS_MMI/Tools/MinGW/include/c++/3.3.1/bits/stl_algobase.h **** 
 176:h:/6261A/11CW1352MP_BIRD61A_11C_V33_GPRS_MMI/Tools/MinGW/include/c++/3.3.1/bits/stl_algobase.h ****   /**
 177:h:/6261A/11CW1352MP_BIRD61A_11C_V33_GPRS_MMI/Tools/MinGW/include/c++/3.3.1/bits/stl_algobase.h ****    *  @brief This does what you think it does.
 178:h:/6261A/11CW1352MP_BIRD61A_11C_V33_GPRS_MMI/Tools/MinGW/include/c++/3.3.1/bits/stl_algobase.h ****    *  @param  a  A thing of arbitrary type.
 179:h:/6261A/11CW1352MP_BIRD61A_11C_V33_GPRS_MMI/Tools/MinGW/include/c++/3.3.1/bits/stl_algobase.h ****    *  @param  b  Another thing of arbitrary type.
 180:h:/6261A/11CW1352MP_BIRD61A_11C_V33_GPRS_MMI/Tools/MinGW/include/c++/3.3.1/bits/stl_algobase.h ****    *  @param  comp  A @link s20_3_3_comparisons comparison functor@endlink.
 181:h:/6261A/11CW1352MP_BIRD61A_11C_V33_GPRS_MMI/Tools/MinGW/include/c++/3.3.1/bits/stl_algobase.h ****    *  @return   The lesser of the parameters.
 182:h:/6261A/11CW1352MP_BIRD61A_11C_V33_GPRS_MMI/Tools/MinGW/include/c++/3.3.1/bits/stl_algobase.h ****    *
 183:h:/6261A/11CW1352MP_BIRD61A_11C_V33_GPRS_MMI/Tools/MinGW/include/c++/3.3.1/bits/stl_algobase.h ****    *  This will work on temporary expressions, since they are only evaluated
 184:h:/6261A/11CW1352MP_BIRD61A_11C_V33_GPRS_MMI/Tools/MinGW/include/c++/3.3.1/bits/stl_algobase.h ****    *  once, unlike a preprocessor macro.
 185:h:/6261A/11CW1352MP_BIRD61A_11C_V33_GPRS_MMI/Tools/MinGW/include/c++/3.3.1/bits/stl_algobase.h ****   */
 186:h:/6261A/11CW1352MP_BIRD61A_11C_V33_GPRS_MMI/Tools/MinGW/include/c++/3.3.1/bits/stl_algobase.h ****   template<typename _Tp, typename _Compare>
 187:h:/6261A/11CW1352MP_BIRD61A_11C_V33_GPRS_MMI/Tools/MinGW/include/c++/3.3.1/bits/stl_algobase.h ****     inline const _Tp&
 188:h:/6261A/11CW1352MP_BIRD61A_11C_V33_GPRS_MMI/Tools/MinGW/include/c++/3.3.1/bits/stl_algobase.h ****     min(const _Tp& __a, const _Tp& __b, _Compare __comp)
 189:h:/6261A/11CW1352MP_BIRD61A_11C_V33_GPRS_MMI/Tools/MinGW/include/c++/3.3.1/bits/stl_algobase.h ****     {
 190:h:/6261A/11CW1352MP_BIRD61A_11C_V33_GPRS_MMI/Tools/MinGW/include/c++/3.3.1/bits/stl_algobase.h ****       //return __comp(__b, __a) ? __b : __a;
 191:h:/6261A/11CW1352MP_BIRD61A_11C_V33_GPRS_MMI/Tools/MinGW/include/c++/3.3.1/bits/stl_algobase.h ****       if (__comp(__b, __a)) return __b; return __a;
 192:h:/6261A/11CW1352MP_BIRD61A_11C_V33_GPRS_MMI/Tools/MinGW/include/c++/3.3.1/bits/stl_algobase.h ****     }
 193:h:/6261A/11CW1352MP_BIRD61A_11C_V33_GPRS_MMI/Tools/MinGW/include/c++/3.3.1/bits/stl_algobase.h **** 
 194:h:/6261A/11CW1352MP_BIRD61A_11C_V33_GPRS_MMI/Tools/MinGW/include/c++/3.3.1/bits/stl_algobase.h ****   /**
 195:h:/6261A/11CW1352MP_BIRD61A_11C_V33_GPRS_MMI/Tools/MinGW/include/c++/3.3.1/bits/stl_algobase.h ****    *  @brief This does what you think it does.
 196:h:/6261A/11CW1352MP_BIRD61A_11C_V33_GPRS_MMI/Tools/MinGW/include/c++/3.3.1/bits/stl_algobase.h ****    *  @param  a  A thing of arbitrary type.
 197:h:/6261A/11CW1352MP_BIRD61A_11C_V33_GPRS_MMI/Tools/MinGW/include/c++/3.3.1/bits/stl_algobase.h ****    *  @param  b  Another thing of arbitrary type.
 198:h:/6261A/11CW1352MP_BIRD61A_11C_V33_GPRS_MMI/Tools/MinGW/include/c++/3.3.1/bits/stl_algobase.h ****    *  @param  comp  A @link s20_3_3_comparisons comparison functor@endlink.
 199:h:/6261A/11CW1352MP_BIRD61A_11C_V33_GPRS_MMI/Tools/MinGW/include/c++/3.3.1/bits/stl_algobase.h ****    *  @return   The greater of the parameters.
 200:h:/6261A/11CW1352MP_BIRD61A_11C_V33_GPRS_MMI/Tools/MinGW/include/c++/3.3.1/bits/stl_algobase.h ****    *
 201:h:/6261A/11CW1352MP_BIRD61A_11C_V33_GPRS_MMI/Tools/MinGW/include/c++/3.3.1/bits/stl_algobase.h ****    *  This will work on temporary expressions, since they are only evaluated
 202:h:/6261A/11CW1352MP_BIRD61A_11C_V33_GPRS_MMI/Tools/MinGW/include/c++/3.3.1/bits/stl_algobase.h ****    *  once, unlike a preprocessor macro.
 203:h:/6261A/11CW1352MP_BIRD61A_11C_V33_GPRS_MMI/Tools/MinGW/include/c++/3.3.1/bits/stl_algobase.h ****   */
 204:h:/6261A/11CW1352MP_BIRD61A_11C_V33_GPRS_MMI/Tools/MinGW/include/c++/3.3.1/bits/stl_algobase.h ****   template<typename _Tp, typename _Compare>
 205:h:/6261A/11CW1352MP_BIRD61A_11C_V33_GPRS_MMI/Tools/MinGW/include/c++/3.3.1/bits/stl_algobase.h ****     inline const _Tp&
 206:h:/6261A/11CW1352MP_BIRD61A_11C_V33_GPRS_MMI/Tools/MinGW/include/c++/3.3.1/bits/stl_algobase.h ****     max(const _Tp& __a, const _Tp& __b, _Compare __comp)
 207:h:/6261A/11CW1352MP_BIRD61A_11C_V33_GPRS_MMI/Tools/MinGW/include/c++/3.3.1/bits/stl_algobase.h ****     {
 208:h:/6261A/11CW1352MP_BIRD61A_11C_V33_GPRS_MMI/Tools/MinGW/include/c++/3.3.1/bits/stl_algobase.h ****       //return __comp(__a, __b) ? __b : __a;
 209:h:/6261A/11CW1352MP_BIRD61A_11C_V33_GPRS_MMI/Tools/MinGW/include/c++/3.3.1/bits/stl_algobase.h ****       if (__comp(__a, __b)) return __b; return __a;
 210:h:/6261A/11CW1352MP_BIRD61A_11C_V33_GPRS_MMI/Tools/MinGW/include/c++/3.3.1/bits/stl_algobase.h ****     }
 211:h:/6261A/11CW1352MP_BIRD61A_11C_V33_GPRS_MMI/Tools/MinGW/include/c++/3.3.1/bits/stl_algobase.h **** 
 212:h:/6261A/11CW1352MP_BIRD61A_11C_V33_GPRS_MMI/Tools/MinGW/include/c++/3.3.1/bits/stl_algobase.h ****   //--------------------------------------------------
 213:h:/6261A/11CW1352MP_BIRD61A_11C_V33_GPRS_MMI/Tools/MinGW/include/c++/3.3.1/bits/stl_algobase.h ****   // copy
 214:h:/6261A/11CW1352MP_BIRD61A_11C_V33_GPRS_MMI/Tools/MinGW/include/c++/3.3.1/bits/stl_algobase.h **** 
 215:h:/6261A/11CW1352MP_BIRD61A_11C_V33_GPRS_MMI/Tools/MinGW/include/c++/3.3.1/bits/stl_algobase.h ****   // All of these auxiliary functions serve two purposes.  (1) Replace
 216:h:/6261A/11CW1352MP_BIRD61A_11C_V33_GPRS_MMI/Tools/MinGW/include/c++/3.3.1/bits/stl_algobase.h ****   // calls to copy with memmove whenever possible.  (Memmove, not memcpy,
 217:h:/6261A/11CW1352MP_BIRD61A_11C_V33_GPRS_MMI/Tools/MinGW/include/c++/3.3.1/bits/stl_algobase.h ****   // because the input and output ranges are permitted to overlap.)
 218:h:/6261A/11CW1352MP_BIRD61A_11C_V33_GPRS_MMI/Tools/MinGW/include/c++/3.3.1/bits/stl_algobase.h ****   // (2) If we're using random access iterators, then write the loop as
 219:h:/6261A/11CW1352MP_BIRD61A_11C_V33_GPRS_MMI/Tools/MinGW/include/c++/3.3.1/bits/stl_algobase.h ****   // a for loop with an explicit count.
 220:h:/6261A/11CW1352MP_BIRD61A_11C_V33_GPRS_MMI/Tools/MinGW/include/c++/3.3.1/bits/stl_algobase.h **** 
GAS LISTING h:/6261A/11CW1352MP_BIRD61A_11C_V33_GPRS_MMI/plutommi/Customer/ResGenerator/gcctmp/ccEHcaaa.s 			page 151


 221:h:/6261A/11CW1352MP_BIRD61A_11C_V33_GPRS_MMI/Tools/MinGW/include/c++/3.3.1/bits/stl_algobase.h ****   template<typename _InputIter, typename _OutputIter>
 222:h:/6261A/11CW1352MP_BIRD61A_11C_V33_GPRS_MMI/Tools/MinGW/include/c++/3.3.1/bits/stl_algobase.h ****     inline _OutputIter
 223:h:/6261A/11CW1352MP_BIRD61A_11C_V33_GPRS_MMI/Tools/MinGW/include/c++/3.3.1/bits/stl_algobase.h ****     __copy(_InputIter __first, _InputIter __last,
 224:h:/6261A/11CW1352MP_BIRD61A_11C_V33_GPRS_MMI/Tools/MinGW/include/c++/3.3.1/bits/stl_algobase.h **** 	   _OutputIter __result,
 225:h:/6261A/11CW1352MP_BIRD61A_11C_V33_GPRS_MMI/Tools/MinGW/include/c++/3.3.1/bits/stl_algobase.h **** 	   input_iterator_tag)
 226:h:/6261A/11CW1352MP_BIRD61A_11C_V33_GPRS_MMI/Tools/MinGW/include/c++/3.3.1/bits/stl_algobase.h ****     {
 227:h:/6261A/11CW1352MP_BIRD61A_11C_V33_GPRS_MMI/Tools/MinGW/include/c++/3.3.1/bits/stl_algobase.h ****       for ( ; __first != __last; ++__result, ++__first)
 228:h:/6261A/11CW1352MP_BIRD61A_11C_V33_GPRS_MMI/Tools/MinGW/include/c++/3.3.1/bits/stl_algobase.h **** 	*__result = *__first;
 229:h:/6261A/11CW1352MP_BIRD61A_11C_V33_GPRS_MMI/Tools/MinGW/include/c++/3.3.1/bits/stl_algobase.h ****       return __result;
 230:h:/6261A/11CW1352MP_BIRD61A_11C_V33_GPRS_MMI/Tools/MinGW/include/c++/3.3.1/bits/stl_algobase.h ****     }
 231:h:/6261A/11CW1352MP_BIRD61A_11C_V33_GPRS_MMI/Tools/MinGW/include/c++/3.3.1/bits/stl_algobase.h **** 
 232:h:/6261A/11CW1352MP_BIRD61A_11C_V33_GPRS_MMI/Tools/MinGW/include/c++/3.3.1/bits/stl_algobase.h ****   template<typename _RandomAccessIter, typename _OutputIter>
 233:h:/6261A/11CW1352MP_BIRD61A_11C_V33_GPRS_MMI/Tools/MinGW/include/c++/3.3.1/bits/stl_algobase.h ****     inline _OutputIter
 234:h:/6261A/11CW1352MP_BIRD61A_11C_V33_GPRS_MMI/Tools/MinGW/include/c++/3.3.1/bits/stl_algobase.h ****     __copy(_RandomAccessIter __first, _RandomAccessIter __last,
 235:h:/6261A/11CW1352MP_BIRD61A_11C_V33_GPRS_MMI/Tools/MinGW/include/c++/3.3.1/bits/stl_algobase.h **** 	   _OutputIter __result,
 236:h:/6261A/11CW1352MP_BIRD61A_11C_V33_GPRS_MMI/Tools/MinGW/include/c++/3.3.1/bits/stl_algobase.h **** 	   random_access_iterator_tag)
 237:h:/6261A/11CW1352MP_BIRD61A_11C_V33_GPRS_MMI/Tools/MinGW/include/c++/3.3.1/bits/stl_algobase.h ****     {
 238:h:/6261A/11CW1352MP_BIRD61A_11C_V33_GPRS_MMI/Tools/MinGW/include/c++/3.3.1/bits/stl_algobase.h ****       typedef typename iterator_traits<_RandomAccessIter>::difference_type
 239:h:/6261A/11CW1352MP_BIRD61A_11C_V33_GPRS_MMI/Tools/MinGW/include/c++/3.3.1/bits/stl_algobase.h ****           _Distance;
 240:h:/6261A/11CW1352MP_BIRD61A_11C_V33_GPRS_MMI/Tools/MinGW/include/c++/3.3.1/bits/stl_algobase.h ****       for (_Distance __n = __last - __first; __n > 0; --__n) {
 241:h:/6261A/11CW1352MP_BIRD61A_11C_V33_GPRS_MMI/Tools/MinGW/include/c++/3.3.1/bits/stl_algobase.h **** 	*__result = *__first;
 242:h:/6261A/11CW1352MP_BIRD61A_11C_V33_GPRS_MMI/Tools/MinGW/include/c++/3.3.1/bits/stl_algobase.h **** 	++__first;
 243:h:/6261A/11CW1352MP_BIRD61A_11C_V33_GPRS_MMI/Tools/MinGW/include/c++/3.3.1/bits/stl_algobase.h **** 	++__result;
 244:h:/6261A/11CW1352MP_BIRD61A_11C_V33_GPRS_MMI/Tools/MinGW/include/c++/3.3.1/bits/stl_algobase.h ****       }
 245:h:/6261A/11CW1352MP_BIRD61A_11C_V33_GPRS_MMI/Tools/MinGW/include/c++/3.3.1/bits/stl_algobase.h ****       return __result;
 246:h:/6261A/11CW1352MP_BIRD61A_11C_V33_GPRS_MMI/Tools/MinGW/include/c++/3.3.1/bits/stl_algobase.h ****     }
 247:h:/6261A/11CW1352MP_BIRD61A_11C_V33_GPRS_MMI/Tools/MinGW/include/c++/3.3.1/bits/stl_algobase.h **** 
 248:h:/6261A/11CW1352MP_BIRD61A_11C_V33_GPRS_MMI/Tools/MinGW/include/c++/3.3.1/bits/stl_algobase.h ****   template<typename _Tp>
 249:h:/6261A/11CW1352MP_BIRD61A_11C_V33_GPRS_MMI/Tools/MinGW/include/c++/3.3.1/bits/stl_algobase.h ****     inline _Tp*
 250:h:/6261A/11CW1352MP_BIRD61A_11C_V33_GPRS_MMI/Tools/MinGW/include/c++/3.3.1/bits/stl_algobase.h ****     __copy_trivial(const _Tp* __first, const _Tp* __last, _Tp* __result)
 251:h:/6261A/11CW1352MP_BIRD61A_11C_V33_GPRS_MMI/Tools/MinGW/include/c++/3.3.1/bits/stl_algobase.h ****     {
 252:h:/6261A/11CW1352MP_BIRD61A_11C_V33_GPRS_MMI/Tools/MinGW/include/c++/3.3.1/bits/stl_algobase.h ****       memmove(__result, __first, sizeof(_Tp) * (__last - __first));
 253:h:/6261A/11CW1352MP_BIRD61A_11C_V33_GPRS_MMI/Tools/MinGW/include/c++/3.3.1/bits/stl_algobase.h ****       return __result + (__last - __first);
 254:h:/6261A/11CW1352MP_BIRD61A_11C_V33_GPRS_MMI/Tools/MinGW/include/c++/3.3.1/bits/stl_algobase.h ****     }
 255:h:/6261A/11CW1352MP_BIRD61A_11C_V33_GPRS_MMI/Tools/MinGW/include/c++/3.3.1/bits/stl_algobase.h **** 
 256:h:/6261A/11CW1352MP_BIRD61A_11C_V33_GPRS_MMI/Tools/MinGW/include/c++/3.3.1/bits/stl_algobase.h ****   template<typename _InputIter, typename _OutputIter>
 257:h:/6261A/11CW1352MP_BIRD61A_11C_V33_GPRS_MMI/Tools/MinGW/include/c++/3.3.1/bits/stl_algobase.h ****     inline _OutputIter
 258:h:/6261A/11CW1352MP_BIRD61A_11C_V33_GPRS_MMI/Tools/MinGW/include/c++/3.3.1/bits/stl_algobase.h ****     __copy_aux2(_InputIter __first, _InputIter __last,
 259:h:/6261A/11CW1352MP_BIRD61A_11C_V33_GPRS_MMI/Tools/MinGW/include/c++/3.3.1/bits/stl_algobase.h **** 		_OutputIter __result, __false_type)
 260:h:/6261A/11CW1352MP_BIRD61A_11C_V33_GPRS_MMI/Tools/MinGW/include/c++/3.3.1/bits/stl_algobase.h ****     { return __copy(__first, __last, __result, __iterator_category(__first)); }
 261:h:/6261A/11CW1352MP_BIRD61A_11C_V33_GPRS_MMI/Tools/MinGW/include/c++/3.3.1/bits/stl_algobase.h **** 
 262:h:/6261A/11CW1352MP_BIRD61A_11C_V33_GPRS_MMI/Tools/MinGW/include/c++/3.3.1/bits/stl_algobase.h ****   template<typename _InputIter, typename _OutputIter>
 263:h:/6261A/11CW1352MP_BIRD61A_11C_V33_GPRS_MMI/Tools/MinGW/include/c++/3.3.1/bits/stl_algobase.h ****     inline _OutputIter
 264:h:/6261A/11CW1352MP_BIRD61A_11C_V33_GPRS_MMI/Tools/MinGW/include/c++/3.3.1/bits/stl_algobase.h ****     __copy_aux2(_InputIter __first, _InputIter __last,
 265:h:/6261A/11CW1352MP_BIRD61A_11C_V33_GPRS_MMI/Tools/MinGW/include/c++/3.3.1/bits/stl_algobase.h **** 		_OutputIter __result, __true_type)
 266:h:/6261A/11CW1352MP_BIRD61A_11C_V33_GPRS_MMI/Tools/MinGW/include/c++/3.3.1/bits/stl_algobase.h ****     { return __copy(__first, __last, __result, __iterator_category(__first)); }
 267:h:/6261A/11CW1352MP_BIRD61A_11C_V33_GPRS_MMI/Tools/MinGW/include/c++/3.3.1/bits/stl_algobase.h **** 
 268:h:/6261A/11CW1352MP_BIRD61A_11C_V33_GPRS_MMI/Tools/MinGW/include/c++/3.3.1/bits/stl_algobase.h ****   template<typename _Tp>
 269:h:/6261A/11CW1352MP_BIRD61A_11C_V33_GPRS_MMI/Tools/MinGW/include/c++/3.3.1/bits/stl_algobase.h ****     inline _Tp*
 270:h:/6261A/11CW1352MP_BIRD61A_11C_V33_GPRS_MMI/Tools/MinGW/include/c++/3.3.1/bits/stl_algobase.h ****     __copy_aux2(_Tp* __first, _Tp* __last,
 271:h:/6261A/11CW1352MP_BIRD61A_11C_V33_GPRS_MMI/Tools/MinGW/include/c++/3.3.1/bits/stl_algobase.h **** 		_Tp* __result, __true_type)
 272:h:/6261A/11CW1352MP_BIRD61A_11C_V33_GPRS_MMI/Tools/MinGW/include/c++/3.3.1/bits/stl_algobase.h ****     { return __copy_trivial(__first, __last, __result); }
 273:h:/6261A/11CW1352MP_BIRD61A_11C_V33_GPRS_MMI/Tools/MinGW/include/c++/3.3.1/bits/stl_algobase.h **** 
 274:h:/6261A/11CW1352MP_BIRD61A_11C_V33_GPRS_MMI/Tools/MinGW/include/c++/3.3.1/bits/stl_algobase.h ****   template<typename _Tp>
 275:h:/6261A/11CW1352MP_BIRD61A_11C_V33_GPRS_MMI/Tools/MinGW/include/c++/3.3.1/bits/stl_algobase.h ****     inline _Tp*
 276:h:/6261A/11CW1352MP_BIRD61A_11C_V33_GPRS_MMI/Tools/MinGW/include/c++/3.3.1/bits/stl_algobase.h ****     __copy_aux2(const _Tp* __first, const _Tp* __last,
 277:h:/6261A/11CW1352MP_BIRD61A_11C_V33_GPRS_MMI/Tools/MinGW/include/c++/3.3.1/bits/stl_algobase.h **** 		_Tp* __result, __true_type)
GAS LISTING h:/6261A/11CW1352MP_BIRD61A_11C_V33_GPRS_MMI/plutommi/Customer/ResGenerator/gcctmp/ccEHcaaa.s 			page 152


 278:h:/6261A/11CW1352MP_BIRD61A_11C_V33_GPRS_MMI/Tools/MinGW/include/c++/3.3.1/bits/stl_algobase.h ****     { return __copy_trivial(__first, __last, __result); }
 279:h:/6261A/11CW1352MP_BIRD61A_11C_V33_GPRS_MMI/Tools/MinGW/include/c++/3.3.1/bits/stl_algobase.h **** 
 280:h:/6261A/11CW1352MP_BIRD61A_11C_V33_GPRS_MMI/Tools/MinGW/include/c++/3.3.1/bits/stl_algobase.h ****   template<typename _InputIter, typename _OutputIter>
 281:h:/6261A/11CW1352MP_BIRD61A_11C_V33_GPRS_MMI/Tools/MinGW/include/c++/3.3.1/bits/stl_algobase.h ****     inline _OutputIter
 282:h:/6261A/11CW1352MP_BIRD61A_11C_V33_GPRS_MMI/Tools/MinGW/include/c++/3.3.1/bits/stl_algobase.h ****     __copy_ni2(_InputIter __first, _InputIter __last,
 283:h:/6261A/11CW1352MP_BIRD61A_11C_V33_GPRS_MMI/Tools/MinGW/include/c++/3.3.1/bits/stl_algobase.h **** 	       _OutputIter __result, __true_type)
 284:h:/6261A/11CW1352MP_BIRD61A_11C_V33_GPRS_MMI/Tools/MinGW/include/c++/3.3.1/bits/stl_algobase.h ****     {
 285:h:/6261A/11CW1352MP_BIRD61A_11C_V33_GPRS_MMI/Tools/MinGW/include/c++/3.3.1/bits/stl_algobase.h ****       typedef typename iterator_traits<_InputIter>::value_type
 286:h:/6261A/11CW1352MP_BIRD61A_11C_V33_GPRS_MMI/Tools/MinGW/include/c++/3.3.1/bits/stl_algobase.h **** 	  _ValueType;
 287:h:/6261A/11CW1352MP_BIRD61A_11C_V33_GPRS_MMI/Tools/MinGW/include/c++/3.3.1/bits/stl_algobase.h ****       typedef typename __type_traits<_ValueType>::has_trivial_assignment_operator
 288:h:/6261A/11CW1352MP_BIRD61A_11C_V33_GPRS_MMI/Tools/MinGW/include/c++/3.3.1/bits/stl_algobase.h **** 	  _Trivial;
 289:h:/6261A/11CW1352MP_BIRD61A_11C_V33_GPRS_MMI/Tools/MinGW/include/c++/3.3.1/bits/stl_algobase.h ****       return _OutputIter(__copy_aux2(__first, __last,
 290:h:/6261A/11CW1352MP_BIRD61A_11C_V33_GPRS_MMI/Tools/MinGW/include/c++/3.3.1/bits/stl_algobase.h ****                                      __result.base(),
 291:h:/6261A/11CW1352MP_BIRD61A_11C_V33_GPRS_MMI/Tools/MinGW/include/c++/3.3.1/bits/stl_algobase.h **** 				     _Trivial()));
 292:h:/6261A/11CW1352MP_BIRD61A_11C_V33_GPRS_MMI/Tools/MinGW/include/c++/3.3.1/bits/stl_algobase.h ****     }
 293:h:/6261A/11CW1352MP_BIRD61A_11C_V33_GPRS_MMI/Tools/MinGW/include/c++/3.3.1/bits/stl_algobase.h **** 
 294:h:/6261A/11CW1352MP_BIRD61A_11C_V33_GPRS_MMI/Tools/MinGW/include/c++/3.3.1/bits/stl_algobase.h ****   template<typename _InputIter, typename _OutputIter>
 295:h:/6261A/11CW1352MP_BIRD61A_11C_V33_GPRS_MMI/Tools/MinGW/include/c++/3.3.1/bits/stl_algobase.h ****     inline _OutputIter
 296:h:/6261A/11CW1352MP_BIRD61A_11C_V33_GPRS_MMI/Tools/MinGW/include/c++/3.3.1/bits/stl_algobase.h ****     __copy_ni2(_InputIter __first, _InputIter __last,
 297:h:/6261A/11CW1352MP_BIRD61A_11C_V33_GPRS_MMI/Tools/MinGW/include/c++/3.3.1/bits/stl_algobase.h **** 	       _OutputIter __result, __false_type)
 298:h:/6261A/11CW1352MP_BIRD61A_11C_V33_GPRS_MMI/Tools/MinGW/include/c++/3.3.1/bits/stl_algobase.h ****     {
 299:h:/6261A/11CW1352MP_BIRD61A_11C_V33_GPRS_MMI/Tools/MinGW/include/c++/3.3.1/bits/stl_algobase.h ****       typedef typename iterator_traits<_InputIter>::value_type
 300:h:/6261A/11CW1352MP_BIRD61A_11C_V33_GPRS_MMI/Tools/MinGW/include/c++/3.3.1/bits/stl_algobase.h ****           _ValueType;
 301:h:/6261A/11CW1352MP_BIRD61A_11C_V33_GPRS_MMI/Tools/MinGW/include/c++/3.3.1/bits/stl_algobase.h ****       typedef typename __type_traits<_ValueType>::has_trivial_assignment_operator
 302:h:/6261A/11CW1352MP_BIRD61A_11C_V33_GPRS_MMI/Tools/MinGW/include/c++/3.3.1/bits/stl_algobase.h ****           _Trivial;
 303:h:/6261A/11CW1352MP_BIRD61A_11C_V33_GPRS_MMI/Tools/MinGW/include/c++/3.3.1/bits/stl_algobase.h ****       return __copy_aux2(__first, __last,
 304:h:/6261A/11CW1352MP_BIRD61A_11C_V33_GPRS_MMI/Tools/MinGW/include/c++/3.3.1/bits/stl_algobase.h ****                          __result,
 305:h:/6261A/11CW1352MP_BIRD61A_11C_V33_GPRS_MMI/Tools/MinGW/include/c++/3.3.1/bits/stl_algobase.h **** 			 _Trivial());
 306:h:/6261A/11CW1352MP_BIRD61A_11C_V33_GPRS_MMI/Tools/MinGW/include/c++/3.3.1/bits/stl_algobase.h ****     }
 307:h:/6261A/11CW1352MP_BIRD61A_11C_V33_GPRS_MMI/Tools/MinGW/include/c++/3.3.1/bits/stl_algobase.h **** 
 308:h:/6261A/11CW1352MP_BIRD61A_11C_V33_GPRS_MMI/Tools/MinGW/include/c++/3.3.1/bits/stl_algobase.h ****   template<typename _InputIter, typename _OutputIter>
 309:h:/6261A/11CW1352MP_BIRD61A_11C_V33_GPRS_MMI/Tools/MinGW/include/c++/3.3.1/bits/stl_algobase.h ****     inline _OutputIter
 310:h:/6261A/11CW1352MP_BIRD61A_11C_V33_GPRS_MMI/Tools/MinGW/include/c++/3.3.1/bits/stl_algobase.h ****     __copy_ni1(_InputIter __first, _InputIter __last,
 311:h:/6261A/11CW1352MP_BIRD61A_11C_V33_GPRS_MMI/Tools/MinGW/include/c++/3.3.1/bits/stl_algobase.h **** 	       _OutputIter __result, __true_type)
 312:h:/6261A/11CW1352MP_BIRD61A_11C_V33_GPRS_MMI/Tools/MinGW/include/c++/3.3.1/bits/stl_algobase.h ****     {
 313:h:/6261A/11CW1352MP_BIRD61A_11C_V33_GPRS_MMI/Tools/MinGW/include/c++/3.3.1/bits/stl_algobase.h ****       typedef typename _Is_normal_iterator<_OutputIter>::_Normal __Normal;
 314:h:/6261A/11CW1352MP_BIRD61A_11C_V33_GPRS_MMI/Tools/MinGW/include/c++/3.3.1/bits/stl_algobase.h ****       return __copy_ni2(__first.base(), __last.base(), __result, __Normal());
 315:h:/6261A/11CW1352MP_BIRD61A_11C_V33_GPRS_MMI/Tools/MinGW/include/c++/3.3.1/bits/stl_algobase.h ****     }
 316:h:/6261A/11CW1352MP_BIRD61A_11C_V33_GPRS_MMI/Tools/MinGW/include/c++/3.3.1/bits/stl_algobase.h **** 
 317:h:/6261A/11CW1352MP_BIRD61A_11C_V33_GPRS_MMI/Tools/MinGW/include/c++/3.3.1/bits/stl_algobase.h ****   template<typename _InputIter, typename _OutputIter>
 318:h:/6261A/11CW1352MP_BIRD61A_11C_V33_GPRS_MMI/Tools/MinGW/include/c++/3.3.1/bits/stl_algobase.h ****     inline _OutputIter
 319:h:/6261A/11CW1352MP_BIRD61A_11C_V33_GPRS_MMI/Tools/MinGW/include/c++/3.3.1/bits/stl_algobase.h ****     __copy_ni1(_InputIter __first, _InputIter __last,
 320:h:/6261A/11CW1352MP_BIRD61A_11C_V33_GPRS_MMI/Tools/MinGW/include/c++/3.3.1/bits/stl_algobase.h **** 	       _OutputIter __result, __false_type)
 321:h:/6261A/11CW1352MP_BIRD61A_11C_V33_GPRS_MMI/Tools/MinGW/include/c++/3.3.1/bits/stl_algobase.h ****     {
 322:h:/6261A/11CW1352MP_BIRD61A_11C_V33_GPRS_MMI/Tools/MinGW/include/c++/3.3.1/bits/stl_algobase.h ****       typedef typename _Is_normal_iterator<_OutputIter>::_Normal __Normal;
 323:h:/6261A/11CW1352MP_BIRD61A_11C_V33_GPRS_MMI/Tools/MinGW/include/c++/3.3.1/bits/stl_algobase.h ****       return __copy_ni2(__first, __last, __result, __Normal());
 324:h:/6261A/11CW1352MP_BIRD61A_11C_V33_GPRS_MMI/Tools/MinGW/include/c++/3.3.1/bits/stl_algobase.h ****     }
 325:h:/6261A/11CW1352MP_BIRD61A_11C_V33_GPRS_MMI/Tools/MinGW/include/c++/3.3.1/bits/stl_algobase.h **** 
 326:h:/6261A/11CW1352MP_BIRD61A_11C_V33_GPRS_MMI/Tools/MinGW/include/c++/3.3.1/bits/stl_algobase.h ****   /**
 327:h:/6261A/11CW1352MP_BIRD61A_11C_V33_GPRS_MMI/Tools/MinGW/include/c++/3.3.1/bits/stl_algobase.h ****    *  @brief Copies the range [first,last) into result.
 328:h:/6261A/11CW1352MP_BIRD61A_11C_V33_GPRS_MMI/Tools/MinGW/include/c++/3.3.1/bits/stl_algobase.h ****    *  @param  first  An input iterator.
 329:h:/6261A/11CW1352MP_BIRD61A_11C_V33_GPRS_MMI/Tools/MinGW/include/c++/3.3.1/bits/stl_algobase.h ****    *  @param  last   An input iterator.
 330:h:/6261A/11CW1352MP_BIRD61A_11C_V33_GPRS_MMI/Tools/MinGW/include/c++/3.3.1/bits/stl_algobase.h ****    *  @param  result An output iterator.
 331:h:/6261A/11CW1352MP_BIRD61A_11C_V33_GPRS_MMI/Tools/MinGW/include/c++/3.3.1/bits/stl_algobase.h ****    *  @return   result + (first - last)
 332:h:/6261A/11CW1352MP_BIRD61A_11C_V33_GPRS_MMI/Tools/MinGW/include/c++/3.3.1/bits/stl_algobase.h ****    *
 333:h:/6261A/11CW1352MP_BIRD61A_11C_V33_GPRS_MMI/Tools/MinGW/include/c++/3.3.1/bits/stl_algobase.h ****    *  This inline function will boil down to a call to @c memmove whenever
 334:h:/6261A/11CW1352MP_BIRD61A_11C_V33_GPRS_MMI/Tools/MinGW/include/c++/3.3.1/bits/stl_algobase.h ****    *  possible.  Failing that, if random access iterators are passed, then the
GAS LISTING h:/6261A/11CW1352MP_BIRD61A_11C_V33_GPRS_MMI/plutommi/Customer/ResGenerator/gcctmp/ccEHcaaa.s 			page 153


 335:h:/6261A/11CW1352MP_BIRD61A_11C_V33_GPRS_MMI/Tools/MinGW/include/c++/3.3.1/bits/stl_algobase.h ****    *  loop count will be known (and therefore a candidate for compiler
 336:h:/6261A/11CW1352MP_BIRD61A_11C_V33_GPRS_MMI/Tools/MinGW/include/c++/3.3.1/bits/stl_algobase.h ****    *  optimizations such as unrolling).  If the input range and the output
 337:h:/6261A/11CW1352MP_BIRD61A_11C_V33_GPRS_MMI/Tools/MinGW/include/c++/3.3.1/bits/stl_algobase.h ****    *  range overlap, then the copy_backward function should be used instead.
 338:h:/6261A/11CW1352MP_BIRD61A_11C_V33_GPRS_MMI/Tools/MinGW/include/c++/3.3.1/bits/stl_algobase.h ****   */
 339:h:/6261A/11CW1352MP_BIRD61A_11C_V33_GPRS_MMI/Tools/MinGW/include/c++/3.3.1/bits/stl_algobase.h ****   template<typename _InputIter, typename _OutputIter>
 340:h:/6261A/11CW1352MP_BIRD61A_11C_V33_GPRS_MMI/Tools/MinGW/include/c++/3.3.1/bits/stl_algobase.h ****     inline _OutputIter
 341:h:/6261A/11CW1352MP_BIRD61A_11C_V33_GPRS_MMI/Tools/MinGW/include/c++/3.3.1/bits/stl_algobase.h ****     copy(_InputIter __first, _InputIter __last, _OutputIter __result)
 342:h:/6261A/11CW1352MP_BIRD61A_11C_V33_GPRS_MMI/Tools/MinGW/include/c++/3.3.1/bits/stl_algobase.h ****     {
 343:h:/6261A/11CW1352MP_BIRD61A_11C_V33_GPRS_MMI/Tools/MinGW/include/c++/3.3.1/bits/stl_algobase.h ****       // concept requirements
 344:h:/6261A/11CW1352MP_BIRD61A_11C_V33_GPRS_MMI/Tools/MinGW/include/c++/3.3.1/bits/stl_algobase.h ****       __glibcpp_function_requires(_InputIteratorConcept<_InputIter>)
 345:h:/6261A/11CW1352MP_BIRD61A_11C_V33_GPRS_MMI/Tools/MinGW/include/c++/3.3.1/bits/stl_algobase.h ****       __glibcpp_function_requires(_OutputIteratorConcept<_OutputIter,
 346:h:/6261A/11CW1352MP_BIRD61A_11C_V33_GPRS_MMI/Tools/MinGW/include/c++/3.3.1/bits/stl_algobase.h **** 	    typename iterator_traits<_InputIter>::value_type>)
 347:h:/6261A/11CW1352MP_BIRD61A_11C_V33_GPRS_MMI/Tools/MinGW/include/c++/3.3.1/bits/stl_algobase.h **** 
 348:h:/6261A/11CW1352MP_BIRD61A_11C_V33_GPRS_MMI/Tools/MinGW/include/c++/3.3.1/bits/stl_algobase.h ****        typedef typename _Is_normal_iterator<_InputIter>::_Normal __Normal;
 349:h:/6261A/11CW1352MP_BIRD61A_11C_V33_GPRS_MMI/Tools/MinGW/include/c++/3.3.1/bits/stl_algobase.h ****        return __copy_ni1(__first, __last, __result, __Normal());
 350:h:/6261A/11CW1352MP_BIRD61A_11C_V33_GPRS_MMI/Tools/MinGW/include/c++/3.3.1/bits/stl_algobase.h ****     }
 351:h:/6261A/11CW1352MP_BIRD61A_11C_V33_GPRS_MMI/Tools/MinGW/include/c++/3.3.1/bits/stl_algobase.h **** 
 352:h:/6261A/11CW1352MP_BIRD61A_11C_V33_GPRS_MMI/Tools/MinGW/include/c++/3.3.1/bits/stl_algobase.h ****   //--------------------------------------------------
 353:h:/6261A/11CW1352MP_BIRD61A_11C_V33_GPRS_MMI/Tools/MinGW/include/c++/3.3.1/bits/stl_algobase.h ****   // copy_backward
 354:h:/6261A/11CW1352MP_BIRD61A_11C_V33_GPRS_MMI/Tools/MinGW/include/c++/3.3.1/bits/stl_algobase.h **** 
 355:h:/6261A/11CW1352MP_BIRD61A_11C_V33_GPRS_MMI/Tools/MinGW/include/c++/3.3.1/bits/stl_algobase.h ****   template<typename _BidirectionalIter1, typename _BidirectionalIter2>
 356:h:/6261A/11CW1352MP_BIRD61A_11C_V33_GPRS_MMI/Tools/MinGW/include/c++/3.3.1/bits/stl_algobase.h ****     inline _BidirectionalIter2
 357:h:/6261A/11CW1352MP_BIRD61A_11C_V33_GPRS_MMI/Tools/MinGW/include/c++/3.3.1/bits/stl_algobase.h ****     __copy_backward(_BidirectionalIter1 __first, _BidirectionalIter1 __last, 
 358:h:/6261A/11CW1352MP_BIRD61A_11C_V33_GPRS_MMI/Tools/MinGW/include/c++/3.3.1/bits/stl_algobase.h **** 		    _BidirectionalIter2 __result,
 359:h:/6261A/11CW1352MP_BIRD61A_11C_V33_GPRS_MMI/Tools/MinGW/include/c++/3.3.1/bits/stl_algobase.h **** 		    bidirectional_iterator_tag)
 360:h:/6261A/11CW1352MP_BIRD61A_11C_V33_GPRS_MMI/Tools/MinGW/include/c++/3.3.1/bits/stl_algobase.h ****     {
 361:h:/6261A/11CW1352MP_BIRD61A_11C_V33_GPRS_MMI/Tools/MinGW/include/c++/3.3.1/bits/stl_algobase.h ****       while (__first != __last)
 362:h:/6261A/11CW1352MP_BIRD61A_11C_V33_GPRS_MMI/Tools/MinGW/include/c++/3.3.1/bits/stl_algobase.h ****         *--__result = *--__last;
 363:h:/6261A/11CW1352MP_BIRD61A_11C_V33_GPRS_MMI/Tools/MinGW/include/c++/3.3.1/bits/stl_algobase.h ****       return __result;
 364:h:/6261A/11CW1352MP_BIRD61A_11C_V33_GPRS_MMI/Tools/MinGW/include/c++/3.3.1/bits/stl_algobase.h ****     }
 365:h:/6261A/11CW1352MP_BIRD61A_11C_V33_GPRS_MMI/Tools/MinGW/include/c++/3.3.1/bits/stl_algobase.h **** 
 366:h:/6261A/11CW1352MP_BIRD61A_11C_V33_GPRS_MMI/Tools/MinGW/include/c++/3.3.1/bits/stl_algobase.h ****   template<typename _RandomAccessIter, typename _BidirectionalIter>
 367:h:/6261A/11CW1352MP_BIRD61A_11C_V33_GPRS_MMI/Tools/MinGW/include/c++/3.3.1/bits/stl_algobase.h ****     inline _BidirectionalIter
 368:h:/6261A/11CW1352MP_BIRD61A_11C_V33_GPRS_MMI/Tools/MinGW/include/c++/3.3.1/bits/stl_algobase.h ****     __copy_backward(_RandomAccessIter __first, _RandomAccessIter __last, 
 369:h:/6261A/11CW1352MP_BIRD61A_11C_V33_GPRS_MMI/Tools/MinGW/include/c++/3.3.1/bits/stl_algobase.h **** 		    _BidirectionalIter __result,
 370:h:/6261A/11CW1352MP_BIRD61A_11C_V33_GPRS_MMI/Tools/MinGW/include/c++/3.3.1/bits/stl_algobase.h **** 		    random_access_iterator_tag)
 371:h:/6261A/11CW1352MP_BIRD61A_11C_V33_GPRS_MMI/Tools/MinGW/include/c++/3.3.1/bits/stl_algobase.h ****     {
 372:h:/6261A/11CW1352MP_BIRD61A_11C_V33_GPRS_MMI/Tools/MinGW/include/c++/3.3.1/bits/stl_algobase.h ****       typename iterator_traits<_RandomAccessIter>::difference_type __n;
 373:h:/6261A/11CW1352MP_BIRD61A_11C_V33_GPRS_MMI/Tools/MinGW/include/c++/3.3.1/bits/stl_algobase.h ****       for (__n = __last - __first; __n > 0; --__n)
 374:h:/6261A/11CW1352MP_BIRD61A_11C_V33_GPRS_MMI/Tools/MinGW/include/c++/3.3.1/bits/stl_algobase.h ****         *--__result = *--__last;
 375:h:/6261A/11CW1352MP_BIRD61A_11C_V33_GPRS_MMI/Tools/MinGW/include/c++/3.3.1/bits/stl_algobase.h ****       return __result;
 376:h:/6261A/11CW1352MP_BIRD61A_11C_V33_GPRS_MMI/Tools/MinGW/include/c++/3.3.1/bits/stl_algobase.h ****     }
 377:h:/6261A/11CW1352MP_BIRD61A_11C_V33_GPRS_MMI/Tools/MinGW/include/c++/3.3.1/bits/stl_algobase.h **** 
 378:h:/6261A/11CW1352MP_BIRD61A_11C_V33_GPRS_MMI/Tools/MinGW/include/c++/3.3.1/bits/stl_algobase.h **** 
 379:h:/6261A/11CW1352MP_BIRD61A_11C_V33_GPRS_MMI/Tools/MinGW/include/c++/3.3.1/bits/stl_algobase.h ****   // This dispatch class is a workaround for compilers that do not 
 380:h:/6261A/11CW1352MP_BIRD61A_11C_V33_GPRS_MMI/Tools/MinGW/include/c++/3.3.1/bits/stl_algobase.h ****   // have partial ordering of function templates.  All we're doing is
 381:h:/6261A/11CW1352MP_BIRD61A_11C_V33_GPRS_MMI/Tools/MinGW/include/c++/3.3.1/bits/stl_algobase.h ****   // creating a specialization so that we can turn a call to copy_backward
 382:h:/6261A/11CW1352MP_BIRD61A_11C_V33_GPRS_MMI/Tools/MinGW/include/c++/3.3.1/bits/stl_algobase.h ****   // into a memmove whenever possible.
 383:h:/6261A/11CW1352MP_BIRD61A_11C_V33_GPRS_MMI/Tools/MinGW/include/c++/3.3.1/bits/stl_algobase.h **** 
 384:h:/6261A/11CW1352MP_BIRD61A_11C_V33_GPRS_MMI/Tools/MinGW/include/c++/3.3.1/bits/stl_algobase.h ****   template<typename _BidirectionalIter1, typename _BidirectionalIter2,
 385:h:/6261A/11CW1352MP_BIRD61A_11C_V33_GPRS_MMI/Tools/MinGW/include/c++/3.3.1/bits/stl_algobase.h ****            typename _BoolType>
 386:h:/6261A/11CW1352MP_BIRD61A_11C_V33_GPRS_MMI/Tools/MinGW/include/c++/3.3.1/bits/stl_algobase.h ****     struct __copy_backward_dispatch
 387:h:/6261A/11CW1352MP_BIRD61A_11C_V33_GPRS_MMI/Tools/MinGW/include/c++/3.3.1/bits/stl_algobase.h ****     {
 388:h:/6261A/11CW1352MP_BIRD61A_11C_V33_GPRS_MMI/Tools/MinGW/include/c++/3.3.1/bits/stl_algobase.h ****       static _BidirectionalIter2
 389:h:/6261A/11CW1352MP_BIRD61A_11C_V33_GPRS_MMI/Tools/MinGW/include/c++/3.3.1/bits/stl_algobase.h ****       copy(_BidirectionalIter1 __first, _BidirectionalIter1 __last, 
 390:h:/6261A/11CW1352MP_BIRD61A_11C_V33_GPRS_MMI/Tools/MinGW/include/c++/3.3.1/bits/stl_algobase.h **** 	   _BidirectionalIter2 __result)
 391:h:/6261A/11CW1352MP_BIRD61A_11C_V33_GPRS_MMI/Tools/MinGW/include/c++/3.3.1/bits/stl_algobase.h ****       {
GAS LISTING h:/6261A/11CW1352MP_BIRD61A_11C_V33_GPRS_MMI/plutommi/Customer/ResGenerator/gcctmp/ccEHcaaa.s 			page 154


 392:h:/6261A/11CW1352MP_BIRD61A_11C_V33_GPRS_MMI/Tools/MinGW/include/c++/3.3.1/bits/stl_algobase.h ****         return __copy_backward(__first, __last,
 393:h:/6261A/11CW1352MP_BIRD61A_11C_V33_GPRS_MMI/Tools/MinGW/include/c++/3.3.1/bits/stl_algobase.h **** 	                       __result,
 394:h:/6261A/11CW1352MP_BIRD61A_11C_V33_GPRS_MMI/Tools/MinGW/include/c++/3.3.1/bits/stl_algobase.h **** 			       __iterator_category(__first));
 395:h:/6261A/11CW1352MP_BIRD61A_11C_V33_GPRS_MMI/Tools/MinGW/include/c++/3.3.1/bits/stl_algobase.h ****       }
 396:h:/6261A/11CW1352MP_BIRD61A_11C_V33_GPRS_MMI/Tools/MinGW/include/c++/3.3.1/bits/stl_algobase.h ****     };
 397:h:/6261A/11CW1352MP_BIRD61A_11C_V33_GPRS_MMI/Tools/MinGW/include/c++/3.3.1/bits/stl_algobase.h **** 
 398:h:/6261A/11CW1352MP_BIRD61A_11C_V33_GPRS_MMI/Tools/MinGW/include/c++/3.3.1/bits/stl_algobase.h ****   template<typename _Tp>
 399:h:/6261A/11CW1352MP_BIRD61A_11C_V33_GPRS_MMI/Tools/MinGW/include/c++/3.3.1/bits/stl_algobase.h ****     struct __copy_backward_dispatch<_Tp*, _Tp*, __true_type>
 400:h:/6261A/11CW1352MP_BIRD61A_11C_V33_GPRS_MMI/Tools/MinGW/include/c++/3.3.1/bits/stl_algobase.h ****     {
 401:h:/6261A/11CW1352MP_BIRD61A_11C_V33_GPRS_MMI/Tools/MinGW/include/c++/3.3.1/bits/stl_algobase.h ****       static _Tp*
 402:h:/6261A/11CW1352MP_BIRD61A_11C_V33_GPRS_MMI/Tools/MinGW/include/c++/3.3.1/bits/stl_algobase.h ****       copy(const _Tp* __first, const _Tp* __last, _Tp* __result)
 403:h:/6261A/11CW1352MP_BIRD61A_11C_V33_GPRS_MMI/Tools/MinGW/include/c++/3.3.1/bits/stl_algobase.h ****       {
 404:h:/6261A/11CW1352MP_BIRD61A_11C_V33_GPRS_MMI/Tools/MinGW/include/c++/3.3.1/bits/stl_algobase.h **** 	const ptrdiff_t _Num = __last - __first;
 405:h:/6261A/11CW1352MP_BIRD61A_11C_V33_GPRS_MMI/Tools/MinGW/include/c++/3.3.1/bits/stl_algobase.h **** 	memmove(__result - _Num, __first, sizeof(_Tp) * _Num);
 406:h:/6261A/11CW1352MP_BIRD61A_11C_V33_GPRS_MMI/Tools/MinGW/include/c++/3.3.1/bits/stl_algobase.h **** 	return __result - _Num;
 407:h:/6261A/11CW1352MP_BIRD61A_11C_V33_GPRS_MMI/Tools/MinGW/include/c++/3.3.1/bits/stl_algobase.h ****       }
 408:h:/6261A/11CW1352MP_BIRD61A_11C_V33_GPRS_MMI/Tools/MinGW/include/c++/3.3.1/bits/stl_algobase.h ****     };
 409:h:/6261A/11CW1352MP_BIRD61A_11C_V33_GPRS_MMI/Tools/MinGW/include/c++/3.3.1/bits/stl_algobase.h **** 
 410:h:/6261A/11CW1352MP_BIRD61A_11C_V33_GPRS_MMI/Tools/MinGW/include/c++/3.3.1/bits/stl_algobase.h ****   template<typename _Tp>
 411:h:/6261A/11CW1352MP_BIRD61A_11C_V33_GPRS_MMI/Tools/MinGW/include/c++/3.3.1/bits/stl_algobase.h ****     struct __copy_backward_dispatch<const _Tp*, _Tp*, __true_type>
 412:h:/6261A/11CW1352MP_BIRD61A_11C_V33_GPRS_MMI/Tools/MinGW/include/c++/3.3.1/bits/stl_algobase.h ****     {
 413:h:/6261A/11CW1352MP_BIRD61A_11C_V33_GPRS_MMI/Tools/MinGW/include/c++/3.3.1/bits/stl_algobase.h ****       static _Tp*
 414:h:/6261A/11CW1352MP_BIRD61A_11C_V33_GPRS_MMI/Tools/MinGW/include/c++/3.3.1/bits/stl_algobase.h ****       copy(const _Tp* __first, const _Tp* __last, _Tp* __result)
 415:h:/6261A/11CW1352MP_BIRD61A_11C_V33_GPRS_MMI/Tools/MinGW/include/c++/3.3.1/bits/stl_algobase.h ****       {
 416:h:/6261A/11CW1352MP_BIRD61A_11C_V33_GPRS_MMI/Tools/MinGW/include/c++/3.3.1/bits/stl_algobase.h **** 	return  __copy_backward_dispatch<_Tp*, _Tp*, __true_type>
 417:h:/6261A/11CW1352MP_BIRD61A_11C_V33_GPRS_MMI/Tools/MinGW/include/c++/3.3.1/bits/stl_algobase.h **** 	  ::copy(__first, __last, __result);
 418:h:/6261A/11CW1352MP_BIRD61A_11C_V33_GPRS_MMI/Tools/MinGW/include/c++/3.3.1/bits/stl_algobase.h ****       }
 419:h:/6261A/11CW1352MP_BIRD61A_11C_V33_GPRS_MMI/Tools/MinGW/include/c++/3.3.1/bits/stl_algobase.h ****     };
 420:h:/6261A/11CW1352MP_BIRD61A_11C_V33_GPRS_MMI/Tools/MinGW/include/c++/3.3.1/bits/stl_algobase.h **** 
 421:h:/6261A/11CW1352MP_BIRD61A_11C_V33_GPRS_MMI/Tools/MinGW/include/c++/3.3.1/bits/stl_algobase.h ****   template<typename _BI1, typename _BI2>
 422:h:/6261A/11CW1352MP_BIRD61A_11C_V33_GPRS_MMI/Tools/MinGW/include/c++/3.3.1/bits/stl_algobase.h ****     inline _BI2
 423:h:/6261A/11CW1352MP_BIRD61A_11C_V33_GPRS_MMI/Tools/MinGW/include/c++/3.3.1/bits/stl_algobase.h ****     __copy_backward_aux(_BI1 __first, _BI1 __last, _BI2 __result)
 424:h:/6261A/11CW1352MP_BIRD61A_11C_V33_GPRS_MMI/Tools/MinGW/include/c++/3.3.1/bits/stl_algobase.h ****     {
 425:h:/6261A/11CW1352MP_BIRD61A_11C_V33_GPRS_MMI/Tools/MinGW/include/c++/3.3.1/bits/stl_algobase.h ****       typedef typename __type_traits<typename iterator_traits<_BI2>::value_type>
 426:h:/6261A/11CW1352MP_BIRD61A_11C_V33_GPRS_MMI/Tools/MinGW/include/c++/3.3.1/bits/stl_algobase.h **** 			    ::has_trivial_assignment_operator _Trivial;
 427:h:/6261A/11CW1352MP_BIRD61A_11C_V33_GPRS_MMI/Tools/MinGW/include/c++/3.3.1/bits/stl_algobase.h ****       return __copy_backward_dispatch<_BI1, _BI2, _Trivial>
 428:h:/6261A/11CW1352MP_BIRD61A_11C_V33_GPRS_MMI/Tools/MinGW/include/c++/3.3.1/bits/stl_algobase.h **** 		  ::copy(__first, __last, __result);
 429:h:/6261A/11CW1352MP_BIRD61A_11C_V33_GPRS_MMI/Tools/MinGW/include/c++/3.3.1/bits/stl_algobase.h ****     }
 430:h:/6261A/11CW1352MP_BIRD61A_11C_V33_GPRS_MMI/Tools/MinGW/include/c++/3.3.1/bits/stl_algobase.h **** 
 431:h:/6261A/11CW1352MP_BIRD61A_11C_V33_GPRS_MMI/Tools/MinGW/include/c++/3.3.1/bits/stl_algobase.h ****   template <typename _BI1, typename _BI2>
 432:h:/6261A/11CW1352MP_BIRD61A_11C_V33_GPRS_MMI/Tools/MinGW/include/c++/3.3.1/bits/stl_algobase.h ****     inline _BI2
 433:h:/6261A/11CW1352MP_BIRD61A_11C_V33_GPRS_MMI/Tools/MinGW/include/c++/3.3.1/bits/stl_algobase.h ****     __copy_backward_output_normal_iterator(_BI1 __first, _BI1 __last,
 434:h:/6261A/11CW1352MP_BIRD61A_11C_V33_GPRS_MMI/Tools/MinGW/include/c++/3.3.1/bits/stl_algobase.h **** 					   _BI2 __result, __true_type)
 435:h:/6261A/11CW1352MP_BIRD61A_11C_V33_GPRS_MMI/Tools/MinGW/include/c++/3.3.1/bits/stl_algobase.h ****     { return _BI2(__copy_backward_aux(__first, __last, __result.base())); }
 436:h:/6261A/11CW1352MP_BIRD61A_11C_V33_GPRS_MMI/Tools/MinGW/include/c++/3.3.1/bits/stl_algobase.h **** 
 437:h:/6261A/11CW1352MP_BIRD61A_11C_V33_GPRS_MMI/Tools/MinGW/include/c++/3.3.1/bits/stl_algobase.h ****   template <typename _BI1, typename _BI2>
 438:h:/6261A/11CW1352MP_BIRD61A_11C_V33_GPRS_MMI/Tools/MinGW/include/c++/3.3.1/bits/stl_algobase.h ****     inline _BI2
 439:h:/6261A/11CW1352MP_BIRD61A_11C_V33_GPRS_MMI/Tools/MinGW/include/c++/3.3.1/bits/stl_algobase.h ****     __copy_backward_output_normal_iterator(_BI1 __first, _BI1 __last,
 440:h:/6261A/11CW1352MP_BIRD61A_11C_V33_GPRS_MMI/Tools/MinGW/include/c++/3.3.1/bits/stl_algobase.h **** 					   _BI2 __result, __false_type)
 441:h:/6261A/11CW1352MP_BIRD61A_11C_V33_GPRS_MMI/Tools/MinGW/include/c++/3.3.1/bits/stl_algobase.h ****     { return __copy_backward_aux(__first, __last, __result); }
 442:h:/6261A/11CW1352MP_BIRD61A_11C_V33_GPRS_MMI/Tools/MinGW/include/c++/3.3.1/bits/stl_algobase.h **** 
 443:h:/6261A/11CW1352MP_BIRD61A_11C_V33_GPRS_MMI/Tools/MinGW/include/c++/3.3.1/bits/stl_algobase.h ****   template <typename _BI1, typename _BI2>
 444:h:/6261A/11CW1352MP_BIRD61A_11C_V33_GPRS_MMI/Tools/MinGW/include/c++/3.3.1/bits/stl_algobase.h ****     inline _BI2
 445:h:/6261A/11CW1352MP_BIRD61A_11C_V33_GPRS_MMI/Tools/MinGW/include/c++/3.3.1/bits/stl_algobase.h ****     __copy_backward_input_normal_iterator(_BI1 __first, _BI1 __last,
 446:h:/6261A/11CW1352MP_BIRD61A_11C_V33_GPRS_MMI/Tools/MinGW/include/c++/3.3.1/bits/stl_algobase.h **** 					  _BI2 __result, __true_type)
 447:h:/6261A/11CW1352MP_BIRD61A_11C_V33_GPRS_MMI/Tools/MinGW/include/c++/3.3.1/bits/stl_algobase.h ****     {
 448:h:/6261A/11CW1352MP_BIRD61A_11C_V33_GPRS_MMI/Tools/MinGW/include/c++/3.3.1/bits/stl_algobase.h ****       typedef typename _Is_normal_iterator<_BI2>::_Normal __Normal;
GAS LISTING h:/6261A/11CW1352MP_BIRD61A_11C_V33_GPRS_MMI/plutommi/Customer/ResGenerator/gcctmp/ccEHcaaa.s 			page 155


 449:h:/6261A/11CW1352MP_BIRD61A_11C_V33_GPRS_MMI/Tools/MinGW/include/c++/3.3.1/bits/stl_algobase.h ****       return __copy_backward_output_normal_iterator(__first.base(), __last.base(),
 450:h:/6261A/11CW1352MP_BIRD61A_11C_V33_GPRS_MMI/Tools/MinGW/include/c++/3.3.1/bits/stl_algobase.h **** 						    __result, __Normal());
 451:h:/6261A/11CW1352MP_BIRD61A_11C_V33_GPRS_MMI/Tools/MinGW/include/c++/3.3.1/bits/stl_algobase.h ****     }
 452:h:/6261A/11CW1352MP_BIRD61A_11C_V33_GPRS_MMI/Tools/MinGW/include/c++/3.3.1/bits/stl_algobase.h **** 
 453:h:/6261A/11CW1352MP_BIRD61A_11C_V33_GPRS_MMI/Tools/MinGW/include/c++/3.3.1/bits/stl_algobase.h ****   template <typename _BI1, typename _BI2>
 454:h:/6261A/11CW1352MP_BIRD61A_11C_V33_GPRS_MMI/Tools/MinGW/include/c++/3.3.1/bits/stl_algobase.h ****     inline _BI2
 455:h:/6261A/11CW1352MP_BIRD61A_11C_V33_GPRS_MMI/Tools/MinGW/include/c++/3.3.1/bits/stl_algobase.h ****     __copy_backward_input_normal_iterator(_BI1 __first, _BI1 __last,
 456:h:/6261A/11CW1352MP_BIRD61A_11C_V33_GPRS_MMI/Tools/MinGW/include/c++/3.3.1/bits/stl_algobase.h **** 					  _BI2 __result, __false_type)
 457:h:/6261A/11CW1352MP_BIRD61A_11C_V33_GPRS_MMI/Tools/MinGW/include/c++/3.3.1/bits/stl_algobase.h ****     {
 458:h:/6261A/11CW1352MP_BIRD61A_11C_V33_GPRS_MMI/Tools/MinGW/include/c++/3.3.1/bits/stl_algobase.h ****       typedef typename _Is_normal_iterator<_BI2>::_Normal __Normal;
 459:h:/6261A/11CW1352MP_BIRD61A_11C_V33_GPRS_MMI/Tools/MinGW/include/c++/3.3.1/bits/stl_algobase.h ****       return __copy_backward_output_normal_iterator(__first, __last, __result,
 460:h:/6261A/11CW1352MP_BIRD61A_11C_V33_GPRS_MMI/Tools/MinGW/include/c++/3.3.1/bits/stl_algobase.h **** 						    __Normal());
 461:h:/6261A/11CW1352MP_BIRD61A_11C_V33_GPRS_MMI/Tools/MinGW/include/c++/3.3.1/bits/stl_algobase.h ****     }
 462:h:/6261A/11CW1352MP_BIRD61A_11C_V33_GPRS_MMI/Tools/MinGW/include/c++/3.3.1/bits/stl_algobase.h **** 
 463:h:/6261A/11CW1352MP_BIRD61A_11C_V33_GPRS_MMI/Tools/MinGW/include/c++/3.3.1/bits/stl_algobase.h ****   /**
 464:h:/6261A/11CW1352MP_BIRD61A_11C_V33_GPRS_MMI/Tools/MinGW/include/c++/3.3.1/bits/stl_algobase.h ****    *  @brief Copies the range [first,last) into result.
 465:h:/6261A/11CW1352MP_BIRD61A_11C_V33_GPRS_MMI/Tools/MinGW/include/c++/3.3.1/bits/stl_algobase.h ****    *  @param  first  An input iterator.
 466:h:/6261A/11CW1352MP_BIRD61A_11C_V33_GPRS_MMI/Tools/MinGW/include/c++/3.3.1/bits/stl_algobase.h ****    *  @param  last   An input iterator.
 467:h:/6261A/11CW1352MP_BIRD61A_11C_V33_GPRS_MMI/Tools/MinGW/include/c++/3.3.1/bits/stl_algobase.h ****    *  @param  result An output iterator.
 468:h:/6261A/11CW1352MP_BIRD61A_11C_V33_GPRS_MMI/Tools/MinGW/include/c++/3.3.1/bits/stl_algobase.h ****    *  @return   result - (first - last)
 469:h:/6261A/11CW1352MP_BIRD61A_11C_V33_GPRS_MMI/Tools/MinGW/include/c++/3.3.1/bits/stl_algobase.h ****    *
 470:h:/6261A/11CW1352MP_BIRD61A_11C_V33_GPRS_MMI/Tools/MinGW/include/c++/3.3.1/bits/stl_algobase.h ****    *  The function has the same effect as copy, but starts at the end of the
 471:h:/6261A/11CW1352MP_BIRD61A_11C_V33_GPRS_MMI/Tools/MinGW/include/c++/3.3.1/bits/stl_algobase.h ****    *  range and works its way to the start, returning the start of the result.
 472:h:/6261A/11CW1352MP_BIRD61A_11C_V33_GPRS_MMI/Tools/MinGW/include/c++/3.3.1/bits/stl_algobase.h ****    *  This inline function will boil down to a call to @c memmove whenever
 473:h:/6261A/11CW1352MP_BIRD61A_11C_V33_GPRS_MMI/Tools/MinGW/include/c++/3.3.1/bits/stl_algobase.h ****    *  possible.  Failing that, if random access iterators are passed, then the
 474:h:/6261A/11CW1352MP_BIRD61A_11C_V33_GPRS_MMI/Tools/MinGW/include/c++/3.3.1/bits/stl_algobase.h ****    *  loop count will be known (and therefore a candidate for compiler
 475:h:/6261A/11CW1352MP_BIRD61A_11C_V33_GPRS_MMI/Tools/MinGW/include/c++/3.3.1/bits/stl_algobase.h ****    *  optimizations such as unrolling).
 476:h:/6261A/11CW1352MP_BIRD61A_11C_V33_GPRS_MMI/Tools/MinGW/include/c++/3.3.1/bits/stl_algobase.h ****   */
 477:h:/6261A/11CW1352MP_BIRD61A_11C_V33_GPRS_MMI/Tools/MinGW/include/c++/3.3.1/bits/stl_algobase.h ****   template <typename _BI1, typename _BI2>
 478:h:/6261A/11CW1352MP_BIRD61A_11C_V33_GPRS_MMI/Tools/MinGW/include/c++/3.3.1/bits/stl_algobase.h ****     inline _BI2
 479:h:/6261A/11CW1352MP_BIRD61A_11C_V33_GPRS_MMI/Tools/MinGW/include/c++/3.3.1/bits/stl_algobase.h ****     copy_backward(_BI1 __first, _BI1 __last, _BI2 __result)
 480:h:/6261A/11CW1352MP_BIRD61A_11C_V33_GPRS_MMI/Tools/MinGW/include/c++/3.3.1/bits/stl_algobase.h ****     {
 8673              	LM340:
 8674 0000 55       		pushl	%ebp
 8675 0001 89E5     		movl	%esp, %ebp
 8676 0003 83EC18   		subl	$24, %esp
 481:h:/6261A/11CW1352MP_BIRD61A_11C_V33_GPRS_MMI/Tools/MinGW/include/c++/3.3.1/bits/stl_algobase.h ****       // concept requirements
 482:h:/6261A/11CW1352MP_BIRD61A_11C_V33_GPRS_MMI/Tools/MinGW/include/c++/3.3.1/bits/stl_algobase.h ****       __glibcpp_function_requires(_BidirectionalIteratorConcept<_BI1>)
 483:h:/6261A/11CW1352MP_BIRD61A_11C_V33_GPRS_MMI/Tools/MinGW/include/c++/3.3.1/bits/stl_algobase.h ****       __glibcpp_function_requires(_Mutable_BidirectionalIteratorConcept<_BI2>)
 484:h:/6261A/11CW1352MP_BIRD61A_11C_V33_GPRS_MMI/Tools/MinGW/include/c++/3.3.1/bits/stl_algobase.h ****       __glibcpp_function_requires(_ConvertibleConcept<
 485:h:/6261A/11CW1352MP_BIRD61A_11C_V33_GPRS_MMI/Tools/MinGW/include/c++/3.3.1/bits/stl_algobase.h **** 	    typename iterator_traits<_BI1>::value_type,
 486:h:/6261A/11CW1352MP_BIRD61A_11C_V33_GPRS_MMI/Tools/MinGW/include/c++/3.3.1/bits/stl_algobase.h **** 	    typename iterator_traits<_BI2>::value_type>)
 487:h:/6261A/11CW1352MP_BIRD61A_11C_V33_GPRS_MMI/Tools/MinGW/include/c++/3.3.1/bits/stl_algobase.h **** 
 488:h:/6261A/11CW1352MP_BIRD61A_11C_V33_GPRS_MMI/Tools/MinGW/include/c++/3.3.1/bits/stl_algobase.h ****       typedef typename _Is_normal_iterator<_BI1>::_Normal __Normal;
 489:h:/6261A/11CW1352MP_BIRD61A_11C_V33_GPRS_MMI/Tools/MinGW/include/c++/3.3.1/bits/stl_algobase.h ****       return __copy_backward_input_normal_iterator(__first, __last, __result,
 8678              	LM341:
 8679              	LBB94:
 8680 0006 C644240C 		movb	$0, 12(%esp)
 8680      00
 8681 000b 8B4510   		movl	16(%ebp), %eax
 8682 000e 89442408 		movl	%eax, 8(%esp)
 8683 0012 8B450C   		movl	12(%ebp), %eax
 8684 0015 89442404 		movl	%eax, 4(%esp)
 8685 0019 8B4508   		movl	8(%ebp), %eax
 8686 001c 890424   		movl	%eax, (%esp)
 8687 001f E8000000 		call	__ZSt37__copy_backward_input_normal_iteratorIN9__gnu_cxx17__normal_iteratorIPN10ThreadPool10T
 8687      00
GAS LISTING h:/6261A/11CW1352MP_BIRD61A_11C_V33_GPRS_MMI/plutommi/Customer/ResGenerator/gcctmp/ccEHcaaa.s 			page 156


 8688 0024 8945FC   		movl	%eax, -4(%ebp)
 8689 0027 8B45FC   		movl	-4(%ebp), %eax
 8690 002a C9       		leave
 8691 002b C3       		ret
 8692              	LBE94:
 8693              	Lscope75:
 8695              		.section	.text$_ZSt37__copy_backward_input_normal_iteratorIN9__gnu_cxx17__normal_iteratorIPN10Thre
 8696              		.linkonce discard
 8697              		.align 2
 8702              	.globl __ZSt37__copy_backward_input_normal_iteratorIN9__gnu_cxx17__normal_iteratorIPN10ThreadPool10
 8704              	__ZSt37__copy_backward_input_normal_iteratorIN9__gnu_cxx17__normal_iteratorIPN10ThreadPool10ThreadD
 8706              	LM342:
 8707 0000 55       		pushl	%ebp
 8708 0001 89E5     		movl	%esp, %ebp
 8709 0003 53       		pushl	%ebx
 8710 0004 83EC24   		subl	$36, %esp
 8712              	LM343:
 8713              	LBB95:
 8714 0007 8D450C   		leal	12(%ebp), %eax
 8715 000a 890424   		movl	%eax, (%esp)
 8716 000d E8000000 		call	__ZNK9__gnu_cxx17__normal_iteratorIPN10ThreadPool10ThreadDataESt6vectorIS2_SaIS2_EEE4baseEv
 8716      00
 8717 0012 89C3     		movl	%eax, %ebx
 8718 0014 8D4508   		leal	8(%ebp), %eax
 8719 0017 890424   		movl	%eax, (%esp)
 8720 001a E8000000 		call	__ZNK9__gnu_cxx17__normal_iteratorIPN10ThreadPool10ThreadDataESt6vectorIS2_SaIS2_EEE4baseEv
 8720      00
 8721 001f 89C2     		movl	%eax, %edx
 8722 0021 C644240C 		movb	$0, 12(%esp)
 8722      00
 8723 0026 8B4510   		movl	16(%ebp), %eax
 8724 0029 89442408 		movl	%eax, 8(%esp)
 8725 002d 8B03     		movl	(%ebx), %eax
 8726 002f 89442404 		movl	%eax, 4(%esp)
 8727 0033 8B02     		movl	(%edx), %eax
 8728 0035 890424   		movl	%eax, (%esp)
 8729 0038 E8000000 		call	__ZSt38__copy_backward_output_normal_iteratorIPN10ThreadPool10ThreadDataEN9__gnu_cxx17__norma
 8729      00
 8730 003d 8945F8   		movl	%eax, -8(%ebp)
 8731 0040 8B45F8   		movl	-8(%ebp), %eax
 8732 0043 83C424   		addl	$36, %esp
 8733 0046 5B       		popl	%ebx
 8734 0047 5D       		popl	%ebp
 8735 0048 C3       		ret
 8736              	LBE95:
 8737              	Lscope76:
 8739 0049 909090   		.section	.text$_ZSt38__copy_backward_output_normal_iteratorIPN10ThreadPool10ThreadDataEN9__gnu_cxx
 8740              		.linkonce discard
 8741              		.align 2
 8746              	.globl __ZSt38__copy_backward_output_normal_iteratorIPN10ThreadPool10ThreadDataEN9__gnu_cxx17__norm
 8748              	__ZSt38__copy_backward_output_normal_iteratorIPN10ThreadPool10ThreadDataEN9__gnu_cxx17__normal_iter
 8750              	LM344:
 8751 0000 55       		pushl	%ebp
 8752 0001 89E5     		movl	%esp, %ebp
 8753 0003 83EC18   		subl	$24, %esp
 8755              	LM345:
 8756              	LBB96:
GAS LISTING h:/6261A/11CW1352MP_BIRD61A_11C_V33_GPRS_MMI/plutommi/Customer/ResGenerator/gcctmp/ccEHcaaa.s 			page 157


 8757 0006 8D4510   		leal	16(%ebp), %eax
 8758 0009 890424   		movl	%eax, (%esp)
 8759 000c E8000000 		call	__ZNK9__gnu_cxx17__normal_iteratorIPN10ThreadPool10ThreadDataESt6vectorIS2_SaIS2_EEE4baseEv
 8759      00
 8760 0011 8B00     		movl	(%eax), %eax
 8761 0013 89442408 		movl	%eax, 8(%esp)
 8762 0017 8B450C   		movl	12(%ebp), %eax
 8763 001a 89442404 		movl	%eax, 4(%esp)
 8764 001e 8B4508   		movl	8(%ebp), %eax
 8765 0021 890424   		movl	%eax, (%esp)
 8766 0024 E8000000 		call	__ZSt19__copy_backward_auxIPN10ThreadPool10ThreadDataES2_ET0_T_S4_S3_
 8766      00
 8767 0029 8945F8   		movl	%eax, -8(%ebp)
 8768 002c 8D45F8   		leal	-8(%ebp), %eax
 8769 002f 89442404 		movl	%eax, 4(%esp)
 8770 0033 8D45FC   		leal	-4(%ebp), %eax
 8771 0036 890424   		movl	%eax, (%esp)
 8772 0039 E8000000 		call	__ZN9__gnu_cxx17__normal_iteratorIPN10ThreadPool10ThreadDataESt6vectorIS2_SaIS2_EEEC1ERKS3_
 8772      00
 8773 003e 8B45FC   		movl	-4(%ebp), %eax
 8774 0041 C9       		leave
 8775 0042 C3       		ret
 8776              	LBE96:
 8777              	Lscope77:
 8779 0043 90       		.section	.text$_ZSt19__copy_backward_auxIPN10ThreadPool10ThreadDataES2_ET0_T_S4_S3_,"x"
 8780              		.linkonce discard
 8781              		.align 2
 8786              	.globl __ZSt19__copy_backward_auxIPN10ThreadPool10ThreadDataES2_ET0_T_S4_S3_
 8788              	__ZSt19__copy_backward_auxIPN10ThreadPool10ThreadDataES2_ET0_T_S4_S3_:
 8790              	LM346:
 8791 0000 55       		pushl	%ebp
 8792 0001 89E5     		movl	%esp, %ebp
 8793 0003 83EC18   		subl	$24, %esp
 8795              	LM347:
 8796              	LBB97:
 8797 0006 8B4510   		movl	16(%ebp), %eax
 8798 0009 89442408 		movl	%eax, 8(%esp)
 8799 000d 8B450C   		movl	12(%ebp), %eax
 8800 0010 89442404 		movl	%eax, 4(%esp)
 8801 0014 8B4508   		movl	8(%ebp), %eax
 8802 0017 890424   		movl	%eax, (%esp)
 8803 001a E8000000 		call	__ZNSt24__copy_backward_dispatchIPN10ThreadPool10ThreadDataES2_12__false_typeE4copyES2_S2_S2_
 8803      00
 8804 001f C9       		leave
 8805 0020 C3       		ret
 8806              	LBE97:
 8807              	Lscope78:
 8809 0021 909090   		.section	.text$_ZNSt24__copy_backward_dispatchIPN10ThreadPool10ThreadDataES2_12__false_typeE4copyE
 8810              		.linkonce discard
 8811              		.align 2
 8816              	.globl __ZNSt24__copy_backward_dispatchIPN10ThreadPool10ThreadDataES2_12__false_typeE4copyES2_S2_S2
 8818              	__ZNSt24__copy_backward_dispatchIPN10ThreadPool10ThreadDataES2_12__false_typeE4copyES2_S2_S2_:
 8820              	LM348:
 8821 0000 55       		pushl	%ebp
 8822 0001 89E5     		movl	%esp, %ebp
 8823 0003 83EC18   		subl	$24, %esp
 8825              	LM349:
GAS LISTING h:/6261A/11CW1352MP_BIRD61A_11C_V33_GPRS_MMI/plutommi/Customer/ResGenerator/gcctmp/ccEHcaaa.s 			page 158


 8826 0006 8D4508   		leal	8(%ebp), %eax
 8827              	LBB98:
 8828 0009 890424   		movl	%eax, (%esp)
 8829 000c E8000000 		call	__ZSt19__iterator_categoryIPN10ThreadPool10ThreadDataEENSt15iterator_traitsIT_E17iterator_cat
 8829      00
 8830 0011 8845FF   		movb	%al, -1(%ebp)
 8831 0014 C644240C 		movb	$0, 12(%esp)
 8831      00
 8832 0019 8B4510   		movl	16(%ebp), %eax
 8833 001c 89442408 		movl	%eax, 8(%esp)
 8834 0020 8B450C   		movl	12(%ebp), %eax
 8835 0023 89442404 		movl	%eax, 4(%esp)
 8836 0027 8B4508   		movl	8(%ebp), %eax
 8837 002a 890424   		movl	%eax, (%esp)
 8838 002d E8000000 		call	__ZSt15__copy_backwardIPN10ThreadPool10ThreadDataES2_ET0_T_S4_S3_St26random_access_iterator_t
 8838      00
 8839 0032 C9       		leave
 8840 0033 C3       		ret
 8841              	LBE98:
 8842              	Lscope79:
 8844              		.section	.text$_ZSt19__iterator_categoryIPN10ThreadPool10ThreadDataEENSt15iterator_traitsIT_E17ite
 8845              		.linkonce discard
 8846              		.align 2
 8848              	.globl __ZSt19__iterator_categoryIPN10ThreadPool10ThreadDataEENSt15iterator_traitsIT_E17iterator_ca
 8850              	__ZSt19__iterator_categoryIPN10ThreadPool10ThreadDataEENSt15iterator_traitsIT_E17iterator_categoryE
 8852              	Ltext38:
   1:h:/6261A/11CW1352MP_BIRD61A_11C_V33_GPRS_MMI/Tools/MinGW/include/c++/3.3.1/bits/stl_iterator_base_types.h **** // Types used in iterator implementation -*- C++ -*-
   2:h:/6261A/11CW1352MP_BIRD61A_11C_V33_GPRS_MMI/Tools/MinGW/include/c++/3.3.1/bits/stl_iterator_base_types.h **** 
   3:h:/6261A/11CW1352MP_BIRD61A_11C_V33_GPRS_MMI/Tools/MinGW/include/c++/3.3.1/bits/stl_iterator_base_types.h **** // Copyright (C) 2001, 2002 Free Software Foundation, Inc.
   4:h:/6261A/11CW1352MP_BIRD61A_11C_V33_GPRS_MMI/Tools/MinGW/include/c++/3.3.1/bits/stl_iterator_base_types.h **** //
   5:h:/6261A/11CW1352MP_BIRD61A_11C_V33_GPRS_MMI/Tools/MinGW/include/c++/3.3.1/bits/stl_iterator_base_types.h **** // This file is part of the GNU ISO C++ Library.  This library is free
   6:h:/6261A/11CW1352MP_BIRD61A_11C_V33_GPRS_MMI/Tools/MinGW/include/c++/3.3.1/bits/stl_iterator_base_types.h **** // software; you can redistribute it and/or modify it under the
   7:h:/6261A/11CW1352MP_BIRD61A_11C_V33_GPRS_MMI/Tools/MinGW/include/c++/3.3.1/bits/stl_iterator_base_types.h **** // terms of the GNU General Public License as published by the
   8:h:/6261A/11CW1352MP_BIRD61A_11C_V33_GPRS_MMI/Tools/MinGW/include/c++/3.3.1/bits/stl_iterator_base_types.h **** // Free Software Foundation; either version 2, or (at your option)
   9:h:/6261A/11CW1352MP_BIRD61A_11C_V33_GPRS_MMI/Tools/MinGW/include/c++/3.3.1/bits/stl_iterator_base_types.h **** // any later version.
  10:h:/6261A/11CW1352MP_BIRD61A_11C_V33_GPRS_MMI/Tools/MinGW/include/c++/3.3.1/bits/stl_iterator_base_types.h **** 
  11:h:/6261A/11CW1352MP_BIRD61A_11C_V33_GPRS_MMI/Tools/MinGW/include/c++/3.3.1/bits/stl_iterator_base_types.h **** // This library is distributed in the hope that it will be useful,
  12:h:/6261A/11CW1352MP_BIRD61A_11C_V33_GPRS_MMI/Tools/MinGW/include/c++/3.3.1/bits/stl_iterator_base_types.h **** // but WITHOUT ANY WARRANTY; without even the implied warranty of
  13:h:/6261A/11CW1352MP_BIRD61A_11C_V33_GPRS_MMI/Tools/MinGW/include/c++/3.3.1/bits/stl_iterator_base_types.h **** // MERCHANTABILITY or FITNESS FOR A PARTICULAR PURPOSE.  See the
  14:h:/6261A/11CW1352MP_BIRD61A_11C_V33_GPRS_MMI/Tools/MinGW/include/c++/3.3.1/bits/stl_iterator_base_types.h **** // GNU General Public License for more details.
  15:h:/6261A/11CW1352MP_BIRD61A_11C_V33_GPRS_MMI/Tools/MinGW/include/c++/3.3.1/bits/stl_iterator_base_types.h **** 
  16:h:/6261A/11CW1352MP_BIRD61A_11C_V33_GPRS_MMI/Tools/MinGW/include/c++/3.3.1/bits/stl_iterator_base_types.h **** // You should have received a copy of the GNU General Public License along
  17:h:/6261A/11CW1352MP_BIRD61A_11C_V33_GPRS_MMI/Tools/MinGW/include/c++/3.3.1/bits/stl_iterator_base_types.h **** // with this library; see the file COPYING.  If not, write to the Free
  18:h:/6261A/11CW1352MP_BIRD61A_11C_V33_GPRS_MMI/Tools/MinGW/include/c++/3.3.1/bits/stl_iterator_base_types.h **** // Software Foundation, 59 Temple Place - Suite 330, Boston, MA 02111-1307,
  19:h:/6261A/11CW1352MP_BIRD61A_11C_V33_GPRS_MMI/Tools/MinGW/include/c++/3.3.1/bits/stl_iterator_base_types.h **** // USA.
  20:h:/6261A/11CW1352MP_BIRD61A_11C_V33_GPRS_MMI/Tools/MinGW/include/c++/3.3.1/bits/stl_iterator_base_types.h **** 
  21:h:/6261A/11CW1352MP_BIRD61A_11C_V33_GPRS_MMI/Tools/MinGW/include/c++/3.3.1/bits/stl_iterator_base_types.h **** // As a special exception, you may use this file as part of a free software
  22:h:/6261A/11CW1352MP_BIRD61A_11C_V33_GPRS_MMI/Tools/MinGW/include/c++/3.3.1/bits/stl_iterator_base_types.h **** // library without restriction.  Specifically, if other files instantiate
  23:h:/6261A/11CW1352MP_BIRD61A_11C_V33_GPRS_MMI/Tools/MinGW/include/c++/3.3.1/bits/stl_iterator_base_types.h **** // templates or use macros or inline functions from this file, or you compile
  24:h:/6261A/11CW1352MP_BIRD61A_11C_V33_GPRS_MMI/Tools/MinGW/include/c++/3.3.1/bits/stl_iterator_base_types.h **** // this file and link it with other files to produce an executable, this
  25:h:/6261A/11CW1352MP_BIRD61A_11C_V33_GPRS_MMI/Tools/MinGW/include/c++/3.3.1/bits/stl_iterator_base_types.h **** // file does not by itself cause the resulting executable to be covered by
  26:h:/6261A/11CW1352MP_BIRD61A_11C_V33_GPRS_MMI/Tools/MinGW/include/c++/3.3.1/bits/stl_iterator_base_types.h **** // the GNU General Public License.  This exception does not however
  27:h:/6261A/11CW1352MP_BIRD61A_11C_V33_GPRS_MMI/Tools/MinGW/include/c++/3.3.1/bits/stl_iterator_base_types.h **** // invalidate any other reasons why the executable file might be covered by
  28:h:/6261A/11CW1352MP_BIRD61A_11C_V33_GPRS_MMI/Tools/MinGW/include/c++/3.3.1/bits/stl_iterator_base_types.h **** // the GNU General Public License.
  29:h:/6261A/11CW1352MP_BIRD61A_11C_V33_GPRS_MMI/Tools/MinGW/include/c++/3.3.1/bits/stl_iterator_base_types.h **** 
  30:h:/6261A/11CW1352MP_BIRD61A_11C_V33_GPRS_MMI/Tools/MinGW/include/c++/3.3.1/bits/stl_iterator_base_types.h **** /*
  31:h:/6261A/11CW1352MP_BIRD61A_11C_V33_GPRS_MMI/Tools/MinGW/include/c++/3.3.1/bits/stl_iterator_base_types.h ****  *
GAS LISTING h:/6261A/11CW1352MP_BIRD61A_11C_V33_GPRS_MMI/plutommi/Customer/ResGenerator/gcctmp/ccEHcaaa.s 			page 159


  32:h:/6261A/11CW1352MP_BIRD61A_11C_V33_GPRS_MMI/Tools/MinGW/include/c++/3.3.1/bits/stl_iterator_base_types.h ****  * Copyright (c) 1994
  33:h:/6261A/11CW1352MP_BIRD61A_11C_V33_GPRS_MMI/Tools/MinGW/include/c++/3.3.1/bits/stl_iterator_base_types.h ****  * Hewlett-Packard Company
  34:h:/6261A/11CW1352MP_BIRD61A_11C_V33_GPRS_MMI/Tools/MinGW/include/c++/3.3.1/bits/stl_iterator_base_types.h ****  *
  35:h:/6261A/11CW1352MP_BIRD61A_11C_V33_GPRS_MMI/Tools/MinGW/include/c++/3.3.1/bits/stl_iterator_base_types.h ****  * Permission to use, copy, modify, distribute and sell this software
  36:h:/6261A/11CW1352MP_BIRD61A_11C_V33_GPRS_MMI/Tools/MinGW/include/c++/3.3.1/bits/stl_iterator_base_types.h ****  * and its documentation for any purpose is hereby granted without fee,
  37:h:/6261A/11CW1352MP_BIRD61A_11C_V33_GPRS_MMI/Tools/MinGW/include/c++/3.3.1/bits/stl_iterator_base_types.h ****  * provided that the above copyright notice appear in all copies and
  38:h:/6261A/11CW1352MP_BIRD61A_11C_V33_GPRS_MMI/Tools/MinGW/include/c++/3.3.1/bits/stl_iterator_base_types.h ****  * that both that copyright notice and this permission notice appear
  39:h:/6261A/11CW1352MP_BIRD61A_11C_V33_GPRS_MMI/Tools/MinGW/include/c++/3.3.1/bits/stl_iterator_base_types.h ****  * in supporting documentation.  Hewlett-Packard Company makes no
  40:h:/6261A/11CW1352MP_BIRD61A_11C_V33_GPRS_MMI/Tools/MinGW/include/c++/3.3.1/bits/stl_iterator_base_types.h ****  * representations about the suitability of this software for any
  41:h:/6261A/11CW1352MP_BIRD61A_11C_V33_GPRS_MMI/Tools/MinGW/include/c++/3.3.1/bits/stl_iterator_base_types.h ****  * purpose.  It is provided "as is" without express or implied warranty.
  42:h:/6261A/11CW1352MP_BIRD61A_11C_V33_GPRS_MMI/Tools/MinGW/include/c++/3.3.1/bits/stl_iterator_base_types.h ****  *
  43:h:/6261A/11CW1352MP_BIRD61A_11C_V33_GPRS_MMI/Tools/MinGW/include/c++/3.3.1/bits/stl_iterator_base_types.h ****  *
  44:h:/6261A/11CW1352MP_BIRD61A_11C_V33_GPRS_MMI/Tools/MinGW/include/c++/3.3.1/bits/stl_iterator_base_types.h ****  * Copyright (c) 1996-1998
  45:h:/6261A/11CW1352MP_BIRD61A_11C_V33_GPRS_MMI/Tools/MinGW/include/c++/3.3.1/bits/stl_iterator_base_types.h ****  * Silicon Graphics Computer Systems, Inc.
  46:h:/6261A/11CW1352MP_BIRD61A_11C_V33_GPRS_MMI/Tools/MinGW/include/c++/3.3.1/bits/stl_iterator_base_types.h ****  *
  47:h:/6261A/11CW1352MP_BIRD61A_11C_V33_GPRS_MMI/Tools/MinGW/include/c++/3.3.1/bits/stl_iterator_base_types.h ****  * Permission to use, copy, modify, distribute and sell this software
  48:h:/6261A/11CW1352MP_BIRD61A_11C_V33_GPRS_MMI/Tools/MinGW/include/c++/3.3.1/bits/stl_iterator_base_types.h ****  * and its documentation for any purpose is hereby granted without fee,
  49:h:/6261A/11CW1352MP_BIRD61A_11C_V33_GPRS_MMI/Tools/MinGW/include/c++/3.3.1/bits/stl_iterator_base_types.h ****  * provided that the above copyright notice appear in all copies and
  50:h:/6261A/11CW1352MP_BIRD61A_11C_V33_GPRS_MMI/Tools/MinGW/include/c++/3.3.1/bits/stl_iterator_base_types.h ****  * that both that copyright notice and this permission notice appear
  51:h:/6261A/11CW1352MP_BIRD61A_11C_V33_GPRS_MMI/Tools/MinGW/include/c++/3.3.1/bits/stl_iterator_base_types.h ****  * in supporting documentation.  Silicon Graphics makes no
  52:h:/6261A/11CW1352MP_BIRD61A_11C_V33_GPRS_MMI/Tools/MinGW/include/c++/3.3.1/bits/stl_iterator_base_types.h ****  * representations about the suitability of this software for any
  53:h:/6261A/11CW1352MP_BIRD61A_11C_V33_GPRS_MMI/Tools/MinGW/include/c++/3.3.1/bits/stl_iterator_base_types.h ****  * purpose.  It is provided "as is" without express or implied warranty.
  54:h:/6261A/11CW1352MP_BIRD61A_11C_V33_GPRS_MMI/Tools/MinGW/include/c++/3.3.1/bits/stl_iterator_base_types.h ****  */
  55:h:/6261A/11CW1352MP_BIRD61A_11C_V33_GPRS_MMI/Tools/MinGW/include/c++/3.3.1/bits/stl_iterator_base_types.h **** 
  56:h:/6261A/11CW1352MP_BIRD61A_11C_V33_GPRS_MMI/Tools/MinGW/include/c++/3.3.1/bits/stl_iterator_base_types.h **** /** @file stl_iterator_base_types.h
  57:h:/6261A/11CW1352MP_BIRD61A_11C_V33_GPRS_MMI/Tools/MinGW/include/c++/3.3.1/bits/stl_iterator_base_types.h ****  *  This is an internal header file, included by other library headers.
  58:h:/6261A/11CW1352MP_BIRD61A_11C_V33_GPRS_MMI/Tools/MinGW/include/c++/3.3.1/bits/stl_iterator_base_types.h ****  *  You should not attempt to use it directly.
  59:h:/6261A/11CW1352MP_BIRD61A_11C_V33_GPRS_MMI/Tools/MinGW/include/c++/3.3.1/bits/stl_iterator_base_types.h ****  *
  60:h:/6261A/11CW1352MP_BIRD61A_11C_V33_GPRS_MMI/Tools/MinGW/include/c++/3.3.1/bits/stl_iterator_base_types.h ****  *  This file contains all of the general iterator-related utility types,
  61:h:/6261A/11CW1352MP_BIRD61A_11C_V33_GPRS_MMI/Tools/MinGW/include/c++/3.3.1/bits/stl_iterator_base_types.h ****  *  such as iterator_traits and struct iterator.
  62:h:/6261A/11CW1352MP_BIRD61A_11C_V33_GPRS_MMI/Tools/MinGW/include/c++/3.3.1/bits/stl_iterator_base_types.h ****  */
  63:h:/6261A/11CW1352MP_BIRD61A_11C_V33_GPRS_MMI/Tools/MinGW/include/c++/3.3.1/bits/stl_iterator_base_types.h **** 
  64:h:/6261A/11CW1352MP_BIRD61A_11C_V33_GPRS_MMI/Tools/MinGW/include/c++/3.3.1/bits/stl_iterator_base_types.h **** #ifndef __GLIBCPP_INTERNAL_ITERATOR_BASE_TYPES_H
  65:h:/6261A/11CW1352MP_BIRD61A_11C_V33_GPRS_MMI/Tools/MinGW/include/c++/3.3.1/bits/stl_iterator_base_types.h **** #define __GLIBCPP_INTERNAL_ITERATOR_BASE_TYPES_H
  66:h:/6261A/11CW1352MP_BIRD61A_11C_V33_GPRS_MMI/Tools/MinGW/include/c++/3.3.1/bits/stl_iterator_base_types.h **** 
  67:h:/6261A/11CW1352MP_BIRD61A_11C_V33_GPRS_MMI/Tools/MinGW/include/c++/3.3.1/bits/stl_iterator_base_types.h **** #pragma GCC system_header
  68:h:/6261A/11CW1352MP_BIRD61A_11C_V33_GPRS_MMI/Tools/MinGW/include/c++/3.3.1/bits/stl_iterator_base_types.h **** 
  69:h:/6261A/11CW1352MP_BIRD61A_11C_V33_GPRS_MMI/Tools/MinGW/include/c++/3.3.1/bits/stl_iterator_base_types.h **** namespace std
  70:h:/6261A/11CW1352MP_BIRD61A_11C_V33_GPRS_MMI/Tools/MinGW/include/c++/3.3.1/bits/stl_iterator_base_types.h **** {
  71:h:/6261A/11CW1352MP_BIRD61A_11C_V33_GPRS_MMI/Tools/MinGW/include/c++/3.3.1/bits/stl_iterator_base_types.h ****   //@{
  72:h:/6261A/11CW1352MP_BIRD61A_11C_V33_GPRS_MMI/Tools/MinGW/include/c++/3.3.1/bits/stl_iterator_base_types.h ****   /**
  73:h:/6261A/11CW1352MP_BIRD61A_11C_V33_GPRS_MMI/Tools/MinGW/include/c++/3.3.1/bits/stl_iterator_base_types.h ****    *  @defgroup iterator_tags Iterator Tags
  74:h:/6261A/11CW1352MP_BIRD61A_11C_V33_GPRS_MMI/Tools/MinGW/include/c++/3.3.1/bits/stl_iterator_base_types.h ****    *  These are empty types, used to distinguish different iterators.  The
  75:h:/6261A/11CW1352MP_BIRD61A_11C_V33_GPRS_MMI/Tools/MinGW/include/c++/3.3.1/bits/stl_iterator_base_types.h ****    *  distinction is not made by what they contain, but simply by what they
  76:h:/6261A/11CW1352MP_BIRD61A_11C_V33_GPRS_MMI/Tools/MinGW/include/c++/3.3.1/bits/stl_iterator_base_types.h ****    *  are.  Different underlying algorithms can then be used based on the
  77:h:/6261A/11CW1352MP_BIRD61A_11C_V33_GPRS_MMI/Tools/MinGW/include/c++/3.3.1/bits/stl_iterator_base_types.h ****    *  different operations supporetd by different iterator types.
  78:h:/6261A/11CW1352MP_BIRD61A_11C_V33_GPRS_MMI/Tools/MinGW/include/c++/3.3.1/bits/stl_iterator_base_types.h ****   */
  79:h:/6261A/11CW1352MP_BIRD61A_11C_V33_GPRS_MMI/Tools/MinGW/include/c++/3.3.1/bits/stl_iterator_base_types.h ****   ///  Marking input iterators.
  80:h:/6261A/11CW1352MP_BIRD61A_11C_V33_GPRS_MMI/Tools/MinGW/include/c++/3.3.1/bits/stl_iterator_base_types.h ****   struct input_iterator_tag {};
  81:h:/6261A/11CW1352MP_BIRD61A_11C_V33_GPRS_MMI/Tools/MinGW/include/c++/3.3.1/bits/stl_iterator_base_types.h ****   ///  Marking output iterators.
  82:h:/6261A/11CW1352MP_BIRD61A_11C_V33_GPRS_MMI/Tools/MinGW/include/c++/3.3.1/bits/stl_iterator_base_types.h ****   struct output_iterator_tag {};
  83:h:/6261A/11CW1352MP_BIRD61A_11C_V33_GPRS_MMI/Tools/MinGW/include/c++/3.3.1/bits/stl_iterator_base_types.h ****   /// Forward iterators support a superset of input iterator operations.
  84:h:/6261A/11CW1352MP_BIRD61A_11C_V33_GPRS_MMI/Tools/MinGW/include/c++/3.3.1/bits/stl_iterator_base_types.h ****   struct forward_iterator_tag : public input_iterator_tag {};
  85:h:/6261A/11CW1352MP_BIRD61A_11C_V33_GPRS_MMI/Tools/MinGW/include/c++/3.3.1/bits/stl_iterator_base_types.h ****   /// Bidirectional iterators support a superset of forward iterator operations.
  86:h:/6261A/11CW1352MP_BIRD61A_11C_V33_GPRS_MMI/Tools/MinGW/include/c++/3.3.1/bits/stl_iterator_base_types.h ****   struct bidirectional_iterator_tag : public forward_iterator_tag {};
  87:h:/6261A/11CW1352MP_BIRD61A_11C_V33_GPRS_MMI/Tools/MinGW/include/c++/3.3.1/bits/stl_iterator_base_types.h ****   /// Random-access iterators support a superset of bidirectional iterator operations.
  88:h:/6261A/11CW1352MP_BIRD61A_11C_V33_GPRS_MMI/Tools/MinGW/include/c++/3.3.1/bits/stl_iterator_base_types.h ****   struct random_access_iterator_tag : public bidirectional_iterator_tag {};
GAS LISTING h:/6261A/11CW1352MP_BIRD61A_11C_V33_GPRS_MMI/plutommi/Customer/ResGenerator/gcctmp/ccEHcaaa.s 			page 160


  89:h:/6261A/11CW1352MP_BIRD61A_11C_V33_GPRS_MMI/Tools/MinGW/include/c++/3.3.1/bits/stl_iterator_base_types.h ****   //@}
  90:h:/6261A/11CW1352MP_BIRD61A_11C_V33_GPRS_MMI/Tools/MinGW/include/c++/3.3.1/bits/stl_iterator_base_types.h **** 
  91:h:/6261A/11CW1352MP_BIRD61A_11C_V33_GPRS_MMI/Tools/MinGW/include/c++/3.3.1/bits/stl_iterator_base_types.h **** 
  92:h:/6261A/11CW1352MP_BIRD61A_11C_V33_GPRS_MMI/Tools/MinGW/include/c++/3.3.1/bits/stl_iterator_base_types.h ****   /**
  93:h:/6261A/11CW1352MP_BIRD61A_11C_V33_GPRS_MMI/Tools/MinGW/include/c++/3.3.1/bits/stl_iterator_base_types.h ****    *  @brief  Common %iterator class.
  94:h:/6261A/11CW1352MP_BIRD61A_11C_V33_GPRS_MMI/Tools/MinGW/include/c++/3.3.1/bits/stl_iterator_base_types.h ****    *
  95:h:/6261A/11CW1352MP_BIRD61A_11C_V33_GPRS_MMI/Tools/MinGW/include/c++/3.3.1/bits/stl_iterator_base_types.h ****    *  This class does nothing but define nested typedefs.  %Iterator classes
  96:h:/6261A/11CW1352MP_BIRD61A_11C_V33_GPRS_MMI/Tools/MinGW/include/c++/3.3.1/bits/stl_iterator_base_types.h ****    *  can inherit from this class to save some work.  The typedefs are then
  97:h:/6261A/11CW1352MP_BIRD61A_11C_V33_GPRS_MMI/Tools/MinGW/include/c++/3.3.1/bits/stl_iterator_base_types.h ****    *  used in specializations and overloading.
  98:h:/6261A/11CW1352MP_BIRD61A_11C_V33_GPRS_MMI/Tools/MinGW/include/c++/3.3.1/bits/stl_iterator_base_types.h ****    *
  99:h:/6261A/11CW1352MP_BIRD61A_11C_V33_GPRS_MMI/Tools/MinGW/include/c++/3.3.1/bits/stl_iterator_base_types.h ****    *  In particular, there are no default implementations of requirements
 100:h:/6261A/11CW1352MP_BIRD61A_11C_V33_GPRS_MMI/Tools/MinGW/include/c++/3.3.1/bits/stl_iterator_base_types.h ****    *  such as @c operator++ and the like.  (How could there be?)
 101:h:/6261A/11CW1352MP_BIRD61A_11C_V33_GPRS_MMI/Tools/MinGW/include/c++/3.3.1/bits/stl_iterator_base_types.h ****   */
 102:h:/6261A/11CW1352MP_BIRD61A_11C_V33_GPRS_MMI/Tools/MinGW/include/c++/3.3.1/bits/stl_iterator_base_types.h ****   template<typename _Category, typename _Tp, typename _Distance = ptrdiff_t,
 103:h:/6261A/11CW1352MP_BIRD61A_11C_V33_GPRS_MMI/Tools/MinGW/include/c++/3.3.1/bits/stl_iterator_base_types.h ****            typename _Pointer = _Tp*, typename _Reference = _Tp&>
 104:h:/6261A/11CW1352MP_BIRD61A_11C_V33_GPRS_MMI/Tools/MinGW/include/c++/3.3.1/bits/stl_iterator_base_types.h ****     struct iterator
 105:h:/6261A/11CW1352MP_BIRD61A_11C_V33_GPRS_MMI/Tools/MinGW/include/c++/3.3.1/bits/stl_iterator_base_types.h ****     {
 106:h:/6261A/11CW1352MP_BIRD61A_11C_V33_GPRS_MMI/Tools/MinGW/include/c++/3.3.1/bits/stl_iterator_base_types.h ****       /// One of the @link iterator_tags tag types@endlink.
 107:h:/6261A/11CW1352MP_BIRD61A_11C_V33_GPRS_MMI/Tools/MinGW/include/c++/3.3.1/bits/stl_iterator_base_types.h ****       typedef _Category  iterator_category;
 108:h:/6261A/11CW1352MP_BIRD61A_11C_V33_GPRS_MMI/Tools/MinGW/include/c++/3.3.1/bits/stl_iterator_base_types.h ****       /// The type "pointed to" by the iterator.
 109:h:/6261A/11CW1352MP_BIRD61A_11C_V33_GPRS_MMI/Tools/MinGW/include/c++/3.3.1/bits/stl_iterator_base_types.h ****       typedef _Tp        value_type;
 110:h:/6261A/11CW1352MP_BIRD61A_11C_V33_GPRS_MMI/Tools/MinGW/include/c++/3.3.1/bits/stl_iterator_base_types.h ****       /// Distance between iterators is represented as this type.
 111:h:/6261A/11CW1352MP_BIRD61A_11C_V33_GPRS_MMI/Tools/MinGW/include/c++/3.3.1/bits/stl_iterator_base_types.h ****       typedef _Distance  difference_type;
 112:h:/6261A/11CW1352MP_BIRD61A_11C_V33_GPRS_MMI/Tools/MinGW/include/c++/3.3.1/bits/stl_iterator_base_types.h ****       /// This type represents a pointer-to-value_type.
 113:h:/6261A/11CW1352MP_BIRD61A_11C_V33_GPRS_MMI/Tools/MinGW/include/c++/3.3.1/bits/stl_iterator_base_types.h ****       typedef _Pointer   pointer;
 114:h:/6261A/11CW1352MP_BIRD61A_11C_V33_GPRS_MMI/Tools/MinGW/include/c++/3.3.1/bits/stl_iterator_base_types.h ****       /// This type represents a reference-to-value_type.
 115:h:/6261A/11CW1352MP_BIRD61A_11C_V33_GPRS_MMI/Tools/MinGW/include/c++/3.3.1/bits/stl_iterator_base_types.h ****       typedef _Reference reference;
 116:h:/6261A/11CW1352MP_BIRD61A_11C_V33_GPRS_MMI/Tools/MinGW/include/c++/3.3.1/bits/stl_iterator_base_types.h ****     };
 117:h:/6261A/11CW1352MP_BIRD61A_11C_V33_GPRS_MMI/Tools/MinGW/include/c++/3.3.1/bits/stl_iterator_base_types.h **** 
 118:h:/6261A/11CW1352MP_BIRD61A_11C_V33_GPRS_MMI/Tools/MinGW/include/c++/3.3.1/bits/stl_iterator_base_types.h ****   /**
 119:h:/6261A/11CW1352MP_BIRD61A_11C_V33_GPRS_MMI/Tools/MinGW/include/c++/3.3.1/bits/stl_iterator_base_types.h ****    *  This class does nothing but define nested typedefs.  The general
 120:h:/6261A/11CW1352MP_BIRD61A_11C_V33_GPRS_MMI/Tools/MinGW/include/c++/3.3.1/bits/stl_iterator_base_types.h ****    *  version simply "forwards" the nested typedefs from the Iterator
 121:h:/6261A/11CW1352MP_BIRD61A_11C_V33_GPRS_MMI/Tools/MinGW/include/c++/3.3.1/bits/stl_iterator_base_types.h ****    *  argument.  Specialized versions for pointers and pointers-to-const
 122:h:/6261A/11CW1352MP_BIRD61A_11C_V33_GPRS_MMI/Tools/MinGW/include/c++/3.3.1/bits/stl_iterator_base_types.h ****    *  provide tighter, more correct semantics.
 123:h:/6261A/11CW1352MP_BIRD61A_11C_V33_GPRS_MMI/Tools/MinGW/include/c++/3.3.1/bits/stl_iterator_base_types.h ****   */
 124:h:/6261A/11CW1352MP_BIRD61A_11C_V33_GPRS_MMI/Tools/MinGW/include/c++/3.3.1/bits/stl_iterator_base_types.h ****   template<typename _Iterator>
 125:h:/6261A/11CW1352MP_BIRD61A_11C_V33_GPRS_MMI/Tools/MinGW/include/c++/3.3.1/bits/stl_iterator_base_types.h ****     struct iterator_traits {
 126:h:/6261A/11CW1352MP_BIRD61A_11C_V33_GPRS_MMI/Tools/MinGW/include/c++/3.3.1/bits/stl_iterator_base_types.h ****       typedef typename _Iterator::iterator_category iterator_category;
 127:h:/6261A/11CW1352MP_BIRD61A_11C_V33_GPRS_MMI/Tools/MinGW/include/c++/3.3.1/bits/stl_iterator_base_types.h ****       typedef typename _Iterator::value_type        value_type;
 128:h:/6261A/11CW1352MP_BIRD61A_11C_V33_GPRS_MMI/Tools/MinGW/include/c++/3.3.1/bits/stl_iterator_base_types.h ****       typedef typename _Iterator::difference_type   difference_type;
 129:h:/6261A/11CW1352MP_BIRD61A_11C_V33_GPRS_MMI/Tools/MinGW/include/c++/3.3.1/bits/stl_iterator_base_types.h ****       typedef typename _Iterator::pointer           pointer;
 130:h:/6261A/11CW1352MP_BIRD61A_11C_V33_GPRS_MMI/Tools/MinGW/include/c++/3.3.1/bits/stl_iterator_base_types.h ****       typedef typename _Iterator::reference         reference;
 131:h:/6261A/11CW1352MP_BIRD61A_11C_V33_GPRS_MMI/Tools/MinGW/include/c++/3.3.1/bits/stl_iterator_base_types.h ****     };
 132:h:/6261A/11CW1352MP_BIRD61A_11C_V33_GPRS_MMI/Tools/MinGW/include/c++/3.3.1/bits/stl_iterator_base_types.h **** 
 133:h:/6261A/11CW1352MP_BIRD61A_11C_V33_GPRS_MMI/Tools/MinGW/include/c++/3.3.1/bits/stl_iterator_base_types.h ****   template<typename _Tp>
 134:h:/6261A/11CW1352MP_BIRD61A_11C_V33_GPRS_MMI/Tools/MinGW/include/c++/3.3.1/bits/stl_iterator_base_types.h ****     struct iterator_traits<_Tp*> {
 135:h:/6261A/11CW1352MP_BIRD61A_11C_V33_GPRS_MMI/Tools/MinGW/include/c++/3.3.1/bits/stl_iterator_base_types.h ****       typedef random_access_iterator_tag iterator_category;
 136:h:/6261A/11CW1352MP_BIRD61A_11C_V33_GPRS_MMI/Tools/MinGW/include/c++/3.3.1/bits/stl_iterator_base_types.h ****       typedef _Tp                         value_type;
 137:h:/6261A/11CW1352MP_BIRD61A_11C_V33_GPRS_MMI/Tools/MinGW/include/c++/3.3.1/bits/stl_iterator_base_types.h ****       typedef ptrdiff_t                   difference_type;
 138:h:/6261A/11CW1352MP_BIRD61A_11C_V33_GPRS_MMI/Tools/MinGW/include/c++/3.3.1/bits/stl_iterator_base_types.h ****       typedef _Tp*                        pointer;
 139:h:/6261A/11CW1352MP_BIRD61A_11C_V33_GPRS_MMI/Tools/MinGW/include/c++/3.3.1/bits/stl_iterator_base_types.h ****       typedef _Tp&                        reference;
 140:h:/6261A/11CW1352MP_BIRD61A_11C_V33_GPRS_MMI/Tools/MinGW/include/c++/3.3.1/bits/stl_iterator_base_types.h ****     };
 141:h:/6261A/11CW1352MP_BIRD61A_11C_V33_GPRS_MMI/Tools/MinGW/include/c++/3.3.1/bits/stl_iterator_base_types.h **** 
 142:h:/6261A/11CW1352MP_BIRD61A_11C_V33_GPRS_MMI/Tools/MinGW/include/c++/3.3.1/bits/stl_iterator_base_types.h ****   template<typename _Tp>
 143:h:/6261A/11CW1352MP_BIRD61A_11C_V33_GPRS_MMI/Tools/MinGW/include/c++/3.3.1/bits/stl_iterator_base_types.h ****     struct iterator_traits<const _Tp*> {
 144:h:/6261A/11CW1352MP_BIRD61A_11C_V33_GPRS_MMI/Tools/MinGW/include/c++/3.3.1/bits/stl_iterator_base_types.h ****       typedef random_access_iterator_tag iterator_category;
 145:h:/6261A/11CW1352MP_BIRD61A_11C_V33_GPRS_MMI/Tools/MinGW/include/c++/3.3.1/bits/stl_iterator_base_types.h ****       typedef _Tp                         value_type;
GAS LISTING h:/6261A/11CW1352MP_BIRD61A_11C_V33_GPRS_MMI/plutommi/Customer/ResGenerator/gcctmp/ccEHcaaa.s 			page 161


 146:h:/6261A/11CW1352MP_BIRD61A_11C_V33_GPRS_MMI/Tools/MinGW/include/c++/3.3.1/bits/stl_iterator_base_types.h ****       typedef ptrdiff_t                   difference_type;
 147:h:/6261A/11CW1352MP_BIRD61A_11C_V33_GPRS_MMI/Tools/MinGW/include/c++/3.3.1/bits/stl_iterator_base_types.h ****       typedef const _Tp*                  pointer;
 148:h:/6261A/11CW1352MP_BIRD61A_11C_V33_GPRS_MMI/Tools/MinGW/include/c++/3.3.1/bits/stl_iterator_base_types.h ****       typedef const _Tp&                  reference;
 149:h:/6261A/11CW1352MP_BIRD61A_11C_V33_GPRS_MMI/Tools/MinGW/include/c++/3.3.1/bits/stl_iterator_base_types.h ****     };
 150:h:/6261A/11CW1352MP_BIRD61A_11C_V33_GPRS_MMI/Tools/MinGW/include/c++/3.3.1/bits/stl_iterator_base_types.h **** 
 151:h:/6261A/11CW1352MP_BIRD61A_11C_V33_GPRS_MMI/Tools/MinGW/include/c++/3.3.1/bits/stl_iterator_base_types.h ****   /**
 152:h:/6261A/11CW1352MP_BIRD61A_11C_V33_GPRS_MMI/Tools/MinGW/include/c++/3.3.1/bits/stl_iterator_base_types.h ****    *  @if maint
 153:h:/6261A/11CW1352MP_BIRD61A_11C_V33_GPRS_MMI/Tools/MinGW/include/c++/3.3.1/bits/stl_iterator_base_types.h ****    *  This function is not a part of the C++ standard but is syntactic
 154:h:/6261A/11CW1352MP_BIRD61A_11C_V33_GPRS_MMI/Tools/MinGW/include/c++/3.3.1/bits/stl_iterator_base_types.h ****    *  sugar for internal library use only.
 155:h:/6261A/11CW1352MP_BIRD61A_11C_V33_GPRS_MMI/Tools/MinGW/include/c++/3.3.1/bits/stl_iterator_base_types.h ****    *  @endif
 156:h:/6261A/11CW1352MP_BIRD61A_11C_V33_GPRS_MMI/Tools/MinGW/include/c++/3.3.1/bits/stl_iterator_base_types.h ****   */
 157:h:/6261A/11CW1352MP_BIRD61A_11C_V33_GPRS_MMI/Tools/MinGW/include/c++/3.3.1/bits/stl_iterator_base_types.h ****   template<typename _Iter>
 158:h:/6261A/11CW1352MP_BIRD61A_11C_V33_GPRS_MMI/Tools/MinGW/include/c++/3.3.1/bits/stl_iterator_base_types.h ****     inline typename iterator_traits<_Iter>::iterator_category
 159:h:/6261A/11CW1352MP_BIRD61A_11C_V33_GPRS_MMI/Tools/MinGW/include/c++/3.3.1/bits/stl_iterator_base_types.h ****     __iterator_category(const _Iter&)
 160:h:/6261A/11CW1352MP_BIRD61A_11C_V33_GPRS_MMI/Tools/MinGW/include/c++/3.3.1/bits/stl_iterator_base_types.h ****     { return typename iterator_traits<_Iter>::iterator_category(); }
 8854              	LM350:
 8855 0000 55       		pushl	%ebp
 8856 0001 89E5     		movl	%esp, %ebp
 8857 0003 83EC04   		subl	$4, %esp
 8859              	LM351:
 8860              	LBB99:
 8861 0006 0FB645FF 		movzbl	-1(%ebp), %eax
 8862 000a C9       		leave
 8863 000b C3       		ret
 8864              	LBE99:
 8865              	Lscope80:
 8867              		.section	.text$_ZSt15__copy_backwardIPN10ThreadPool10ThreadDataES2_ET0_T_S4_S3_St26random_access_i
 8868              		.linkonce discard
 8869              		.align 2
 8874              	.globl __ZSt15__copy_backwardIPN10ThreadPool10ThreadDataES2_ET0_T_S4_S3_St26random_access_iterator_
 8876              	__ZSt15__copy_backwardIPN10ThreadPool10ThreadDataES2_ET0_T_S4_S3_St26random_access_iterator_tag:
 8878              	Ltext39:
 8880              	LM352:
 8881 0000 55       		pushl	%ebp
 8882 0001 89E5     		movl	%esp, %ebp
 8883 0003 83EC04   		subl	$4, %esp
 8885              	LM353:
 8886              	LBB100:
 8887 0006 8B5508   		movl	8(%ebp), %edx
 8888 0009 8B450C   		movl	12(%ebp), %eax
 8889 000c 29D0     		subl	%edx, %eax
 8890 000e C1F802   		sarl	$2, %eax
 8891 0011 69C0ABAA 		imull	$-1431655765, %eax, %eax
 8891      AAAA
 8892 0017 8945FC   		movl	%eax, -4(%ebp)
 8893              	L291:
 8894 001a 837DFC00 		cmpl	$0, -4(%ebp)
 8895 001e 7F02     		jg	L294
 8896 0020 EB29     		jmp	L292
 8897              	L294:
 8899              	LM354:
 8900 0022 8D4510   		leal	16(%ebp), %eax
 8901 0025 83280C   		subl	$12, (%eax)
 8902 0028 8B4D10   		movl	16(%ebp), %ecx
 8903 002b 8D450C   		leal	12(%ebp), %eax
 8904 002e 83280C   		subl	$12, (%eax)
 8905 0031 8B550C   		movl	12(%ebp), %edx
GAS LISTING h:/6261A/11CW1352MP_BIRD61A_11C_V33_GPRS_MMI/plutommi/Customer/ResGenerator/gcctmp/ccEHcaaa.s 			page 162


 8906 0034 8B02     		movl	(%edx), %eax
 8907 0036 8901     		movl	%eax, (%ecx)
 8908 0038 8B4204   		movl	4(%edx), %eax
 8909 003b 894104   		movl	%eax, 4(%ecx)
 8910 003e 8B4208   		movl	8(%edx), %eax
 8911 0041 894108   		movl	%eax, 8(%ecx)
 8913              	LM355:
 8914 0044 8D45FC   		leal	-4(%ebp), %eax
 8915 0047 FF08     		decl	(%eax)
 8916 0049 EBCF     		jmp	L291
 8917              	L292:
 8919              	LM356:
 8920 004b 8B4510   		movl	16(%ebp), %eax
 8921 004e C9       		leave
 8922 004f C3       		ret
 8923              	LBE100:
 8927              	Lscope81:
 8929              		.section	.text$_ZNK9__gnu_cxx17__normal_iteratorIPN10ThreadPool10ThreadDataESt6vectorIS2_SaIS2_EEE
 8930              		.linkonce discard
 8931              		.align 2
 8934              	.globl __ZNK9__gnu_cxx17__normal_iteratorIPN10ThreadPool10ThreadDataESt6vectorIS2_SaIS2_EEEdeEv
 8936              	__ZNK9__gnu_cxx17__normal_iteratorIPN10ThreadPool10ThreadDataESt6vectorIS2_SaIS2_EEEdeEv:
 8938              	Ltext40:
 8940              	LM357:
 8941 0000 55       		pushl	%ebp
 8942 0001 89E5     		movl	%esp, %ebp
 8944              	LM358:
 8945              	LBB101:
 8946 0003 8B4508   		movl	8(%ebp), %eax
 8947 0006 8B00     		movl	(%eax), %eax
 8948 0008 5D       		popl	%ebp
 8949 0009 C3       		ret
 8950              	LBE101:
 8951              	Lscope82:
 8953 000a 9090     		.section	.text$_ZNSt18_Vector_alloc_baseIN10ThreadPool10ThreadDataESaIS1_ELb1EE11_M_allocateEj,"x"
 8954              		.linkonce discard
 8955              		.align 2
 8959              	.globl __ZNSt18_Vector_alloc_baseIN10ThreadPool10ThreadDataESaIS1_ELb1EE11_M_allocateEj
 8961              	__ZNSt18_Vector_alloc_baseIN10ThreadPool10ThreadDataESaIS1_ELb1EE11_M_allocateEj:
 8963              	Ltext41:
 8965              	LM359:
 8966 0000 55       		pushl	%ebp
 8967 0001 89E5     		movl	%esp, %ebp
 8968 0003 83EC08   		subl	$8, %esp
 8970              	LM360:
 8971              	LBB102:
 8972 0006 8B450C   		movl	12(%ebp), %eax
 8973 0009 890424   		movl	%eax, (%esp)
 8974 000c E8000000 		call	__ZNSt14__simple_allocIN10ThreadPool10ThreadDataESt24__default_alloc_templateILb1ELi0EEE8allo
 8974      00
 8975 0011 C9       		leave
 8976 0012 C3       		ret
 8977              	LBE102:
 8978              	Lscope83:
 8980 0013 90       		.section	.text$_ZNSt14__simple_allocIN10ThreadPool10ThreadDataESt24__default_alloc_templateILb1ELi
 8981              		.linkonce discard
 8982              		.align 2
GAS LISTING h:/6261A/11CW1352MP_BIRD61A_11C_V33_GPRS_MMI/plutommi/Customer/ResGenerator/gcctmp/ccEHcaaa.s 			page 163


 8985              	.globl __ZNSt14__simple_allocIN10ThreadPool10ThreadDataESt24__default_alloc_templateILb1ELi0EEE8all
 8987              	__ZNSt14__simple_allocIN10ThreadPool10ThreadDataESt24__default_alloc_templateILb1ELi0EEE8allocateEj
 8989              	Ltext42:
 8991              	LM361:
 8992 0000 55       		pushl	%ebp
 8993 0001 89E5     		movl	%esp, %ebp
 8994 0003 83EC08   		subl	$8, %esp
 8996              	LM362:
 8997              	LBB103:
 8998 0006 C745FC00 		movl	$0, -4(%ebp)
 8998      000000
 9000              	LM363:
 9001 000d 837D0800 		cmpl	$0, 8(%ebp)
 9002 0011 741B     		je	L298
 9004              	LM364:
 9005 0013 8B4508   		movl	8(%ebp), %eax
 9006 0016 89C2     		movl	%eax, %edx
 9007 0018 01D2     		addl	%edx, %edx
 9008 001a 01C2     		addl	%eax, %edx
 9009 001c 8D049500 		leal	0(,%edx,4), %eax
 9009      000000
 9010 0023 890424   		movl	%eax, (%esp)
 9011 0026 E8000000 		call	__ZNSt24__default_alloc_templateILb1ELi0EE8allocateEj
 9011      00
 9012 002b 8945FC   		movl	%eax, -4(%ebp)
 9013              	L298:
 9015              	LM365:
 9016 002e 8B45FC   		movl	-4(%ebp), %eax
 9017 0031 C9       		leave
 9018 0032 C3       		ret
 9019              	LBE103:
 9023              	Lscope84:
 9025 0033 90       		.section	.text$_ZSt4copyIN9__gnu_cxx17__normal_iteratorIPN10ThreadPool10ThreadDataESt6vectorIS3_Sa
 9026              		.linkonce discard
 9027              		.align 2
 9032              	.globl __ZSt4copyIN9__gnu_cxx17__normal_iteratorIPN10ThreadPool10ThreadDataESt6vectorIS3_SaIS3_EEEE
 9034              	__ZSt4copyIN9__gnu_cxx17__normal_iteratorIPN10ThreadPool10ThreadDataESt6vectorIS3_SaIS3_EEEES8_ET0_
 9036              	Ltext43:
 9038              	LM366:
 9039 0000 55       		pushl	%ebp
 9040 0001 89E5     		movl	%esp, %ebp
 9041 0003 83EC18   		subl	$24, %esp
 9043              	LM367:
 9044              	LBB104:
 9045 0006 C644240C 		movb	$0, 12(%esp)
 9045      00
 9046 000b 8B4510   		movl	16(%ebp), %eax
 9047 000e 89442408 		movl	%eax, 8(%esp)
 9048 0012 8B450C   		movl	12(%ebp), %eax
 9049 0015 89442404 		movl	%eax, 4(%esp)
 9050 0019 8B4508   		movl	8(%ebp), %eax
 9051 001c 890424   		movl	%eax, (%esp)
 9052 001f E8000000 		call	__ZSt10__copy_ni1IN9__gnu_cxx17__normal_iteratorIPN10ThreadPool10ThreadDataESt6vectorIS3_SaIS
 9052      00
 9053 0024 8945FC   		movl	%eax, -4(%ebp)
 9054 0027 8B45FC   		movl	-4(%ebp), %eax
 9055 002a C9       		leave
GAS LISTING h:/6261A/11CW1352MP_BIRD61A_11C_V33_GPRS_MMI/plutommi/Customer/ResGenerator/gcctmp/ccEHcaaa.s 			page 164


 9056 002b C3       		ret
 9057              	LBE104:
 9058              	Lscope85:
 9060              		.section	.text$_ZSt10__copy_ni1IN9__gnu_cxx17__normal_iteratorIPN10ThreadPool10ThreadDataESt6vecto
 9061              		.linkonce discard
 9062              		.align 2
 9067              	.globl __ZSt10__copy_ni1IN9__gnu_cxx17__normal_iteratorIPN10ThreadPool10ThreadDataESt6vectorIS3_SaI
 9069              	__ZSt10__copy_ni1IN9__gnu_cxx17__normal_iteratorIPN10ThreadPool10ThreadDataESt6vectorIS3_SaIS3_EEEE
 9071              	LM368:
 9072 0000 55       		pushl	%ebp
 9073 0001 89E5     		movl	%esp, %ebp
 9074 0003 53       		pushl	%ebx
 9075 0004 83EC24   		subl	$36, %esp
 9077              	LM369:
 9078              	LBB105:
 9079 0007 8D450C   		leal	12(%ebp), %eax
 9080 000a 890424   		movl	%eax, (%esp)
 9081 000d E8000000 		call	__ZNK9__gnu_cxx17__normal_iteratorIPN10ThreadPool10ThreadDataESt6vectorIS2_SaIS2_EEE4baseEv
 9081      00
 9082 0012 89C3     		movl	%eax, %ebx
 9083 0014 8D4508   		leal	8(%ebp), %eax
 9084 0017 890424   		movl	%eax, (%esp)
 9085 001a E8000000 		call	__ZNK9__gnu_cxx17__normal_iteratorIPN10ThreadPool10ThreadDataESt6vectorIS2_SaIS2_EEE4baseEv
 9085      00
 9086 001f 89C2     		movl	%eax, %edx
 9087 0021 C644240C 		movb	$0, 12(%esp)
 9087      00
 9088 0026 8B4510   		movl	16(%ebp), %eax
 9089 0029 89442408 		movl	%eax, 8(%esp)
 9090 002d 8B03     		movl	(%ebx), %eax
 9091 002f 89442404 		movl	%eax, 4(%esp)
 9092 0033 8B02     		movl	(%edx), %eax
 9093 0035 890424   		movl	%eax, (%esp)
 9094 0038 E8000000 		call	__ZSt10__copy_ni2IPN10ThreadPool10ThreadDataEN9__gnu_cxx17__normal_iteratorIS2_St6vectorIS1_S
 9094      00
 9095 003d 8945F8   		movl	%eax, -8(%ebp)
 9096 0040 8B45F8   		movl	-8(%ebp), %eax
 9097 0043 83C424   		addl	$36, %esp
 9098 0046 5B       		popl	%ebx
 9099 0047 5D       		popl	%ebp
 9100 0048 C3       		ret
 9101              	LBE105:
 9102              	Lscope86:
 9104 0049 909090   		.section	.text$_ZSt10__copy_ni2IPN10ThreadPool10ThreadDataEN9__gnu_cxx17__normal_iteratorIS2_St6ve
 9105              		.linkonce discard
 9106              		.align 2
 9111              	.globl __ZSt10__copy_ni2IPN10ThreadPool10ThreadDataEN9__gnu_cxx17__normal_iteratorIS2_St6vectorIS1_
 9113              	__ZSt10__copy_ni2IPN10ThreadPool10ThreadDataEN9__gnu_cxx17__normal_iteratorIS2_St6vectorIS1_SaIS1_E
 9115              	LM370:
 9116 0000 55       		pushl	%ebp
 9117 0001 89E5     		movl	%esp, %ebp
 9118 0003 83EC28   		subl	$40, %esp
 9120              	LM371:
 9121              	LBB106:
 9122 0006 8D4510   		leal	16(%ebp), %eax
 9123 0009 890424   		movl	%eax, (%esp)
 9124 000c E8000000 		call	__ZNK9__gnu_cxx17__normal_iteratorIPN10ThreadPool10ThreadDataESt6vectorIS2_SaIS2_EEE4baseEv
GAS LISTING h:/6261A/11CW1352MP_BIRD61A_11C_V33_GPRS_MMI/plutommi/Customer/ResGenerator/gcctmp/ccEHcaaa.s 			page 165


 9124      00
 9125 0011 C644240C 		movb	$0, 12(%esp)
 9125      00
 9126 0016 8B00     		movl	(%eax), %eax
 9127 0018 89442408 		movl	%eax, 8(%esp)
 9128 001c 8B450C   		movl	12(%ebp), %eax
 9129 001f 89442404 		movl	%eax, 4(%esp)
 9130 0023 8B4508   		movl	8(%ebp), %eax
 9131 0026 890424   		movl	%eax, (%esp)
 9132 0029 E8000000 		call	__ZSt11__copy_aux2IPN10ThreadPool10ThreadDataES2_ET0_T_S4_S3_12__false_type
 9132      00
 9133 002e 8945F8   		movl	%eax, -8(%ebp)
 9134 0031 8D45F8   		leal	-8(%ebp), %eax
 9135 0034 89442404 		movl	%eax, 4(%esp)
 9136 0038 8D45FC   		leal	-4(%ebp), %eax
 9137 003b 890424   		movl	%eax, (%esp)
 9138 003e E8000000 		call	__ZN9__gnu_cxx17__normal_iteratorIPN10ThreadPool10ThreadDataESt6vectorIS2_SaIS2_EEEC1ERKS3_
 9138      00
 9139 0043 8B45FC   		movl	-4(%ebp), %eax
 9140 0046 C9       		leave
 9141 0047 C3       		ret
 9142              	LBE106:
 9143              	Lscope87:
 9145              		.section	.text$_ZSt11__copy_aux2IPN10ThreadPool10ThreadDataES2_ET0_T_S4_S3_12__false_type,"x"
 9146              		.linkonce discard
 9147              		.align 2
 9152              	.globl __ZSt11__copy_aux2IPN10ThreadPool10ThreadDataES2_ET0_T_S4_S3_12__false_type
 9154              	__ZSt11__copy_aux2IPN10ThreadPool10ThreadDataES2_ET0_T_S4_S3_12__false_type:
 9156              	LM372:
 9157 0000 55       		pushl	%ebp
 9158 0001 89E5     		movl	%esp, %ebp
 9159 0003 83EC18   		subl	$24, %esp
 9161              	LM373:
 9162 0006 8D4508   		leal	8(%ebp), %eax
 9163              	LBB107:
 9164 0009 890424   		movl	%eax, (%esp)
 9165 000c E8000000 		call	__ZSt19__iterator_categoryIPN10ThreadPool10ThreadDataEENSt15iterator_traitsIT_E17iterator_cat
 9165      00
 9166 0011 8845FF   		movb	%al, -1(%ebp)
 9167 0014 C644240C 		movb	$0, 12(%esp)
 9167      00
 9168 0019 8B4510   		movl	16(%ebp), %eax
 9169 001c 89442408 		movl	%eax, 8(%esp)
 9170 0020 8B450C   		movl	12(%ebp), %eax
 9171 0023 89442404 		movl	%eax, 4(%esp)
 9172 0027 8B4508   		movl	8(%ebp), %eax
 9173 002a 890424   		movl	%eax, (%esp)
 9174 002d E8000000 		call	__ZSt6__copyIPN10ThreadPool10ThreadDataES2_ET0_T_S4_S3_St26random_access_iterator_tag
 9174      00
 9175 0032 C9       		leave
 9176 0033 C3       		ret
 9177              	LBE107:
 9178              	Lscope88:
 9180              		.section	.text$_ZSt6__copyIPN10ThreadPool10ThreadDataES2_ET0_T_S4_S3_St26random_access_iterator_ta
 9181              		.linkonce discard
 9182              		.align 2
 9187              	.globl __ZSt6__copyIPN10ThreadPool10ThreadDataES2_ET0_T_S4_S3_St26random_access_iterator_tag
GAS LISTING h:/6261A/11CW1352MP_BIRD61A_11C_V33_GPRS_MMI/plutommi/Customer/ResGenerator/gcctmp/ccEHcaaa.s 			page 166


 9189              	__ZSt6__copyIPN10ThreadPool10ThreadDataES2_ET0_T_S4_S3_St26random_access_iterator_tag:
 9191              	LM374:
 9192 0000 55       		pushl	%ebp
 9193 0001 89E5     		movl	%esp, %ebp
 9194 0003 83EC04   		subl	$4, %esp
 9196              	LM375:
 9197              	LBB108:
 9198              	LBB109:
 9199 0006 8B5508   		movl	8(%ebp), %edx
 9200 0009 8B450C   		movl	12(%ebp), %eax
 9201 000c 29D0     		subl	%edx, %eax
 9202 000e C1F802   		sarl	$2, %eax
 9203 0011 69C0ABAA 		imull	$-1431655765, %eax, %eax
 9203      AAAA
 9204 0017 8945FC   		movl	%eax, -4(%ebp)
 9205              	L304:
 9206 001a 837DFC00 		cmpl	$0, -4(%ebp)
 9207 001e 7F02     		jg	L307
 9208 0020 EB27     		jmp	L305
 9209              	L307:
 9211              	LM376:
 9212 0022 8B4D10   		movl	16(%ebp), %ecx
 9213 0025 8B5508   		movl	8(%ebp), %edx
 9214 0028 8B02     		movl	(%edx), %eax
 9215 002a 8901     		movl	%eax, (%ecx)
 9216 002c 8B4204   		movl	4(%edx), %eax
 9217 002f 894104   		movl	%eax, 4(%ecx)
 9218 0032 8B4208   		movl	8(%edx), %eax
 9219 0035 894108   		movl	%eax, 8(%ecx)
 9221              	LM377:
 9222 0038 8345080C 		addl	$12, 8(%ebp)
 9224              	LM378:
 9225 003c 8D4510   		leal	16(%ebp), %eax
 9226 003f 83000C   		addl	$12, (%eax)
 9228              	LM379:
 9229 0042 8D45FC   		leal	-4(%ebp), %eax
 9230 0045 FF08     		decl	(%eax)
 9231 0047 EBD1     		jmp	L304
 9232              	L305:
 9234              	LM380:
 9235              	LBE109:
 9236 0049 8B4510   		movl	16(%ebp), %eax
 9237 004c C9       		leave
 9238 004d C3       		ret
 9239              	LBE108:
 9243              	Lscope89:
 9245 004e 9090     		.section	.text$_ZSt13__destroy_auxIN9__gnu_cxx17__normal_iteratorIPN10ThreadPool10ThreadDataESt6ve
 9246              		.linkonce discard
 9247              		.align 2
 9251              	.globl __ZSt13__destroy_auxIN9__gnu_cxx17__normal_iteratorIPN10ThreadPool10ThreadDataESt6vectorIS3_
 9253              	__ZSt13__destroy_auxIN9__gnu_cxx17__normal_iteratorIPN10ThreadPool10ThreadDataESt6vectorIS3_SaIS3_E
 9255              	Ltext44:
 9257              	LM381:
 9258 0000 55       		pushl	%ebp
 9259 0001 89E5     		movl	%esp, %ebp
 9260 0003 83EC08   		subl	$8, %esp
 9262              	LM382:
GAS LISTING h:/6261A/11CW1352MP_BIRD61A_11C_V33_GPRS_MMI/plutommi/Customer/ResGenerator/gcctmp/ccEHcaaa.s 			page 167


 9263              	LBB110:
 9264 0006 90       		nop
 9265              	L309:
 9266 0007 8D450C   		leal	12(%ebp), %eax
 9267 000a 89442404 		movl	%eax, 4(%esp)
 9268 000e 8D4508   		leal	8(%ebp), %eax
 9269 0011 890424   		movl	%eax, (%esp)
 9270 0014 E8000000 		call	__ZN9__gnu_cxxneIPN10ThreadPool10ThreadDataESt6vectorIS2_SaIS2_EEEEbRKNS_17__normal_iteratorI
 9270      00
 9271 0019 84C0     		testb	%al, %al
 9272 001b 7502     		jne	L312
 9273 001d EB20     		jmp	L308
 9274              	L312:
 9275 001f 8D4508   		leal	8(%ebp), %eax
 9276 0022 890424   		movl	%eax, (%esp)
 9277 0025 E8000000 		call	__ZNK9__gnu_cxx17__normal_iteratorIPN10ThreadPool10ThreadDataESt6vectorIS2_SaIS2_EEEdeEv
 9277      00
 9278 002a 890424   		movl	%eax, (%esp)
 9279 002d E8000000 		call	__ZSt8_DestroyIN10ThreadPool10ThreadDataEEvPT_
 9279      00
 9280 0032 8D4508   		leal	8(%ebp), %eax
 9281 0035 890424   		movl	%eax, (%esp)
 9282 0038 E8000000 		call	__ZN9__gnu_cxx17__normal_iteratorIPN10ThreadPool10ThreadDataESt6vectorIS2_SaIS2_EEEppEv
 9282      00
 9283 003d EBC8     		jmp	L309
 9284              	L308:
 9285 003f C9       		leave
 9286 0040 C3       		ret
 9287              	LBE110:
 9288              	Lscope90:
 9290 0041 909090   		.section	.text$_ZSt8_DestroyIN10ThreadPool10ThreadDataEEvPT_,"x"
 9291              		.linkonce discard
 9292              		.align 2
 9295              	.globl __ZSt8_DestroyIN10ThreadPool10ThreadDataEEvPT_
 9297              	__ZSt8_DestroyIN10ThreadPool10ThreadDataEEvPT_:
 9299              	LM383:
 9300 0000 55       		pushl	%ebp
 9301 0001 89E5     		movl	%esp, %ebp
 9303              	LM384:
 9304 0003 5D       		popl	%ebp
 9305 0004 C3       		ret
 9306              	Lscope91:
 9308 0005 909090   		.section	.text$_ZN9__gnu_cxxmiIPN10ThreadPool10ThreadDataES3_St6vectorIS2_SaIS2_EEEENS_17__normal_
 9309              		.linkonce discard
 9310              		.align 2
 9314              	.globl __ZN9__gnu_cxxmiIPN10ThreadPool10ThreadDataES3_St6vectorIS2_SaIS2_EEEENS_17__normal_iterator
 9316              	__ZN9__gnu_cxxmiIPN10ThreadPool10ThreadDataES3_St6vectorIS2_SaIS2_EEEENS_17__normal_iteratorIT_T1_E
 9318              	Ltext45:
 9320              	LM385:
 9321 0000 55       		pushl	%ebp
 9322 0001 89E5     		movl	%esp, %ebp
 9323 0003 53       		pushl	%ebx
 9324 0004 83EC04   		subl	$4, %esp
 9326              	LM386:
 9327              	LBB111:
 9328 0007 8B4508   		movl	8(%ebp), %eax
 9329 000a 890424   		movl	%eax, (%esp)
GAS LISTING h:/6261A/11CW1352MP_BIRD61A_11C_V33_GPRS_MMI/plutommi/Customer/ResGenerator/gcctmp/ccEHcaaa.s 			page 168


 9330 000d E8000000 		call	__ZNK9__gnu_cxx17__normal_iteratorIPN10ThreadPool10ThreadDataESt6vectorIS2_SaIS2_EEE4baseEv
 9330      00
 9331 0012 89C3     		movl	%eax, %ebx
 9332 0014 8B450C   		movl	12(%ebp), %eax
 9333 0017 890424   		movl	%eax, (%esp)
 9334 001a E8000000 		call	__ZNK9__gnu_cxx17__normal_iteratorIPN10ThreadPool10ThreadDataESt6vectorIS2_SaIS2_EEE4baseEv
 9334      00
 9335 001f 8B10     		movl	(%eax), %edx
 9336 0021 8B03     		movl	(%ebx), %eax
 9337 0023 29D0     		subl	%edx, %eax
 9338 0025 C1F802   		sarl	$2, %eax
 9339 0028 69C0ABAA 		imull	$-1431655765, %eax, %eax
 9339      AAAA
 9340 002e 83C404   		addl	$4, %esp
 9341 0031 5B       		popl	%ebx
 9342 0032 5D       		popl	%ebp
 9343 0033 C3       		ret
 9344              	LBE111:
 9345              	Lscope92:
 9347              		.section	.text$_ZNSt4listIN10ThreadPool7JobDataESaIS1_EE14_M_create_nodeERKS1_,"x"
 9348              		.linkonce discard
 9349              		.align 2
 9353              	.globl __ZNSt4listIN10ThreadPool7JobDataESaIS1_EE14_M_create_nodeERKS1_
 9355              	__ZNSt4listIN10ThreadPool7JobDataESaIS1_EE14_M_create_nodeERKS1_:
 9357              	Ltext46:
 9359              	LM387:
 9360 0000 55       		pushl	%ebp
 9361 0001 89E5     		movl	%esp, %ebp
 9362 0003 83EC18   		subl	$24, %esp
 9364              	LM388:
 9365              	LBB112:
 9366 0006 8B4508   		movl	8(%ebp), %eax
 9367 0009 890424   		movl	%eax, (%esp)
 9368 000c E8000000 		call	__ZNSt16_List_alloc_baseIN10ThreadPool7JobDataESaIS1_ELb1EE11_M_get_nodeEv
 9368      00
 9369 0011 8945FC   		movl	%eax, -4(%ebp)
 9371              	LM389:
 9372 0014 8B450C   		movl	12(%ebp), %eax
 9373 0017 89442404 		movl	%eax, 4(%esp)
 9374 001b 8B45FC   		movl	-4(%ebp), %eax
 9375 001e 83C008   		addl	$8, %eax
 9376 0021 890424   		movl	%eax, (%esp)
 9377 0024 E8000000 		call	__ZSt10_ConstructIN10ThreadPool7JobDataES1_EvPT_RKT0_
 9377      00
 9378              	L317:
 9379              	L318:
 9380              	L320:
 9382              	LM390:
 9383 0029 8B45FC   		movl	-4(%ebp), %eax
 9384              	L315:
 9385 002c C9       		leave
 9386 002d C3       		ret
 9387              	LBE112:
 9391              	Lscope93:
 9393 002e 9090     		.section	.text$_ZSt10_ConstructIN10ThreadPool7JobDataES1_EvPT_RKT0_,"x"
 9394              		.linkonce discard
 9395              		.align 2
GAS LISTING h:/6261A/11CW1352MP_BIRD61A_11C_V33_GPRS_MMI/plutommi/Customer/ResGenerator/gcctmp/ccEHcaaa.s 			page 169


 9399              	.globl __ZSt10_ConstructIN10ThreadPool7JobDataES1_EvPT_RKT0_
 9401              	__ZSt10_ConstructIN10ThreadPool7JobDataES1_EvPT_RKT0_:
 9403              	Ltext47:
 9405              	LM391:
 9406 0000 55       		pushl	%ebp
 9407 0001 89E5     		movl	%esp, %ebp
 9408 0003 83EC18   		subl	$24, %esp
 9410              	LM392:
 9411              	LBB113:
 9412 0006 8B4508   		movl	8(%ebp), %eax
 9413 0009 89442404 		movl	%eax, 4(%esp)
 9414 000d C704240C 		movl	$12, (%esp)
 9414      000000
 9415 0014 E8000000 		call	__ZnwjPv
 9415      00
 9416 0019 8945FC   		movl	%eax, -4(%ebp)
 9417 001c 837DFC00 		cmpl	$0, -4(%ebp)
 9418 0020 741C     		je	L322
 9419 0022 8B550C   		movl	12(%ebp), %edx
 9420 0025 8B02     		movl	(%edx), %eax
 9421 0027 8B4DFC   		movl	-4(%ebp), %ecx
 9422 002a 8901     		movl	%eax, (%ecx)
 9423 002c 8B4204   		movl	4(%edx), %eax
 9424 002f 8B4DFC   		movl	-4(%ebp), %ecx
 9425 0032 894104   		movl	%eax, 4(%ecx)
 9426 0035 8B4208   		movl	8(%edx), %eax
 9427 0038 8B55FC   		movl	-4(%ebp), %edx
 9428 003b 894208   		movl	%eax, 8(%edx)
 9429              	L325:
 9430              	L322:
 9431 003e C9       		leave
 9432 003f C3       		ret
 9433              	LBE113:
 9434              	Lscope94:
 9436              		.section	.text$_ZSt24__uninitialized_copy_auxIN9__gnu_cxx17__normal_iteratorIPN10ThreadPool10Threa
 9437              		.linkonce discard
 9438              		.align 2
 9443              	.globl __ZSt24__uninitialized_copy_auxIN9__gnu_cxx17__normal_iteratorIPN10ThreadPool10ThreadDataESt
 9445              	__ZSt24__uninitialized_copy_auxIN9__gnu_cxx17__normal_iteratorIPN10ThreadPool10ThreadDataESt6vector
 9447              	Ltext48:
 9449              	LM393:
 9450 0000 55       		pushl	%ebp
 9451 0001 89E5     		movl	%esp, %ebp
 9452 0003 53       		pushl	%ebx
 9453 0004 83EC14   		subl	$20, %esp
 9455              	LM394:
 9456              	LBB114:
 9457 0007 8B4510   		movl	16(%ebp), %eax
 9458 000a 8945F8   		movl	%eax, -8(%ebp)
 9460              	LM395:
 9461              	L328:
 9462 000d 8D450C   		leal	12(%ebp), %eax
 9463 0010 89442404 		movl	%eax, 4(%esp)
 9464 0014 8D4508   		leal	8(%ebp), %eax
 9465 0017 890424   		movl	%eax, (%esp)
 9466 001a E8000000 		call	__ZN9__gnu_cxxneIPN10ThreadPool10ThreadDataESt6vectorIS2_SaIS2_EEEEbRKNS_17__normal_iteratorI
 9466      00
GAS LISTING h:/6261A/11CW1352MP_BIRD61A_11C_V33_GPRS_MMI/plutommi/Customer/ResGenerator/gcctmp/ccEHcaaa.s 			page 170


 9467 001f 84C0     		testb	%al, %al
 9468 0021 7502     		jne	L331
 9469 0023 EB3C     		jmp	L329
 9470              	L331:
 9472              	LM396:
 9473 0025 8D4508   		leal	8(%ebp), %eax
 9474 0028 890424   		movl	%eax, (%esp)
 9475 002b E8000000 		call	__ZNK9__gnu_cxx17__normal_iteratorIPN10ThreadPool10ThreadDataESt6vectorIS2_SaIS2_EEEdeEv
 9475      00
 9476 0030 89C3     		movl	%eax, %ebx
 9477 0032 8D45F8   		leal	-8(%ebp), %eax
 9478 0035 890424   		movl	%eax, (%esp)
 9479 0038 E8000000 		call	__ZNK9__gnu_cxx17__normal_iteratorIPN10ThreadPool10ThreadDataESt6vectorIS2_SaIS2_EEEdeEv
 9479      00
 9480 003d 895C2404 		movl	%ebx, 4(%esp)
 9481 0041 890424   		movl	%eax, (%esp)
 9482 0044 E8000000 		call	__ZSt10_ConstructIN10ThreadPool10ThreadDataES1_EvPT_RKT0_
 9482      00
 9484              	LM397:
 9485 0049 8D4508   		leal	8(%ebp), %eax
 9486 004c 890424   		movl	%eax, (%esp)
 9487 004f E8000000 		call	__ZN9__gnu_cxx17__normal_iteratorIPN10ThreadPool10ThreadDataESt6vectorIS2_SaIS2_EEEppEv
 9487      00
 9488 0054 8D45F8   		leal	-8(%ebp), %eax
 9489 0057 890424   		movl	%eax, (%esp)
 9490 005a E8000000 		call	__ZN9__gnu_cxx17__normal_iteratorIPN10ThreadPool10ThreadDataESt6vectorIS2_SaIS2_EEEppEv
 9490      00
 9491 005f EBAC     		jmp	L328
 9492              	L329:
 9494              	LM398:
 9495 0061 8B45F8   		movl	-8(%ebp), %eax
 9496              	L333:
 9498              	LM399:
 9499              	L334:
 9500              	L336:
 9501              	L327:
 9502 0064 83C414   		addl	$20, %esp
 9503 0067 5B       		popl	%ebx
 9504 0068 5D       		popl	%ebp
 9505 0069 C3       		ret
 9506              	LBE114:
 9510              	Lscope95:
 9512 006a 9090     		.section	.text$_ZNSt8iteratorISt26random_access_iterator_tagN10ThreadPool10ThreadDataEiPKS2_RS3_EC
 9513              		.linkonce discard
 9514              		.align 2
 9517              	.globl __ZNSt8iteratorISt26random_access_iterator_tagN10ThreadPool10ThreadDataEiPKS2_RS3_EC2Ev
 9519              	__ZNSt8iteratorISt26random_access_iterator_tagN10ThreadPool10ThreadDataEiPKS2_RS3_EC2Ev:
 9521              	Ltext49:
 9523              	LM400:
 9524              	L339:
 9525              	L338:
 9526 0000 55       		pushl	%ebp
 9527 0001 89E5     		movl	%esp, %ebp
 9529              	LM401:
 9530 0003 5D       		popl	%ebp
 9531 0004 C3       		ret
 9532              	Lscope96:
GAS LISTING h:/6261A/11CW1352MP_BIRD61A_11C_V33_GPRS_MMI/plutommi/Customer/ResGenerator/gcctmp/ccEHcaaa.s 			page 171


 9536 0005 909090   		.text
 9538              	Letext:
GAS LISTING h:/6261A/11CW1352MP_BIRD61A_11C_V33_GPRS_MMI/plutommi/Customer/ResGenerator/gcctmp/ccEHcaaa.s 			page 172


DEFINED SYMBOLS
                            *ABS*:00000000 ThreadPool.cpp
h:/6261A/11CW1352MP_BIRD61A_11C_V33_GPRS_MMI/plutommi/Customer/ResGenerator/gcctmp/ccEHcaaa.s:4189   .text:0000005c __ZN10ThreadPoolC2Eii
h:/6261A/11CW1352MP_BIRD61A_11C_V33_GPRS_MMI/plutommi/Customer/ResGenerator/gcctmp/ccEHcaaa.s:6876   .rdata$_ZTV10ThreadPool:00000000 __ZTV10ThreadPool
h:/6261A/11CW1352MP_BIRD61A_11C_V33_GPRS_MMI/plutommi/Customer/ResGenerator/gcctmp/ccEHcaaa.s:4384   .text:00000266 __ZN10ThreadPoolC1Eii
h:/6261A/11CW1352MP_BIRD61A_11C_V33_GPRS_MMI/plutommi/Customer/ResGenerator/gcctmp/ccEHcaaa.s:4607   .text:00000470 __ZN10ThreadPoolD2Ev
h:/6261A/11CW1352MP_BIRD61A_11C_V33_GPRS_MMI/plutommi/Customer/ResGenerator/gcctmp/ccEHcaaa.s:4735   .text:00000590 __ZN10ThreadPoolD1Ev
h:/6261A/11CW1352MP_BIRD61A_11C_V33_GPRS_MMI/plutommi/Customer/ResGenerator/gcctmp/ccEHcaaa.s:4861   .text:000006b0 __ZN10ThreadPoolD0Ev
h:/6261A/11CW1352MP_BIRD61A_11C_V33_GPRS_MMI/plutommi/Customer/ResGenerator/gcctmp/ccEHcaaa.s:5723   .text:00001002 __ZN10ThreadPool13GetWaitHandleEm
h:/6261A/11CW1352MP_BIRD61A_11C_V33_GPRS_MMI/plutommi/Customer/ResGenerator/gcctmp/ccEHcaaa.s:5821   .text:000010c0 __ZN10ThreadPool10ThreadProcEPv@4
h:/6261A/11CW1352MP_BIRD61A_11C_V33_GPRS_MMI/plutommi/Customer/ResGenerator/gcctmp/ccEHcaaa.s:8367   .rdata$_ZTI10ThreadPool:00000000 __ZTI10ThreadPool
h:/6261A/11CW1352MP_BIRD61A_11C_V33_GPRS_MMI/plutommi/Customer/ResGenerator/gcctmp/ccEHcaaa.s:8373   .rdata$_ZTS10ThreadPool:00000000 __ZTS10ThreadPool
h:/6261A/11CW1352MP_BIRD61A_11C_V33_GPRS_MMI/plutommi/Customer/ResGenerator/gcctmp/ccEHcaaa.s:9445   .text$_ZSt24__uninitialized_copy_auxIN9__gnu_cxx17__normal_iteratorIPN10ThreadPool10ThreadDataESt6vectorIS3_SaIS3_EEEES8_ET0_T_SA_S9_12__false_type:00000000 __ZSt24__uninitialized_copy_auxIN9__gnu_cxx17__normal_iteratorIPN10ThreadPool10ThreadDataESt6vectorIS3_SaIS3_EEEES8_ET0_T_SA_S9_12__false_type
h:/6261A/11CW1352MP_BIRD61A_11C_V33_GPRS_MMI/plutommi/Customer/ResGenerator/gcctmp/ccEHcaaa.s:8299   .text$_ZSt13__destroy_auxIPN10ThreadPool10ThreadDataEEvT_S3_12__false_type:00000000 __ZSt13__destroy_auxIPN10ThreadPool10ThreadDataEEvT_S3_12__false_type
h:/6261A/11CW1352MP_BIRD61A_11C_V33_GPRS_MMI/plutommi/Customer/ResGenerator/gcctmp/ccEHcaaa.s:8224   .text$_ZNSt4listIN10ThreadPool7JobDataESaIS1_EE5eraseESt14_List_iteratorIS1_RS1_PS1_E:00000000 __ZNSt4listIN10ThreadPool7JobDataESaIS1_EE5eraseESt14_List_iteratorIS1_RS1_PS1_E
h:/6261A/11CW1352MP_BIRD61A_11C_V33_GPRS_MMI/plutommi/Customer/ResGenerator/gcctmp/ccEHcaaa.s:9401   .text$_ZSt10_ConstructIN10ThreadPool7JobDataES1_EvPT_RKT0_:00000000 __ZSt10_ConstructIN10ThreadPool7JobDataES1_EvPT_RKT0_
h:/6261A/11CW1352MP_BIRD61A_11C_V33_GPRS_MMI/plutommi/Customer/ResGenerator/gcctmp/ccEHcaaa.s:9355   .text$_ZNSt4listIN10ThreadPool7JobDataESaIS1_EE14_M_create_nodeERKS1_:00000000 __ZNSt4listIN10ThreadPool7JobDataESaIS1_EE14_M_create_nodeERKS1_
h:/6261A/11CW1352MP_BIRD61A_11C_V33_GPRS_MMI/plutommi/Customer/ResGenerator/gcctmp/ccEHcaaa.s:8154   .text$_ZNSt4listIN10ThreadPool7JobDataESaIS1_EE6insertESt14_List_iteratorIS1_RS1_PS1_ERKS1_:00000000 __ZNSt4listIN10ThreadPool7JobDataESaIS1_EE6insertESt14_List_iteratorIS1_RS1_PS1_ERKS1_
h:/6261A/11CW1352MP_BIRD61A_11C_V33_GPRS_MMI/plutommi/Customer/ResGenerator/gcctmp/ccEHcaaa.s:9316   .text$_ZN9__gnu_cxxmiIPN10ThreadPool10ThreadDataES3_St6vectorIS2_SaIS2_EEEENS_17__normal_iteratorIT_T1_E15difference_typeERKSA_RKNS7_IT0_S9_EE:00000000 __ZN9__gnu_cxxmiIPN10ThreadPool10ThreadDataES3_St6vectorIS2_SaIS2_EEEENS_17__normal_iteratorIT_T1_E15difference_typeERKSA_RKNS7_IT0_S9_EE
h:/6261A/11CW1352MP_BIRD61A_11C_V33_GPRS_MMI/plutommi/Customer/ResGenerator/gcctmp/ccEHcaaa.s:9297   .text$_ZSt8_DestroyIN10ThreadPool10ThreadDataEEvPT_:00000000 __ZSt8_DestroyIN10ThreadPool10ThreadDataEEvPT_
h:/6261A/11CW1352MP_BIRD61A_11C_V33_GPRS_MMI/plutommi/Customer/ResGenerator/gcctmp/ccEHcaaa.s:9253   .text$_ZSt13__destroy_auxIN9__gnu_cxx17__normal_iteratorIPN10ThreadPool10ThreadDataESt6vectorIS3_SaIS3_EEEEEvT_S9_12__false_type:00000000 __ZSt13__destroy_auxIN9__gnu_cxx17__normal_iteratorIPN10ThreadPool10ThreadDataESt6vectorIS3_SaIS3_EEEEEvT_S9_12__false_type
h:/6261A/11CW1352MP_BIRD61A_11C_V33_GPRS_MMI/plutommi/Customer/ResGenerator/gcctmp/ccEHcaaa.s:9189   .text$_ZSt6__copyIPN10ThreadPool10ThreadDataES2_ET0_T_S4_S3_St26random_access_iterator_tag:00000000 __ZSt6__copyIPN10ThreadPool10ThreadDataES2_ET0_T_S4_S3_St26random_access_iterator_tag
h:/6261A/11CW1352MP_BIRD61A_11C_V33_GPRS_MMI/plutommi/Customer/ResGenerator/gcctmp/ccEHcaaa.s:9154   .text$_ZSt11__copy_aux2IPN10ThreadPool10ThreadDataES2_ET0_T_S4_S3_12__false_type:00000000 __ZSt11__copy_aux2IPN10ThreadPool10ThreadDataES2_ET0_T_S4_S3_12__false_type
h:/6261A/11CW1352MP_BIRD61A_11C_V33_GPRS_MMI/plutommi/Customer/ResGenerator/gcctmp/ccEHcaaa.s:9113   .text$_ZSt10__copy_ni2IPN10ThreadPool10ThreadDataEN9__gnu_cxx17__normal_iteratorIS2_St6vectorIS1_SaIS1_EEEEET0_T_SA_S9_11__true_type:00000000 __ZSt10__copy_ni2IPN10ThreadPool10ThreadDataEN9__gnu_cxx17__normal_iteratorIS2_St6vectorIS1_SaIS1_EEEEET0_T_SA_S9_11__true_type
h:/6261A/11CW1352MP_BIRD61A_11C_V33_GPRS_MMI/plutommi/Customer/ResGenerator/gcctmp/ccEHcaaa.s:9069   .text$_ZSt10__copy_ni1IN9__gnu_cxx17__normal_iteratorIPN10ThreadPool10ThreadDataESt6vectorIS3_SaIS3_EEEES8_ET0_T_SA_S9_11__true_type:00000000 __ZSt10__copy_ni1IN9__gnu_cxx17__normal_iteratorIPN10ThreadPool10ThreadDataESt6vectorIS3_SaIS3_EEEES8_ET0_T_SA_S9_11__true_type
h:/6261A/11CW1352MP_BIRD61A_11C_V33_GPRS_MMI/plutommi/Customer/ResGenerator/gcctmp/ccEHcaaa.s:9034   .text$_ZSt4copyIN9__gnu_cxx17__normal_iteratorIPN10ThreadPool10ThreadDataESt6vectorIS3_SaIS3_EEEES8_ET0_T_SA_S9_:00000000 __ZSt4copyIN9__gnu_cxx17__normal_iteratorIPN10ThreadPool10ThreadDataESt6vectorIS3_SaIS3_EEEES8_ET0_T_SA_S9_
h:/6261A/11CW1352MP_BIRD61A_11C_V33_GPRS_MMI/plutommi/Customer/ResGenerator/gcctmp/ccEHcaaa.s:8078   .text$_ZNSt6vectorIN10ThreadPool10ThreadDataESaIS1_EE5eraseEN9__gnu_cxx17__normal_iteratorIPS1_S3_EES7_:00000000 __ZNSt6vectorIN10ThreadPool10ThreadDataESaIS1_EE5eraseEN9__gnu_cxx17__normal_iteratorIPS1_S3_EES7_
h:/6261A/11CW1352MP_BIRD61A_11C_V33_GPRS_MMI/plutommi/Customer/ResGenerator/gcctmp/ccEHcaaa.s:8023   .text$_ZNKSt14_List_iteratorIN10ThreadPool7JobDataERS1_PS1_EdeEv:00000000 __ZNKSt14_List_iteratorIN10ThreadPool7JobDataERS1_PS1_EdeEv
h:/6261A/11CW1352MP_BIRD61A_11C_V33_GPRS_MMI/plutommi/Customer/ResGenerator/gcctmp/ccEHcaaa.s:6889   .text$_ZNSt19_List_iterator_base7_M_incrEv:00000000 __ZNSt19_List_iterator_base7_M_incrEv
h:/6261A/11CW1352MP_BIRD61A_11C_V33_GPRS_MMI/plutommi/Customer/ResGenerator/gcctmp/ccEHcaaa.s:8408   .text$_ZNSt19_List_iterator_baseC2EPSt15_List_node_base:00000000 __ZNSt19_List_iterator_baseC2EPSt15_List_node_base
h:/6261A/11CW1352MP_BIRD61A_11C_V33_GPRS_MMI/plutommi/Customer/ResGenerator/gcctmp/ccEHcaaa.s:7995   .text$_ZNSt14_List_iteratorIN10ThreadPool7JobDataERS1_PS1_EC1EPSt10_List_nodeIS1_E:00000000 __ZNSt14_List_iteratorIN10ThreadPool7JobDataERS1_PS1_EC1EPSt10_List_nodeIS1_E
h:/6261A/11CW1352MP_BIRD61A_11C_V33_GPRS_MMI/plutommi/Customer/ResGenerator/gcctmp/ccEHcaaa.s:8047   .text$_ZSt8_DestroyIN9__gnu_cxx17__normal_iteratorIPN10ThreadPool10ThreadDataESt6vectorIS3_SaIS3_EEEEEvT_S9_:00000000 __ZSt8_DestroyIN9__gnu_cxx17__normal_iteratorIPN10ThreadPool10ThreadDataESt6vectorIS3_SaIS3_EEEEEvT_S9_
h:/6261A/11CW1352MP_BIRD61A_11C_V33_GPRS_MMI/plutommi/Customer/ResGenerator/gcctmp/ccEHcaaa.s:8337   .text$_ZSt18uninitialized_copyIN9__gnu_cxx17__normal_iteratorIPN10ThreadPool10ThreadDataESt6vectorIS3_SaIS3_EEEES8_ET0_T_SA_S9_:00000000 __ZSt18uninitialized_copyIN9__gnu_cxx17__normal_iteratorIPN10ThreadPool10ThreadDataESt6vectorIS3_SaIS3_EEEES8_ET0_T_SA_S9_
h:/6261A/11CW1352MP_BIRD61A_11C_V33_GPRS_MMI/plutommi/Customer/ResGenerator/gcctmp/ccEHcaaa.s:8987   .text$_ZNSt14__simple_allocIN10ThreadPool10ThreadDataESt24__default_alloc_templateILb1ELi0EEE8allocateEj:00000000 __ZNSt14__simple_allocIN10ThreadPool10ThreadDataESt24__default_alloc_templateILb1ELi0EEE8allocateEj
h:/6261A/11CW1352MP_BIRD61A_11C_V33_GPRS_MMI/plutommi/Customer/ResGenerator/gcctmp/ccEHcaaa.s:8961   .text$_ZNSt18_Vector_alloc_baseIN10ThreadPool10ThreadDataESaIS1_ELb1EE11_M_allocateEj:00000000 __ZNSt18_Vector_alloc_baseIN10ThreadPool10ThreadDataESaIS1_ELb1EE11_M_allocateEj
h:/6261A/11CW1352MP_BIRD61A_11C_V33_GPRS_MMI/plutommi/Customer/ResGenerator/gcctmp/ccEHcaaa.s:8936   .text$_ZNK9__gnu_cxx17__normal_iteratorIPN10ThreadPool10ThreadDataESt6vectorIS2_SaIS2_EEEdeEv:00000000 __ZNK9__gnu_cxx17__normal_iteratorIPN10ThreadPool10ThreadDataESt6vectorIS2_SaIS2_EEEdeEv
h:/6261A/11CW1352MP_BIRD61A_11C_V33_GPRS_MMI/plutommi/Customer/ResGenerator/gcctmp/ccEHcaaa.s:8876   .text$_ZSt15__copy_backwardIPN10ThreadPool10ThreadDataES2_ET0_T_S4_S3_St26random_access_iterator_tag:00000000 __ZSt15__copy_backwardIPN10ThreadPool10ThreadDataES2_ET0_T_S4_S3_St26random_access_iterator_tag
h:/6261A/11CW1352MP_BIRD61A_11C_V33_GPRS_MMI/plutommi/Customer/ResGenerator/gcctmp/ccEHcaaa.s:8850   .text$_ZSt19__iterator_categoryIPN10ThreadPool10ThreadDataEENSt15iterator_traitsIT_E17iterator_categoryERKS4_:00000000 __ZSt19__iterator_categoryIPN10ThreadPool10ThreadDataEENSt15iterator_traitsIT_E17iterator_categoryERKS4_
h:/6261A/11CW1352MP_BIRD61A_11C_V33_GPRS_MMI/plutommi/Customer/ResGenerator/gcctmp/ccEHcaaa.s:8818   .text$_ZNSt24__copy_backward_dispatchIPN10ThreadPool10ThreadDataES2_12__false_typeE4copyES2_S2_S2_:00000000 __ZNSt24__copy_backward_dispatchIPN10ThreadPool10ThreadDataES2_12__false_typeE4copyES2_S2_S2_
h:/6261A/11CW1352MP_BIRD61A_11C_V33_GPRS_MMI/plutommi/Customer/ResGenerator/gcctmp/ccEHcaaa.s:8788   .text$_ZSt19__copy_backward_auxIPN10ThreadPool10ThreadDataES2_ET0_T_S4_S3_:00000000 __ZSt19__copy_backward_auxIPN10ThreadPool10ThreadDataES2_ET0_T_S4_S3_
h:/6261A/11CW1352MP_BIRD61A_11C_V33_GPRS_MMI/plutommi/Customer/ResGenerator/gcctmp/ccEHcaaa.s:8748   .text$_ZSt38__copy_backward_output_normal_iteratorIPN10ThreadPool10ThreadDataEN9__gnu_cxx17__normal_iteratorIS2_St6vectorIS1_SaIS1_EEEEET0_T_SA_S9_11__true_type:00000000 __ZSt38__copy_backward_output_normal_iteratorIPN10ThreadPool10ThreadDataEN9__gnu_cxx17__normal_iteratorIS2_St6vectorIS1_SaIS1_EEEEET0_T_SA_S9_11__true_type
h:/6261A/11CW1352MP_BIRD61A_11C_V33_GPRS_MMI/plutommi/Customer/ResGenerator/gcctmp/ccEHcaaa.s:7611   .text$_ZNK9__gnu_cxx17__normal_iteratorIPN10ThreadPool10ThreadDataESt6vectorIS2_SaIS2_EEE4baseEv:00000000 __ZNK9__gnu_cxx17__normal_iteratorIPN10ThreadPool10ThreadDataESt6vectorIS2_SaIS2_EEE4baseEv
h:/6261A/11CW1352MP_BIRD61A_11C_V33_GPRS_MMI/plutommi/Customer/ResGenerator/gcctmp/ccEHcaaa.s:8704   .text$_ZSt37__copy_backward_input_normal_iteratorIN9__gnu_cxx17__normal_iteratorIPN10ThreadPool10ThreadDataESt6vectorIS3_SaIS3_EEEES8_ET0_T_SA_S9_11__true_type:00000000 __ZSt37__copy_backward_input_normal_iteratorIN9__gnu_cxx17__normal_iteratorIPN10ThreadPool10ThreadDataESt6vectorIS3_SaIS3_EEEES8_ET0_T_SA_S9_11__true_type
h:/6261A/11CW1352MP_BIRD61A_11C_V33_GPRS_MMI/plutommi/Customer/ResGenerator/gcctmp/ccEHcaaa.s:8669   .text$_ZSt13copy_backwardIN9__gnu_cxx17__normal_iteratorIPN10ThreadPool10ThreadDataESt6vectorIS3_SaIS3_EEEES8_ET0_T_SA_S9_:00000000 __ZSt13copy_backwardIN9__gnu_cxx17__normal_iteratorIPN10ThreadPool10ThreadDataESt6vectorIS3_SaIS3_EEEES8_ET0_T_SA_S9_
h:/6261A/11CW1352MP_BIRD61A_11C_V33_GPRS_MMI/plutommi/Customer/ResGenerator/gcctmp/ccEHcaaa.s:7634   .text$_ZNSt6vectorIN10ThreadPool10ThreadDataESaIS1_EE13_M_insert_auxEN9__gnu_cxx17__normal_iteratorIPS1_S3_EERKS1_:00000000 __ZNSt6vectorIN10ThreadPool10ThreadDataESaIS1_EE13_M_insert_auxEN9__gnu_cxx17__normal_iteratorIPS1_S3_EERKS1_
h:/6261A/11CW1352MP_BIRD61A_11C_V33_GPRS_MMI/plutommi/Customer/ResGenerator/gcctmp/ccEHcaaa.s:8645   .text$_ZNSt8iteratorISt26random_access_iterator_tagN10ThreadPool10ThreadDataEiPS2_RS2_EC2Ev:00000000 __ZNSt8iteratorISt26random_access_iterator_tagN10ThreadPool10ThreadDataEiPS2_RS2_EC2Ev
h:/6261A/11CW1352MP_BIRD61A_11C_V33_GPRS_MMI/plutommi/Customer/ResGenerator/gcctmp/ccEHcaaa.s:7581   .text$_ZN9__gnu_cxx17__normal_iteratorIPN10ThreadPool10ThreadDataESt6vectorIS2_SaIS2_EEEC1ERKS3_:00000000 __ZN9__gnu_cxx17__normal_iteratorIPN10ThreadPool10ThreadDataESt6vectorIS2_SaIS2_EEEC1ERKS3_
h:/6261A/11CW1352MP_BIRD61A_11C_V33_GPRS_MMI/plutommi/Customer/ResGenerator/gcctmp/ccEHcaaa.s:8382   .text$_ZnwjPv:00000000 __ZnwjPv
h:/6261A/11CW1352MP_BIRD61A_11C_V33_GPRS_MMI/plutommi/Customer/ResGenerator/gcctmp/ccEHcaaa.s:7538   .text$_ZSt10_ConstructIN10ThreadPool10ThreadDataES1_EvPT_RKT0_:00000000 __ZSt10_ConstructIN10ThreadPool10ThreadDataES1_EvPT_RKT0_
h:/6261A/11CW1352MP_BIRD61A_11C_V33_GPRS_MMI/plutommi/Customer/ResGenerator/gcctmp/ccEHcaaa.s:6848   .text$_ZSt8_DestroyIPN10ThreadPool10ThreadDataEEvT_S3_:00000000 __ZSt8_DestroyIPN10ThreadPool10ThreadDataEEvT_S3_
h:/6261A/11CW1352MP_BIRD61A_11C_V33_GPRS_MMI/plutommi/Customer/ResGenerator/gcctmp/ccEHcaaa.s:7502   .text$_ZNSt14__simple_allocIN10ThreadPool10ThreadDataESt24__default_alloc_templateILb1ELi0EEE10deallocateEPS1_j:00000000 __ZNSt14__simple_allocIN10ThreadPool10ThreadDataESt24__default_alloc_templateILb1ELi0EEE10deallocateEPS1_j
h:/6261A/11CW1352MP_BIRD61A_11C_V33_GPRS_MMI/plutommi/Customer/ResGenerator/gcctmp/ccEHcaaa.s:7475   .text$_ZNSt18_Vector_alloc_baseIN10ThreadPool10ThreadDataESaIS1_ELb1EE13_M_deallocateEPS1_j:00000000 __ZNSt18_Vector_alloc_baseIN10ThreadPool10ThreadDataESaIS1_ELb1EE13_M_deallocateEPS1_j
h:/6261A/11CW1352MP_BIRD61A_11C_V33_GPRS_MMI/plutommi/Customer/ResGenerator/gcctmp/ccEHcaaa.s:7438   .text$_ZNSt12_Vector_baseIN10ThreadPool10ThreadDataESaIS1_EED2Ev:00000000 __ZNSt12_Vector_baseIN10ThreadPool10ThreadDataESaIS1_EED2Ev
h:/6261A/11CW1352MP_BIRD61A_11C_V33_GPRS_MMI/plutommi/Customer/ResGenerator/gcctmp/ccEHcaaa.s:7412   .text$_ZNSt18_Vector_alloc_baseIN10ThreadPool10ThreadDataESaIS1_ELb1EEC2ERKS2_:00000000 __ZNSt18_Vector_alloc_baseIN10ThreadPool10ThreadDataESaIS1_ELb1EEC2ERKS2_
h:/6261A/11CW1352MP_BIRD61A_11C_V33_GPRS_MMI/plutommi/Customer/ResGenerator/gcctmp/ccEHcaaa.s:7384   .text$_ZNSt12_Vector_baseIN10ThreadPool10ThreadDataESaIS1_EEC2ERKS2_:00000000 __ZNSt12_Vector_baseIN10ThreadPool10ThreadDataESaIS1_EEC2ERKS2_
h:/6261A/11CW1352MP_BIRD61A_11C_V33_GPRS_MMI/plutommi/Customer/ResGenerator/gcctmp/ccEHcaaa.s:6808   .text$_ZNSt4listIN10ThreadPool7JobDataESaIS1_EE9pop_frontEv:00000000 __ZNSt4listIN10ThreadPool7JobDataESaIS1_EE9pop_frontEv
h:/6261A/11CW1352MP_BIRD61A_11C_V33_GPRS_MMI/plutommi/Customer/ResGenerator/gcctmp/ccEHcaaa.s:6917   .text$_ZNKSt19_List_iterator_baseeqERKS_:00000000 __ZNKSt19_List_iterator_baseeqERKS_
GAS LISTING h:/6261A/11CW1352MP_BIRD61A_11C_V33_GPRS_MMI/plutommi/Customer/ResGenerator/gcctmp/ccEHcaaa.s 			page 173


h:/6261A/11CW1352MP_BIRD61A_11C_V33_GPRS_MMI/plutommi/Customer/ResGenerator/gcctmp/ccEHcaaa.s:6970   .text$_ZN10ThreadPool15CheckThreadStopEv:00000000 __ZN10ThreadPool15CheckThreadStopEv
h:/6261A/11CW1352MP_BIRD61A_11C_V33_GPRS_MMI/plutommi/Customer/ResGenerator/gcctmp/ccEHcaaa.s:6769   .text$_ZNSt4listIN10ThreadPool7JobDataESaIS1_EE10push_frontERKS1_:00000000 __ZNSt4listIN10ThreadPool7JobDataESaIS1_EE10push_frontERKS1_
h:/6261A/11CW1352MP_BIRD61A_11C_V33_GPRS_MMI/plutommi/Customer/ResGenerator/gcctmp/ccEHcaaa.s:6727   .text$_ZNSt4listIN10ThreadPool7JobDataESaIS1_EE9push_backERKS1_:00000000 __ZNSt4listIN10ThreadPool7JobDataESaIS1_EE9push_backERKS1_
h:/6261A/11CW1352MP_BIRD61A_11C_V33_GPRS_MMI/plutommi/Customer/ResGenerator/gcctmp/ccEHcaaa.s:6688   .text$_ZNSt6vectorIN10ThreadPool10ThreadDataESaIS1_EE5clearEv:00000000 __ZNSt6vectorIN10ThreadPool10ThreadDataESaIS1_EE5clearEv
h:/6261A/11CW1352MP_BIRD61A_11C_V33_GPRS_MMI/plutommi/Customer/ResGenerator/gcctmp/ccEHcaaa.s:6656   .text$_ZNSt4listIN10ThreadPool7JobDataESaIS1_EE5clearEv:00000000 __ZNSt4listIN10ThreadPool7JobDataESaIS1_EE5clearEv
h:/6261A/11CW1352MP_BIRD61A_11C_V33_GPRS_MMI/plutommi/Customer/ResGenerator/gcctmp/ccEHcaaa.s:6632   .text$_ZNKSt14_List_iteratorIN10ThreadPool7JobDataERS1_PS1_EptEv:00000000 __ZNKSt14_List_iteratorIN10ThreadPool7JobDataERS1_PS1_EptEv
h:/6261A/11CW1352MP_BIRD61A_11C_V33_GPRS_MMI/plutommi/Customer/ResGenerator/gcctmp/ccEHcaaa.s:6592   .text$_ZNSt14_List_iteratorIN10ThreadPool7JobDataERS1_PS1_EppEi:00000000 __ZNSt14_List_iteratorIN10ThreadPool7JobDataERS1_PS1_EppEi
h:/6261A/11CW1352MP_BIRD61A_11C_V33_GPRS_MMI/plutommi/Customer/ResGenerator/gcctmp/ccEHcaaa.s:6944   .text$_ZNKSt19_List_iterator_baseneERKS_:00000000 __ZNKSt19_List_iterator_baseneERKS_
h:/6261A/11CW1352MP_BIRD61A_11C_V33_GPRS_MMI/plutommi/Customer/ResGenerator/gcctmp/ccEHcaaa.s:6561   .text$_ZNSt4listIN10ThreadPool7JobDataESaIS1_EE3endEv:00000000 __ZNSt4listIN10ThreadPool7JobDataESaIS1_EE3endEv
h:/6261A/11CW1352MP_BIRD61A_11C_V33_GPRS_MMI/plutommi/Customer/ResGenerator/gcctmp/ccEHcaaa.s:7354   .text$_ZNSt14_List_iteratorIN10ThreadPool7JobDataERS1_PS1_EC1ERKS4_:00000000 __ZNSt14_List_iteratorIN10ThreadPool7JobDataERS1_PS1_EC1ERKS4_
h:/6261A/11CW1352MP_BIRD61A_11C_V33_GPRS_MMI/plutommi/Customer/ResGenerator/gcctmp/ccEHcaaa.s:6527   .text$_ZNSt4listIN10ThreadPool7JobDataESaIS1_EE5beginEv:00000000 __ZNSt4listIN10ThreadPool7JobDataESaIS1_EE5beginEv
h:/6261A/11CW1352MP_BIRD61A_11C_V33_GPRS_MMI/plutommi/Customer/ResGenerator/gcctmp/ccEHcaaa.s:6505   .text$_ZNK9__gnu_cxx17__normal_iteratorIPN10ThreadPool10ThreadDataESt6vectorIS2_SaIS2_EEEptEv:00000000 __ZNK9__gnu_cxx17__normal_iteratorIPN10ThreadPool10ThreadDataESt6vectorIS2_SaIS2_EEEptEv
h:/6261A/11CW1352MP_BIRD61A_11C_V33_GPRS_MMI/plutommi/Customer/ResGenerator/gcctmp/ccEHcaaa.s:6482   .text$_ZN9__gnu_cxx17__normal_iteratorIPN10ThreadPool10ThreadDataESt6vectorIS2_SaIS2_EEEppEv:00000000 __ZN9__gnu_cxx17__normal_iteratorIPN10ThreadPool10ThreadDataESt6vectorIS2_SaIS2_EEEppEv
h:/6261A/11CW1352MP_BIRD61A_11C_V33_GPRS_MMI/plutommi/Customer/ResGenerator/gcctmp/ccEHcaaa.s:6444   .text$_ZN9__gnu_cxxneIPN10ThreadPool10ThreadDataESt6vectorIS2_SaIS2_EEEEbRKNS_17__normal_iteratorIT_T0_EESC_:00000000 __ZN9__gnu_cxxneIPN10ThreadPool10ThreadDataESt6vectorIS2_SaIS2_EEEEbRKNS_17__normal_iteratorIT_T0_EESC_
h:/6261A/11CW1352MP_BIRD61A_11C_V33_GPRS_MMI/plutommi/Customer/ResGenerator/gcctmp/ccEHcaaa.s:6327   .text$_ZNSt6vectorIN10ThreadPool10ThreadDataESaIS1_EE3endEv:00000000 __ZNSt6vectorIN10ThreadPool10ThreadDataESaIS1_EE3endEv
h:/6261A/11CW1352MP_BIRD61A_11C_V33_GPRS_MMI/plutommi/Customer/ResGenerator/gcctmp/ccEHcaaa.s:6416   .text$_ZNSt6vectorIN10ThreadPool10ThreadDataESaIS1_EE5beginEv:00000000 __ZNSt6vectorIN10ThreadPool10ThreadDataESaIS1_EE5beginEv
h:/6261A/11CW1352MP_BIRD61A_11C_V33_GPRS_MMI/plutommi/Customer/ResGenerator/gcctmp/ccEHcaaa.s:5479   .text:00000e02 __ZN10ThreadPool21GetWorkingThreadCountEv
h:/6261A/11CW1352MP_BIRD61A_11C_V33_GPRS_MMI/plutommi/Customer/ResGenerator/gcctmp/ccEHcaaa.s:6362   .text$_ZNSt6vectorIN10ThreadPool10ThreadDataESaIS1_EE9push_backERKS1_:00000000 __ZNSt6vectorIN10ThreadPool10ThreadDataESaIS1_EE9push_backERKS1_
h:/6261A/11CW1352MP_BIRD61A_11C_V33_GPRS_MMI/plutommi/Customer/ResGenerator/gcctmp/ccEHcaaa.s:5200   .text:00000b4c __ZN10ThreadPool7DestroyEv
h:/6261A/11CW1352MP_BIRD61A_11C_V33_GPRS_MMI/plutommi/Customer/ResGenerator/gcctmp/ccEHcaaa.s:7234   .text$_ZNSt14__simple_allocISt10_List_nodeIN10ThreadPool7JobDataEESt24__default_alloc_templateILb1ELi0EEE10deallocateEPS3_j:00000000 __ZNSt14__simple_allocISt10_List_nodeIN10ThreadPool7JobDataEESt24__default_alloc_templateILb1ELi0EEE10deallocateEPS3_j
h:/6261A/11CW1352MP_BIRD61A_11C_V33_GPRS_MMI/plutommi/Customer/ResGenerator/gcctmp/ccEHcaaa.s:7208   .text$_ZNSt16_List_alloc_baseIN10ThreadPool7JobDataESaIS1_ELb1EE11_M_put_nodeEPSt10_List_nodeIS1_E:00000000 __ZNSt16_List_alloc_baseIN10ThreadPool7JobDataESaIS1_ELb1EE11_M_put_nodeEPSt10_List_nodeIS1_E
h:/6261A/11CW1352MP_BIRD61A_11C_V33_GPRS_MMI/plutommi/Customer/ResGenerator/gcctmp/ccEHcaaa.s:8625   .text$_ZSt8_DestroyIN10ThreadPool7JobDataEEvPT_:00000000 __ZSt8_DestroyIN10ThreadPool7JobDataEEvPT_
h:/6261A/11CW1352MP_BIRD61A_11C_V33_GPRS_MMI/plutommi/Customer/ResGenerator/gcctmp/ccEHcaaa.s:7269   .text$_ZNSt10_List_baseIN10ThreadPool7JobDataESaIS1_EE7__clearEv:00000000 __ZNSt10_List_baseIN10ThreadPool7JobDataESaIS1_EE7__clearEv
h:/6261A/11CW1352MP_BIRD61A_11C_V33_GPRS_MMI/plutommi/Customer/ResGenerator/gcctmp/ccEHcaaa.s:5001   .text:0000088a __ZN10ThreadPool6CreateEi
h:/6261A/11CW1352MP_BIRD61A_11C_V33_GPRS_MMI/plutommi/Customer/ResGenerator/gcctmp/ccEHcaaa.s:6240   .text$_ZNSt6vectorIN10ThreadPool10ThreadDataESaIS1_EED1Ev:00000000 __ZNSt6vectorIN10ThreadPool10ThreadDataESaIS1_EED1Ev
h:/6261A/11CW1352MP_BIRD61A_11C_V33_GPRS_MMI/plutommi/Customer/ResGenerator/gcctmp/ccEHcaaa.s:6210   .text$_ZNSt6vectorIN10ThreadPool10ThreadDataESaIS1_EEC1ERKS2_:00000000 __ZNSt6vectorIN10ThreadPool10ThreadDataESaIS1_EEC1ERKS2_
h:/6261A/11CW1352MP_BIRD61A_11C_V33_GPRS_MMI/plutommi/Customer/ResGenerator/gcctmp/ccEHcaaa.s:6188   .text$_ZNSaIN10ThreadPool10ThreadDataEED1Ev:00000000 __ZNSaIN10ThreadPool10ThreadDataEED1Ev
h:/6261A/11CW1352MP_BIRD61A_11C_V33_GPRS_MMI/plutommi/Customer/ResGenerator/gcctmp/ccEHcaaa.s:6168   .text$_ZNSaIN10ThreadPool10ThreadDataEEC1Ev:00000000 __ZNSaIN10ThreadPool10ThreadDataEEC1Ev
h:/6261A/11CW1352MP_BIRD61A_11C_V33_GPRS_MMI/plutommi/Customer/ResGenerator/gcctmp/ccEHcaaa.s:4580   .text$_ZNSt4listIN10ThreadPool7JobDataESaIS1_EED1Ev:00000000 __ZNSt4listIN10ThreadPool7JobDataESaIS1_EED1Ev
h:/6261A/11CW1352MP_BIRD61A_11C_V33_GPRS_MMI/plutommi/Customer/ResGenerator/gcctmp/ccEHcaaa.s:7173   .text$_ZNSt10_List_baseIN10ThreadPool7JobDataESaIS1_EED2Ev:00000000 __ZNSt10_List_baseIN10ThreadPool7JobDataESaIS1_EED2Ev
h:/6261A/11CW1352MP_BIRD61A_11C_V33_GPRS_MMI/plutommi/Customer/ResGenerator/gcctmp/ccEHcaaa.s:7128   .text$_ZNSt14__simple_allocISt10_List_nodeIN10ThreadPool7JobDataEESt24__default_alloc_templateILb1ELi0EEE8allocateEj:00000000 __ZNSt14__simple_allocISt10_List_nodeIN10ThreadPool7JobDataEESt24__default_alloc_templateILb1ELi0EEE8allocateEj
h:/6261A/11CW1352MP_BIRD61A_11C_V33_GPRS_MMI/plutommi/Customer/ResGenerator/gcctmp/ccEHcaaa.s:7105   .text$_ZNSt16_List_alloc_baseIN10ThreadPool7JobDataESaIS1_ELb1EE11_M_get_nodeEv:00000000 __ZNSt16_List_alloc_baseIN10ThreadPool7JobDataESaIS1_ELb1EE11_M_get_nodeEv
h:/6261A/11CW1352MP_BIRD61A_11C_V33_GPRS_MMI/plutommi/Customer/ResGenerator/gcctmp/ccEHcaaa.s:7087   .text$_ZNSt16_List_alloc_baseIN10ThreadPool7JobDataESaIS1_ELb1EEC2ERKS2_:00000000 __ZNSt16_List_alloc_baseIN10ThreadPool7JobDataESaIS1_ELb1EEC2ERKS2_
h:/6261A/11CW1352MP_BIRD61A_11C_V33_GPRS_MMI/plutommi/Customer/ResGenerator/gcctmp/ccEHcaaa.s:7037   .text$_ZNSt10_List_baseIN10ThreadPool7JobDataESaIS1_EEC2ERKS2_:00000000 __ZNSt10_List_baseIN10ThreadPool7JobDataESaIS1_EEC2ERKS2_
h:/6261A/11CW1352MP_BIRD61A_11C_V33_GPRS_MMI/plutommi/Customer/ResGenerator/gcctmp/ccEHcaaa.s:7006   .text$_ZNSt4listIN10ThreadPool7JobDataESaIS1_EEC1ERKS2_:00000000 __ZNSt4listIN10ThreadPool7JobDataESaIS1_EEC1ERKS2_
h:/6261A/11CW1352MP_BIRD61A_11C_V33_GPRS_MMI/plutommi/Customer/ResGenerator/gcctmp/ccEHcaaa.s:6148   .text$_ZNSaIN10ThreadPool7JobDataEED1Ev:00000000 __ZNSaIN10ThreadPool7JobDataEED1Ev
h:/6261A/11CW1352MP_BIRD61A_11C_V33_GPRS_MMI/plutommi/Customer/ResGenerator/gcctmp/ccEHcaaa.s:6126   .text$_ZNSaIN10ThreadPool7JobDataEEC1Ev:00000000 __ZNSaIN10ThreadPool7JobDataEEC1Ev
h:/6261A/11CW1352MP_BIRD61A_11C_V33_GPRS_MMI/plutommi/Customer/ResGenerator/gcctmp/ccEHcaaa.s:5579   .text:00000ee4 __ZN10ThreadPool13AddJobToQueueEPFmPvES0_PNS_10IRunObjectENS_14ThreadPriorityE
h:/6261A/11CW1352MP_BIRD61A_11C_V33_GPRS_MMI/plutommi/Customer/ResGenerator/gcctmp/ccEHcaaa.s:8604   .text$_ZNK9__gnu_cxx17__normal_iteratorIPKN10ThreadPool10ThreadDataESt6vectorIS2_SaIS2_EEE4baseEv:00000000 __ZNK9__gnu_cxx17__normal_iteratorIPKN10ThreadPool10ThreadDataESt6vectorIS2_SaIS2_EEE4baseEv
h:/6261A/11CW1352MP_BIRD61A_11C_V33_GPRS_MMI/plutommi/Customer/ResGenerator/gcctmp/ccEHcaaa.s:8566   .text$_ZN9__gnu_cxxmiIPKN10ThreadPool10ThreadDataES4_St6vectorIS2_SaIS2_EEEENS_17__normal_iteratorIT_T1_E15difference_typeERKSB_RKNS8_IT0_SA_EE:00000000 __ZN9__gnu_cxxmiIPKN10ThreadPool10ThreadDataES4_St6vectorIS2_SaIS2_EEEENS_17__normal_iteratorIT_T1_E15difference_typeERKSB_RKNS8_IT0_SA_EE
h:/6261A/11CW1352MP_BIRD61A_11C_V33_GPRS_MMI/plutommi/Customer/ResGenerator/gcctmp/ccEHcaaa.s:8533   .text$_ZNKSt6vectorIN10ThreadPool10ThreadDataESaIS1_EE3endEv:00000000 __ZNKSt6vectorIN10ThreadPool10ThreadDataESaIS1_EE3endEv
h:/6261A/11CW1352MP_BIRD61A_11C_V33_GPRS_MMI/plutommi/Customer/ResGenerator/gcctmp/ccEHcaaa.s:9519   .text$_ZNSt8iteratorISt26random_access_iterator_tagN10ThreadPool10ThreadDataEiPKS2_RS3_EC2Ev:00000000 __ZNSt8iteratorISt26random_access_iterator_tagN10ThreadPool10ThreadDataEiPKS2_RS3_EC2Ev
h:/6261A/11CW1352MP_BIRD61A_11C_V33_GPRS_MMI/plutommi/Customer/ResGenerator/gcctmp/ccEHcaaa.s:8503   .text$_ZN9__gnu_cxx17__normal_iteratorIPKN10ThreadPool10ThreadDataESt6vectorIS2_SaIS2_EEEC1ERKS4_:00000000 __ZN9__gnu_cxx17__normal_iteratorIPKN10ThreadPool10ThreadDataESt6vectorIS2_SaIS2_EEEC1ERKS4_
h:/6261A/11CW1352MP_BIRD61A_11C_V33_GPRS_MMI/plutommi/Customer/ResGenerator/gcctmp/ccEHcaaa.s:8472   .text$_ZNKSt6vectorIN10ThreadPool10ThreadDataESaIS1_EE5beginEv:00000000 __ZNKSt6vectorIN10ThreadPool10ThreadDataESaIS1_EE5beginEv
h:/6261A/11CW1352MP_BIRD61A_11C_V33_GPRS_MMI/plutommi/Customer/ResGenerator/gcctmp/ccEHcaaa.s:8433   .text$_ZNKSt6vectorIN10ThreadPool10ThreadDataESaIS1_EE4sizeEv:00000000 __ZNKSt6vectorIN10ThreadPool10ThreadDataESaIS1_EE4sizeEv

UNDEFINED SYMBOLS
__Unwind_SjLj_Resume
___gxx_personality_sj0
__Unwind_SjLj_Register
__Unwind_SjLj_Unregister
_InitializeCriticalSection@4
__ZTIPKc
_DeleteCriticalSection@4
_CreateEventA@16
_ResumeThread@4
_SetEvent@4
GAS LISTING h:/6261A/11CW1352MP_BIRD61A_11C_V33_GPRS_MMI/plutommi/Customer/ResGenerator/gcctmp/ccEHcaaa.s 			page 174


_Sleep@4
_CloseHandle@4
_GetLastError@0
_EnterCriticalSection@4
_WaitForSingleObject@8
_LeaveCriticalSection@4
_GetCurrentThreadId@0
_WaitForMultipleObjects@16
_ResetEvent@4
__ZTVN10__cxxabiv117__class_type_infoE
___cxa_rethrow
___cxa_end_catch
___cxa_begin_catch
__beginthreadex
__assert
__ZNSt24__default_alloc_templateILb1ELi0EE10deallocateEPvj
___cxa_throw
___cxa_allocate_exception
_reslog_adaptor_log
__ZNSt24__default_alloc_templateILb1ELi0EE8allocateEj
__ZdlPv
